
out/a734eed9-d6a1-4244-aa50-7c99719e7b7b.elf:     file format elf32-littlearm
out/a734eed9-d6a1-4244-aa50-7c99719e7b7b.elf
architecture: armv7, flags 0x00000150:
HAS_SYMS, DYNAMIC, D_PAGED
start address 0x000004cc

Program Header:
0x70000001 off    0x0001de2c vaddr 0x0001ce2c paddr 0x0001ce2c align 2**2
         filesz 0x000010b0 memsz 0x000010b0 flags r--
    LOAD off    0x00001000 vaddr 0x00000000 paddr 0x00000000 align 2**12
         filesz 0x0001dfb4 memsz 0x0001dfb4 flags r-x
    LOAD off    0x0001f000 vaddr 0x0001e000 paddr 0x0001e000 align 2**12
         filesz 0x00000434 memsz 0x0000bca8 flags rw-
 DYNAMIC off    0x0001f000 vaddr 0x0001e000 paddr 0x0001e000 align 2**2
         filesz 0x00000088 memsz 0x00000088 flags rw-
   STACK off    0x00000000 vaddr 0x00000000 paddr 0x00000000 align 2**4
         filesz 0x00000000 memsz 0x00000000 flags rw-

Dynamic Section:
  HASH                 0x0001df84
  GNU_HASH             0x0001b650
  STRTAB               0x0001df4c
  SYMTAB               0x0001dedc
  STRSZ                0x00000036
  SYMENT               0x00000010
  DEBUG                0x00000000
  REL                  0x0001e0f8
  RELSZ                0x000001f0
  RELENT               0x00000008
  FLAGS_1              0x08000000
  RELCOUNT             0x00000025
private flags = 0x5000400: [Version5 EABI] [hard-float ABI]

Sections:
Idx Name          Size      VMA       LMA       File off  Algn
  0 .text         0001a27e  00000000  00000000  00001000  2**2
                  CONTENTS, ALLOC, LOAD, READONLY, CODE
  1 .rodata       000013cd  0001a280  0001a280  0001b280  2**2
                  CONTENTS, ALLOC, LOAD, READONLY, DATA
  2 .gnu.hash     00000030  0001b650  0001b650  0001c650  2**2
                  CONTENTS, ALLOC, LOAD, READONLY, DATA
  3 .ta_head      00000020  0001b680  0001b680  0001c680  2**3
                  CONTENTS, ALLOC, LOAD, READONLY, DATA
  4 .ARM.extab    0000178c  0001b6a0  0001b6a0  0001c6a0  2**2
                  CONTENTS, ALLOC, LOAD, READONLY, DATA
  5 .ARM.exidx    000010b0  0001ce2c  0001ce2c  0001de2c  2**2
                  CONTENTS, ALLOC, LOAD, READONLY, DATA
  6 .dynsym       00000070  0001dedc  0001dedc  0001eedc  2**2
                  CONTENTS, ALLOC, LOAD, READONLY, DATA
  7 .dynstr       00000036  0001df4c  0001df4c  0001ef4c  2**0
                  CONTENTS, ALLOC, LOAD, READONLY, DATA
  8 .hash         00000030  0001df84  0001df84  0001ef84  2**2
                  CONTENTS, ALLOC, LOAD, READONLY, DATA
  9 .dynamic      00000088  0001e000  0001e000  0001f000  2**2
                  CONTENTS, ALLOC, LOAD, DATA
 10 .got          00000070  0001e088  0001e088  0001f088  2**2
                  CONTENTS, ALLOC, LOAD, DATA
 11 .rel.got      000000c8  0001e220  0001e220  0001f220  2**2
                  CONTENTS, ALLOC, LOAD, READONLY, DATA
 12 .data         0000014c  0001e2e8  0001e2e8  0001f2e8  2**2
                  CONTENTS, ALLOC, LOAD, DATA
 13 .bss          0000b874  0001e434  0001e434  0001f434  2**2
                  ALLOC
 14 .debug_info   00013e05  00000000  00000000  0001f434  2**0
                  CONTENTS, READONLY, DEBUGGING, OCTETS
 15 .debug_abbrev 00003c54  00000000  00000000  00033239  2**0
                  CONTENTS, READONLY, DEBUGGING, OCTETS
 16 .debug_aranges 000006a8  00000000  00000000  00036e90  2**3
                  CONTENTS, READONLY, DEBUGGING, OCTETS
 17 .debug_macro  000318fe  00000000  00000000  00037538  2**0
                  CONTENTS, READONLY, DEBUGGING, OCTETS
 18 .debug_line   0000dbb6  00000000  00000000  00068e36  2**0
                  CONTENTS, READONLY, DEBUGGING, OCTETS
 19 .debug_str    0001e289  00000000  00000000  000769ec  2**0
                  CONTENTS, READONLY, DEBUGGING, OCTETS
 20 .comment      00000033  00000000  00000000  00094c75  2**0
                  CONTENTS, READONLY
 21 .ARM.attributes 00000033  00000000  00000000  00094ca8  2**0
                  CONTENTS, READONLY
 22 .debug_frame  00005528  00000000  00000000  00094cdc  2**2
                  CONTENTS, READONLY, DEBUGGING, OCTETS
 23 .rel.dyn      00000128  0001e0f8  0001e0f8  0001f0f8  2**2
                  CONTENTS, ALLOC, LOAD, READONLY, DATA
 24 .debug_line_str 0000015e  00000000  00000000  0009a204  2**0
                  CONTENTS, READONLY, DEBUGGING, OCTETS
 25 .debug_rnglists 000001aa  00000000  00000000  0009a362  2**0
                  CONTENTS, READONLY, DEBUGGING, OCTETS
SYMBOL TABLE:
00000000 l    d  .text	00000000 .text
0001a280 l    d  .rodata	00000000 .rodata
0001b650 l    d  .gnu.hash	00000000 .gnu.hash
0001b680 l    d  .ta_head	00000000 .ta_head
0001b6a0 l    d  .ARM.extab	00000000 .ARM.extab
0001ce2c l    d  .ARM.exidx	00000000 .ARM.exidx
0001dedc l    d  .dynsym	00000000 .dynsym
0001df4c l    d  .dynstr	00000000 .dynstr
0001df84 l    d  .hash	00000000 .hash
0001e000 l    d  .dynamic	00000000 .dynamic
0001e088 l    d  .got	00000000 .got
0001e220 l    d  .rel.got	00000000 .rel.got
0001e2e8 l    d  .data	00000000 .data
0001e434 l    d  .bss	00000000 .bss
00000000 l    d  .debug_info	00000000 .debug_info
00000000 l    d  .debug_abbrev	00000000 .debug_abbrev
00000000 l    d  .debug_aranges	00000000 .debug_aranges
00000000 l    d  .debug_macro	00000000 .debug_macro
00000000 l    d  .debug_line	00000000 .debug_line
00000000 l    d  .debug_str	00000000 .debug_str
00000000 l    d  .comment	00000000 .comment
00000000 l    d  .ARM.attributes	00000000 .ARM.attributes
00000000 l    d  .debug_frame	00000000 .debug_frame
0001e0f8 l    d  .rel.dyn	00000000 .rel.dyn
00000000 l    d  .debug_line_str	00000000 .debug_line_str
00000000 l    d  .debug_rnglists	00000000 .debug_rnglists
00000000 l    df *ABS*	00000000 acipher_ta.c
00000000 l     F .text	00000120 cmd_gen_key
0001a378 l     O .rodata	0000000c __func__.2
00000120 l     F .text	000001d8 cmd_enc
0001a384 l     O .rodata	00000008 __func__.1
0001a38c l     O .rodata	00000022 __func__.0
00000000 l    df *ABS*	00000000 user_ta_header.c
0001a3bc l     O .rodata	00000001 __compound_literal.0
0001a3bd l     O .rodata	00000001 __compound_literal.1
0001a3be l     O .rodata	00000001 __compound_literal.2
0001a3c0 l     O .rodata	00000004 __compound_literal.3
0001a3c4 l     O .rodata	00000004 __compound_literal.4
0001a3c8 l     O .rodata	00000004 __compound_literal.5
0001a3cc l     O .rodata	00000001 __compound_literal.6
0001a3d0 l     O .rodata	00000004 __compound_literal.7
00026435 l     O .bss	00000001 stack_canary_inited.0
00000000 l    df *ABS*	00000000 ta_entry_a32.o
00000000 l    df *ABS*	00000000 stack_check.c
00000000 l    df *ABS*	00000000 trace.c
00000570 l     F .text	00000054 trace_level_to_string
0001a558 l     O .rodata	00000005 lvl_strs.0
000005c4 l     F .text	00000060 print_thread_id
00000624 l     F .text	0000001e print_core_id
00000642 l     F .text	0000001e print_guest_id
00000000 l    df *ABS*	00000000 snprintk.c
0001a560 l     O .rodata	00000011 hexdigits
0001a574 l     O .rodata	00000011 HEXDIGITS
00000e20 l     F .text	00000e88 kprintf
00000d80 l     F .text	000000a0 uuid2str
00000000 l    df *ABS*	00000000 arm32_aeabi_ldivmod_a32.o
00000000 l    df *ABS*	00000000 arm32_aeabi_ldivmod.c
00001cd8 l     F .text	0000012a division_lqr
00001e02 l     F .text	0000007c ul_div_qr
00000000 l    df *ABS*	00000000 trace_ext.c
00000000 l    df *ABS*	00000000 tee_api.c
00026440 l     O .bss	00000004 tee_api_instance_data
000021e4 l     F .text	00000152 copy_param
00002336 l     F .text	00000152 copy_gp11_param
00002488 l     F .text	000002a0 map_tmp_param
00002728 l     F .text	00000110 update_out_param
00002838 l     F .text	00000116 update_out_gp11_param
0000294e l     F .text	0000006a bufs_intersect
000029b8 l     F .text	000000d4 check_mem_access_rights_params
00002a8c l     F .text	00000050 buf_overlaps_no_share_heap
00002adc l     F .text	000000bc check_invoke_param
0001a5fc l     O .rodata	0000000b __func__.0
000036fc l     F .text	00000020 addr_is_in_no_share_heap
00000000 l    df *ABS*	00000000 tee_api_objects.c
00000000 l    df *ABS*	00000000 tee_api_operations.c
00005a0c l     F .text	00000020 _assert_trap
00005a2c l     F .text	000000aa __tee_alg_get_class
00005ad6 l     F .text	00000184 __tee_alg_get_main_alg
00005c5a l     F .text	00000036 __tee_alg_get_key_type
00005c90 l     F .text	000002f8 __tee_alg_get_digest_size
00007270 l     F .text	0000005e reset_operation_state
000074ca l     F .text	00000272 set_operation_key2
00007912 l     F .text	00000048 init_hash_operation
0001a644 l     O .rodata	00000012 __func__.0
00007ec8 l     F .text	0000037c tee_buffer_update
00008ed2 l     F .text	0000015a ae_update_helper
00000000 l    df *ABS*	00000000 tee_api_panic.c
0000b3f6 l     F .text	00000024 check_res
0000b41a l     F .text	00000040 check_access
00000000 l    df *ABS*	00000000 tee_system_pta.c
0000b6ec l     F .text	00000064 reg_pair_to_64
0000b750 l     F .text	0000002e high32_from_64
0000b77e l     F .text	0000001c low32_from_64
0000b79a l     F .text	00000036 reg_pair_from_64
0000b7d0 l     F .text	0000007c invoke_system_pta
00026444 l     O .bss	00000004 sess.3
0001a718 l     O .rodata	00000010 uuid.2
0001a728 l     O .rodata	0000000a __func__.1
0001a734 l     O .rodata	00000017 __func__.0
00000000 l    df *ABS*	00000000 user_ta_entry.c
0000bb00 l     F .text	00000018 memtag_init_ops
0000bb18 l     F .text	00000010 __utee_gprof_init
0000bb28 l     F .text	00000010 __utee_gprof_fini
0001e374 l     O .data	00000008 ta_sessions
0002647c l     O .bss	00000001 init_done
0001e37c l     O .data	00000008 __phdr_info_head
00026480 l     O .bss	00000004 _num_mod_init
0000bb38 l     F .text	000000cc _init_iterate_phdr_cb
0001a7a0 l     O .rodata	00000016 __func__.0
0000bc04 l     F .text	000000fc _get_fn_array
0000be7c l     F .text	000000a8 _fini_iterate_phdr_cb
0000bf44 l     F .text	00000074 get_memtag_implementation
0000bfb8 l     F .text	000000c0 init_instance
0000c078 l     F .text	00000018 uninit_instance
0000c090 l     F .text	00000058 ta_header_save_params
0000c0e8 l     F .text	00000044 ta_header_get_session
0000c12c l     F .text	000000c0 ta_header_add_session
0000c1ec l     F .text	000000d4 ta_header_remove_session
0000c2c0 l     F .text	00000182 to_utee_params
0000c442 l     F .text	000000e2 from_utee_params
0000c524 l     F .text	000000c4 entry_open_session
0000c5e8 l     F .text	00000040 entry_close_session
0000c628 l     F .text	000000a4 entry_invoke_command
00000000 l    df *ABS*	00000000 user_ta_entry_compat.c
0000c740 l     F .text	000000c4 to_gp11_param
0000c804 l     F .text	000000c4 from_gp11_param
00000000 l    df *ABS*	00000000 utee_syscalls_a32.o
00000000 l    df *ABS*	00000000 abort.c
00000000 l    df *ABS*	00000000 assert.c
00000000 l    df *ABS*	00000000 tee_api_arith_mpi.c
0000cf38 l     F .text	00000030 api_panic
0000cf68 l     F .text	00000030 mpi_panic
00026484 l     O .bss	00003800 data.18
0001a8c0 l     O .rodata	00000012 __func__.17
0000d000 l     F .text	00000090 copy_mpi_to_bigint
0000d090 l     F .text	000000a0 get_mpi
0001a8d4 l     O .rodata	00000008 __func__.16
0001a8dc l     O .rodata	0000000f __func__.15
0001a8ec l     O .rodata	0000001f __func__.14
0001a90c l     O .rodata	00000019 __func__.13
0001a928 l     O .rodata	00000015 __func__.12
0000dab8 l     F .text	00000130 bigint_binary
0001a940 l     O .rodata	0000000e __func__.11
0000dbe8 l     F .text	000001bc bigint_binary_mod
0001a950 l     O .rodata	00000012 __func__.10
0001a964 l     O .rodata	0000000e __func__.9
0001a974 l     O .rodata	0000000e __func__.8
0001a984 l     O .rodata	0000000e __func__.7
0001a994 l     O .rodata	00000011 __func__.6
0001a9a8 l     O .rodata	00000018 __func__.5
0000e534 l     F .text	0000002a mpi_is_odd
0000e55e l     F .text	00000032 mpi_is_even
0001a9c0 l     O .rodata	00000011 __func__.4
0000e780 l     F .text	00000764 mpi_egcd
0001a9d4 l     O .rodata	00000009 __func__.3
0001a9e0 l     O .rodata	0000001d __func__.2
0000f1ac l     F .text	00000030 rng_read
0001aa00 l     O .rodata	00000019 __func__.1
0001aa1c l     O .rodata	00000015 __func__.0
00000000 l    df *ABS*	00000000 tee_api_property.c
0001aa34 l     O .rodata	00000004 __compound_literal.0
0001aa38 l     O .rodata	00000004 __compound_literal.1
0001aa3c l     O .rodata	00000004 __compound_literal.2
0001aa40 l     O .rodata	00000004 __compound_literal.3
0000f5c8 l     F .text	00000090 propset_get
0000f658 l     F .text	00000174 propget_get_ext_prop
0000f7cc l     F .text	00000040 is_propset_pseudo_handle
0000f80c l     F .text	000001dc propget_get_property
00000000 l    df *ABS*	00000000 tcb.c
000105e4 l     F .text	00000020 _assert_trap
00029c84 l     O .bss	00000004 _tcb
00029c88 l     O .bss	00000004 _tls_size
0001ab6c l     O .rodata	00000010 __func__.1
0001ab7c l     O .rodata	00000010 __func__.0
00000000 l    df *ABS*	00000000 bignum.c
00010a4c l     F .text	00000030 mbedtls_ct_compiler_opaque
00010a7c l     F .text	00000040 mbedtls_ct_bool
00010abc l     F .text	0000003a mbedtls_ct_if
00010af6 l     F .text	00000040 mbedtls_ct_uint_ne
00010b36 l     F .text	00000024 mbedtls_ct_uint_if
00010b5a l     F .text	00000022 mbedtls_ct_size_if_else_0
00010b7c l     F .text	00000022 mbedtls_ct_uint_if_else_0
00010b9e l     F .text	00000022 mbedtls_ct_mpi_uint_if_else_0
00010bc0 l     F .text	00000024 mbedtls_ct_uint_eq
00010be4 l     F .text	00000022 mbedtls_ct_bool_ne
00010c06 l     F .text	00000022 mbedtls_ct_bool_and
00010c28 l     F .text	00000022 mbedtls_ct_bool_or
00010c4a l     F .text	0000001e mbedtls_ct_bool_not
00010c68 l     F .text	00000042 mbedtls_ct_mpi_sign_if
00010f40 l     F .text	0000003a mpi_init
000112f0 l     F .text	00000066 mbedtls_mpi_resize_clear
000114c8 l     F .text	00000028 mpi_sint_abs
0001173a l     F .text	00000082 mpi_get_digit
000119d4 l     F .text	00000108 mpi_write_hlp
00012470 l     F .text	000000b6 add_sub_mpi
000128f4 l     F .text	000000d6 mbedtls_int_div_int
0001333c l     F .text	0000007c mpi_select
0001aba0 l     O .rodata	000000a7 small_prime_gaps
000143dc l     F .text	000000d0 mpi_check_small_factors
000144ac l     F .text	000002f4 mpi_miller_rabin
0001ac48 l     O .rodata	00000024 gcd_pairs
00000000 l    df *ABS*	00000000 bignum_core.c
000150c8 l     F .text	00000044 mbedtls_bswap32
0001510c l     F .text	00000030 mbedtls_ct_compiler_opaque
0001513c l     F .text	00000040 mbedtls_ct_bool
0001517c l     F .text	0000003a mbedtls_ct_if
000151b6 l     F .text	0000005e mbedtls_ct_uint_lt
00015214 l     F .text	00000040 mbedtls_ct_uint_ne
00015254 l     F .text	00000024 mbedtls_ct_mpi_uint_if
00015278 l     F .text	00000022 mbedtls_ct_mpi_uint_if_else_0
0001529a l     F .text	00000024 mbedtls_ct_uint_eq
000152be l     F .text	00000024 mbedtls_ct_uint_ge
000152e2 l     F .text	00000022 mbedtls_ct_bool_and
00015304 l     F .text	00000022 mbedtls_ct_bool_or
00015326 l     F .text	0000001e mbedtls_ct_bool_not
000153ca l     F .text	0000001e mpi_bigendian_to_host
000169e2 l     F .text	00000056 mbedtls_mpi_core_ct_uint_table_lookup
00016bbe l     F .text	00000028 exp_mod_get_window_size
00016c3a l     F .text	000000b6 exp_mod_precompute_window
00000000 l    df *ABS*	00000000 constant_time.c
00016fcc l     F .text	00000030 mbedtls_ct_compiler_opaque
00016ffc l     F .text	00000040 mbedtls_ct_bool
0001703c l     F .text	0000003a mbedtls_ct_if
00017076 l     F .text	0000005e mbedtls_ct_uint_lt
000170d4 l     F .text	00000040 mbedtls_ct_uint_ne
00017114 l     F .text	00000024 mbedtls_ct_uint_if
00017138 l     F .text	00000022 mbedtls_ct_uint_if_else_0
0001715a l     F .text	00000024 mbedtls_ct_uint_eq
0001717e l     F .text	00000020 mbedtls_ct_uint_gt
0001719e l     F .text	00000024 mbedtls_ct_uint_ge
000171c2 l     F .text	00000022 mbedtls_ct_bool_and
00000000 l    df *ABS*	00000000 platform_util.c
0001e3b4 l     O .data	00000004 memset_func
00000000 l    df *ABS*	00000000 bget_malloc.c
0001757c l     F .text	00000020 _assert_trap
0001759c l     F .text	00000024 memset_unchecked
000175c0 l     F .text	00000024 memcpy_unchecked
000175e4 l     F .text	00000090 buf_get_pos
0001b4d8 l     O .rodata	00000005 __func__.9
0001b4e0 l     O .rodata	00000006 __func__.8
0001b4e8 l     O .rodata	00000006 __func__.7
0001b4f0 l     O .rodata	00000005 __func__.6
0001b4f8 l     O .rodata	00000006 __func__.5
0001b500 l     O .rodata	00000007 __func__.4
00029c94 l     O .bss	00000004 bchain
00029c98 l     O .bss	00000004 bp
0001e3b8 l     O .data	00000004 next
00029c9c l     O .bss	00000004 mymalloc
00029ca0 l     O .bss	00000004 myfree
0001e3bc l     O .data	0000001c mypoolset
00018014 l     F .text	0000004c myrand
00018060 l     F .text	00000024 mysrand
00018084 l     F .text	00000098 stats
0001811c l     F .text	0000003e blimit
0001b508 l     O .rodata	0000000f __func__.3
00018560 l     F .text	0000001c malloc_lock
0001857c l     F .text	0000001a malloc_unlock
0001e3d8 l     O .data	0000005c malloc_ctx
00018596 l     F .text	0000001a print_oom
000185b0 l     F .text	00000058 bget_buf_size
0001b518 l     O .rodata	0000000e __func__.2
00018608 l     F .text	0000002c maybe_tag_buf
00018634 l     F .text	00000026 maybe_untag_buf
0001865a l     F .text	0000001a strip_tag
00018674 l     F .text	0000001a tag_asan_free
0001868e l     F .text	00000086 raw_malloc_return_hook
00018714 l     F .text	00000044 gen_malloc_reset_stats
00018774 l     F .text	0000002e gen_malloc_get_stats
000187c8 l     F .text	00000018 raw_malloc_validate_pools
000187e0 l     F .text	0000002c bpool_foreach_iterator_init
0001880c l     F .text	000000d0 bpool_foreach_pool
0001b528 l     O .rodata	00000013 __func__.1
000188dc l     F .text	000000ac bpool_foreach
00018d64 l     F .text	0000004c free_helper
00018e04 l     F .text	0000002e realloc_unlocked
00018f10 l     F .text	00000026 get_payload_start_size
00018f72 l     F .text	00000032 gen_malloc_add_pool
00018fa4 l     F .text	0000003e gen_malloc_buffer_is_within_alloced
00018fe2 l     F .text	0000003e gen_malloc_buffer_overlaps_heap
0001b53c l     O .rodata	00000014 __func__.0
00000000 l    df *ABS*	00000000 snprintf.c
00000000 l    df *ABS*	00000000 mempool.c
000194a0 l     F .text	00000020 _assert_trap
000194c0 l     F .text	00000094 init_mpool
0001b5dc l     O .rodata	0000000b __func__.2
00019554 l     F .text	00000018 get_pool
0001956c l     F .text	00000018 put_pool
0001b5e8 l     O .rodata	00000013 __func__.1
0001b5fc l     O .rodata	0000000e __func__.0
00000000 l    df *ABS*	00000000 base64.c
0001b60c l     O .rodata	00000041 base64_table
00019918 l     F .text	0000006c get_idx
00000000 l    df *ABS*	00000000 aeabi_unwind.c
00000000 l    df *ABS*	00000000 memchr.c
00000000 l    df *ABS*	00000000 strlen.c
00000000 l    df *ABS*	00000000 memcpy.c
00000000 l    df *ABS*	00000000 memmove.c
00000000 l    df *ABS*	00000000 memset.c
00000000 l    df *ABS*	00000000 strcmp.c
00000000 l    df *ABS*	00000000 strlcpy.c
00000000 l    df *ABS*	00000000 consttime_memcmp.c
00000000 l    df *ABS*	00000000 
0001e000 l     O *ABS*	00000000 _DYNAMIC
0001e088 l     O *ABS*	00000000 _GLOBAL_OFFSET_TABLE_
00002178 g     F .text	0000006c putchar
0000d264 g     F .text	00000028 __GP11_TEE_BigIntConvertFromOctetString
000045a8 g     F .text	000001b8 TEE_PopulateTransientObject
00015cd2 g     F .text	000000b0 mbedtls_mpi_core_add_if
00008d9a g     F .text	00000030 __GP11_TEE_AEInit
0000f38c g     F .text	00000024 TEE_BigIntConvertToFMM
0000e2d8 g     F .text	00000024 TEE_BigIntSquareMod
0000d670 g     F .text	000001ec TEE_BigIntShiftRight
00019062 g     F .text	00000136 raw_malloc_add_pool
0000b9fc g     F .text	00000104 tee_invoke_supp_plugin
00016a38 g     F .text	000000a6 mbedtls_mpi_core_fill_random
00011070 g     F .text	00000118 mbedtls_mpi_grow
00001f14 g     F .text	00000114 __l_divmod
0000795a g     F .text	0000005c TEE_DigestUpdate
00010326 g     F .text	0000013e __GP11_TEE_GetPropertyName
0000371c g     F .text	000000d8 TEE_Realloc
000159be g     F .text	00000152 mbedtls_mpi_core_shift_r
0000773c g     F .text	00000042 TEE_SetOperationKey2
00008acc g     F .text	0000008c __GP11_TEE_MACComputeFinal
0000b6b8 g     F .text	00000034 __utee_check_inout_annotation
00018a8e g     F .text	00000036 raw_free
0001725c g     F .text	000000a8 mbedtls_ct_memcmp_partial
00002060 g     F .text	000000e0 printf
0000da88 g     F .text	00000030 TEE_BigIntAbs
00008458 g     F .text	0000008c __GP11_TEE_CipherUpdate
00004918 g     F .text	00000048 TEE_InitRefAttribute
0000ca34 g     F .text	00000014 _utee_log
00002e58 g     F .text	0000017c TEE_InvokeTACommand
000049f0 g     F .text	00000048 __GP11_TEE_InitValueAttribute
0000b45a g     F .text	0000005a __utee_check_outbuf_annotation
000158de g     F .text	000000e0 mbedtls_mpi_core_write_be
00010f98 g     F .text	0000003c mbedtls_mpi_init_mempool
0000ccd0 g     F .text	00000014 _utee_cryp_random_number_generate
00011df8 g     F .text	0000002c mbedtls_mpi_write_binary
000091ec g     F .text	00000280 TEE_AEEncryptFinal
00000c78 g     F .text	0000002e vsnprintk
00012604 g     F .text	00000090 mbedtls_mpi_sub_int
00009e3c g     F .text	00000208 __GP11_TEE_AsymmetricDecrypt
00019e40 g     F .text	0000013e memmove
000193fc g     F .text	00000074 snprintf
0000d600 g     F .text	00000070 TEE_BigIntCmpS32
000033a8 g     F .text	00000024 __GP11_TEE_MemMove
0001e370 g     O .data	00000004 __stack_chk_guard
000049a8 g     F .text	00000048 TEE_InitValueAttribute
00011188 g     F .text	00000168 mbedtls_mpi_shrink
00019b80 g     F .text	00000010 __aeabi_unwind_cpp_pr0
00003438 g     F .text	00000022 __GP11_TEE_MemFill
0000dda4 g     F .text	00000034 TEE_BigIntAdd
0000cc30 g     F .text	00000014 _utee_cryp_obj_restrict_usage
00004960 g     F .text	00000048 __GP11_TEE_InitRefAttribute
0001a3b4 g     O .rodata	00000004 ta_heap_size
000044f4 g     F .text	000000b4 TEE_ResetTransientObject
0000cd58 g     F .text	00000018 _utee_asymm_operate
000117bc g     F .text	00000218 mbedtls_mpi_read_string
00004d58 g     F .text	00000160 __GP11_TEE_GenerateKey
00007dbc g     F .text	000000ec TEE_CipherInit
00015e2c g     F .text	00000994 mbedtls_mpi_core_mla
0000de0c g     F .text	000000e4 TEE_BigIntNeg
0000cdf4 g     F .text	00000014 _utee_storage_free_enum
00000000 g       .text	00000000 __text_start
000104e4 g     F .text	00000100 TEE_GetNextProperty
00005330 g     F .text	0000005a TEE_StartPersistentObjectEnumerator
00011e9c g     F .text	00000032 mbedtls_mpi_shift_r
000193d0 g     F .text	0000002c malloc_buffer_overlaps_heap
0000cb98 g     F .text	00000014 _utee_hash_init
0000e268 g     F .text	00000038 TEE_BigIntSubMod
00014880 g     F .text	0000032c mbedtls_mpi_gen_prime
00010030 g     F .text	00000080 TEE_GetPropertyAsBinaryBlock
0001156e g     F .text	0000004e mbedtls_mpi_get_bit
00016ade g     F .text	000000e0 mbedtls_mpi_core_random
0001a3b8 g     O .rodata	00000004 __ta_no_share_heap_size
00011d68 g     F .text	00000064 mbedtls_mpi_read_binary
00008cac g     F .text	000000ee TEE_AEInit
00000660 g     F .text	00000070 trace_printf
00013260 g     F .text	00000060 mbedtls_mpi_montmul
0000cea8 g     F .text	00000014 _utee_cache_operation
00019d4e g     F .text	000000f2 memcpy
00016cf0 g     F .text	0000016a mbedtls_mpi_core_exp_mod
0000f3b0 g     F .text	000000d0 TEE_BigIntConvertFromFMM
0000b3dc g     F .text	0000001a TEE_Panic
000173be g     F .text	00000082 mbedtls_ct_memcpy_if
00001cc0 g     F .text	00000018 __aeabi_uldivmod
000077b8 g     F .text	0000015a TEE_CopyOperation
00002140 g     F .text	00000038 puts
0000f480 g     F .text	00000148 TEE_BigIntComputeFMM
000187a2 g     F .text	00000026 malloc_get_stats
00003588 g     F .text	0000002c TEE_GetREETime
00019348 g     F .text	00000032 raw_malloc_get_stats
0000523e g     F .text	0000008e TEE_AllocatePersistentObjectEnumerator
0001e2ec g     O .data	00000084 ta_props
000097ec g     F .text	00000224 TEE_AsymmetricEncrypt
000036dc g     F .text	00000020 __GP11_TEE_Malloc
00002ce4 g     F .text	00000144 __GP11_TEE_OpenTASession
0000b50c g     F .text	00000040 __utee_check_instring_annotation
00018d14 g     F .text	00000050 malloc
00000400 g     F .text	00000048 __ta_entry_c
000102d4 g     F .text	0000001e TEE_FreePropertyEnumerator
00007ea8 g     F .text	00000020 __GP11_TEE_CipherInit
00004bfc g     F .text	0000015c TEE_GenerateKey
00019470 g     F .text	0000002e vsnprintf
0001e2e8 g     O .data	00000004 trace_level
00004f98 g     F .text	0000002c __GP11_TEE_OpenPersistentObject
0000d574 g     F .text	0000008c TEE_BigIntCmp
0001a518 g     O .rodata	00000004 ta_num_props
00017aac g     F .text	000000c4 bgetr
0000cd88 g     F .text	00000018 _utee_storage_obj_open
000033f0 g     F .text	00000024 __GP11_TEE_MemCompare
00019714 g     F .text	00000032 mempool_free
00008244 g     F .text	00000214 TEE_CipherUpdate
0000cbac g     F .text	00000014 _utee_hash_update
0000d28c g     F .text	000000bc TEE_BigIntConvertToOctetString
00006ff4 g     F .text	000001fc TEE_GetOperationInfoMultiple
000116f0 g     F .text	00000026 mbedtls_mpi_bitlen
0000d87e g     F .text	0000007a TEE_BigIntGetBit
0001a3b0 g     O .rodata	00000003 trace_ext_prefix
0000ce30 g     F .text	00000014 _utee_storage_next_enum
00018a60 g     F .text	0000002e raw_malloc
00017a08 g     F .text	000000a4 bgetz
00003368 g     F .text	0000001c TEE_GetInstanceData
00003486 g     F .text	00000038 TEE_Wait
00012694 g     F .text	000001b4 mbedtls_mpi_mul_mpi
00019ba0 g     F .text	00000010 __aeabi_unwind_cpp_pr2
0000d85c g     F .text	00000022 __GP11_TEE_BigIntShiftRight
00003898 g     F .text	00000024 TEE_CacheFlush
000006d0 g     F .text	00000518 trace_vprintf
0000030c g     F .text	00000010 TA_DestroyEntryPoint
00010f7a g     F .text	0000001e mbedtls_mpi_init
0000cdb8 g     F .text	00000014 _utee_storage_obj_del
00011686 g     F .text	0000006a mbedtls_mpi_lsb
000087d4 g     F .text	00000098 __GP11_TEE_CipherDoFinal
0000cedc g     F .text	00000048 _assert_log
000090ec g     F .text	00000100 __GP11_TEE_AEUpdate
0000cb70 g     F .text	00000014 _utee_cryp_state_copy
0000f354 g     F .text	0000001c TEE_BigIntFMMContextSizeInU32
0000b918 g     F .text	000000e4 tee_unmap
00008b58 g     F .text	00000128 TEE_MACCompareFinal
000051aa g     F .text	00000070 TEE_RenamePersistentObject
00019748 g     F .text	00000036 base64_enc_len
000079d6 g     F .text	00000172 TEE_DigestDoFinal
00004760 g     F .text	000001b8 __GP11_TEE_PopulateTransientObject
0000cf98 g     F .text	00000068 _TEE_MathAPI_Init
00010604 g     F .text	00000308 __utee_tcb_init
00012526 g     F .text	00000028 mbedtls_mpi_add_mpi
0000cebc g     F .text	00000020 abort
00013ec0 g     F .text	0000007e mbedtls_mpi_random
000004d0 g     F .text	00000034 __stack_chk_fail
0000b5fc g     F .text	00000034 __utee_check_out_annotation
0001e434 g     O .bss	00008000 ta_heap
0000e2fc g     F .text	00000140 TEE_BigIntInvMod
000079b6 g     F .text	00000020 __GP11_TEE_DigestUpdate
0000bd00 g     F .text	0000017c __utee_call_elf_init_fn
00003cd0 g     F .text	000000f0 __GP11_TEE_GetObjectInfo
00000364 g     F .text	00000028 TA_CloseSessionEntryPoint
0000038c g     F .text	00000074 __GP11_TA_InvokeCommandEntryPoint
0000caa0 g     F .text	00000014 _utee_close_ta_session
0000f2d0 g     F .text	00000022 __GP11_TEE_BigIntInitFMMContext
00009c18 g     F .text	00000224 TEE_AsymmetricDecrypt
00003e8c g     F .text	000000cc __GP11_TEE_GetObjectInfo1
00004eb8 g     F .text	000000e0 TEE_OpenPersistentObject
00016ec8 g     F .text	00000054 mbedtls_mpi_core_check_zero_ct
0001254e g     F .text	00000028 mbedtls_mpi_sub_mpi
0001a1ca g     F .text	000000b4 consttime_memcmp
0000ca20 g     F .text	00000014 _utee_return
0000ca48 g     F .text	00000014 __utee_panic
000171e4 g     F .text	00000078 mbedtls_ct_memcmp
0001090c g     F .text	00000038 __tls_get_addr
00000490 g     F .text	0000003c TA_InvokeCommandEntryPoint
0000bf24 g     F .text	00000020 __utee_call_elf_fini_fn
00018f54 g     F .text	0000001e free_wipe
000195f4 g     F .text	00000070 mempool_alloc
0000ca0c g     F .text	00000014 _utee_panic
00019034 g     F .text	0000002e raw_malloc_init_ctx
00019664 g     F .text	000000b0 mempool_calloc
0000ce94 g     F .text	00000014 _utee_cryp_obj_generate_key
0000ce6c g     F .text	00000014 _utee_storage_obj_trunc
00004a38 g     F .text	000000a0 TEE_CopyObjectAttributes
0001e384 g     O .data	00000030 tee_props
0000caf4 g     F .text	00000014 _utee_unmask_cancellation
000102b0 g     F .text	00000024 TEE_ResetPropertyEnumerator
00018db0 g     F .text	00000054 calloc
000035b4 g     F .text	00000128 TEE_Malloc
00019984 g     F .text	000001fc base64_dec
0000328c g     F .text	00000094 TEE_CheckMemoryAccessRights
000100b0 g     F .text	000000c8 TEE_GetPropertyAsUUID
00001e7e g     F .text	00000096 __ul_divmod
0000ca5c g     F .text	00000018 _utee_get_property
00007b48 g     F .text	0000008c __GP11_TEE_DigestDoFinal
0000d964 g     F .text	000000b4 TEE_BigIntSetBit
000114f0 g     F .text	0000007e mbedtls_mpi_lset
0000777e g     F .text	0000003a __GP11_TEE_SetOperationKey2
00005604 g     F .text	000000c8 TEE_ReadObjectData
00004044 g     F .text	00000128 TEE_GetObjectBufferAttribute
0000045c g     F .text	00000034 TA_OpenSessionEntryPoint
00016e5a g     F .text	0000006e mbedtls_mpi_core_sub_int
0000031c g     F .text	00000048 __GP11_TA_OpenSessionEntryPoint
00006f1a g     F .text	00000044 TEE_FreeOperation
00010944 g     F .text	00000108 dl_iterate_phdr
00029ca8 g       .bss	00000000 __ftrace_buf_end
00026448 g     O .bss	00000004 ta_param_types
00012ff4 g     F .text	00000090 mbedtls_mpi_div_int
000038e0 g     F .text	0000017e __utee_from_attr
0001580c g     F .text	000000d2 mbedtls_mpi_core_write_le
000147a0 g     F .text	000000e0 mbedtls_mpi_is_prime_ext
0000f1dc g     F .text	0000009c TEE_BigIntIsProbablePrime
00012848 g     F .text	000000ac mbedtls_mpi_mul_int
00005164 g     F .text	00000046 TEE_CloseAndDeletePersistentObject1
000133b8 g     F .text	000008a4 mbedtls_mpi_exp_mod
00010dc4 g     F .text	000000c8 mbedtls_mpi_safe_cond_assign
0000f9e8 g     F .text	00000294 TEE_GetPropertyAsString
00010caa g     F .text	0000011a mbedtls_mpi_lt_mpi_ct
00009524 g     F .text	00000230 TEE_AEDecryptFinal
0000d130 g     F .text	00000068 TEE_BigIntInit
0000d348 g     F .text	00000070 __GP11_TEE_BigIntConvertToOctetString
0000da18 g     F .text	00000070 TEE_BigIntAssign
0000b54c g     F .text	00000058 __utee_check_outstring_annotation
00003384 g     F .text	00000024 TEE_MemMove
000174ec g     F .text	00000064 mbedtls_platform_zeroize
0000d1b6 g     F .text	000000ae TEE_BigIntConvertFromOctetString
0000cd40 g     F .text	00000018 _utee_authenc_dec_final
00011ece g     F .text	0000011c mbedtls_mpi_cmp_abs
0000ce44 g     F .text	00000014 _utee_storage_obj_read
0000886c g     F .text	00000072 TEE_MACInit
0000a044 g     F .text	000001f8 TEE_AsymmetricSignDigest
00019bb0 g     F .text	00000114 memchr
000031b4 g     F .text	0000006c TEE_UnmaskCancellation
00003be2 g     F .text	000000ee TEE_GetObjectInfo
00014bac g     F .text	0000051c mbedtls_mpi_self_test
0000b4b4 g     F .text	00000058 __utee_check_gp11_outbuf_annotation
0000ce80 g     F .text	00000014 _utee_storage_obj_seek
0000902c g     F .text	000000c0 TEE_AEUpdate
00004440 g     F .text	000000b4 TEE_FreeTransientObject
0001561e g     F .text	000000ac mbedtls_mpi_core_cond_swap
0000cae0 g     F .text	00000014 _utee_check_access_rights
00015778 g     F .text	00000094 mbedtls_mpi_core_read_be
00002fd4 g     F .text	00000174 __GP11_TEE_InvokeTACommand
0001215c g     F .text	0000008c mbedtls_mpi_cmp_int
0000ce08 g     F .text	00000014 _utee_storage_reset_enum
00006f5e g     F .text	00000028 __GP11_TEE_FreeOperation
0001815a g     F .text	00000406 bget_main_test
0000ac3a g     F .text	0000005a rand
0000b630 g     F .text	00000044 __utee_check_attr_in_annotation
0000cd10 g     F .text	00000018 _utee_authenc_update_payload
00006f86 g     F .text	0000006e TEE_GetOperationInfo
0000e1c4 g     F .text	0000006c TEE_BigIntMod
00013118 g     F .text	00000122 mbedtls_mpi_mod_int
0000a23c g     F .text	000001f8 __GP11_TEE_AsymmetricSignDigest
00011d04 g     F .text	00000064 mbedtls_mpi_read_binary_le
0000e024 g     F .text	000001a0 TEE_BigIntDiv
0000cc58 g     F .text	00000014 _utee_cryp_obj_alloc
00029ca8 g       .bss	00000000 __ftrace_buf_start
0001a148 g     F .text	00000082 strlcpy
00011356 g     F .text	000000fc mbedtls_mpi_copy
00015344 g     F .text	0000001e mbedtls_mpi_core_clz
0000ac94 g     F .text	00000746 TEE_IsAlgorithmSupported
00018758 g     F .text	0000001c malloc_reset_stats
00010178 g     F .text	000000c8 TEE_GetPropertyAsIdentity
00000d4c g     F .text	00000034 __vsprintf
0000fe90 g     F .text	000000c8 TEE_GetPropertyAsU64
0000cb44 g     F .text	00000014 _utee_set_ta_time
0000cab4 g     F .text	00000018 _utee_invoke_ta_command
00003ff8 g     F .text	0000004c TEE_RestrictObjectUsage1
00018e32 g     F .text	0000004e realloc
00011452 g     F .text	00000076 mbedtls_mpi_swap
0001977e g     F .text	0000019a base64_enc
00019584 g     F .text	00000070 mempool_alloc_pool
0000def0 g     F .text	00000114 TEE_BigIntMul
000072ce g     F .text	0000003c TEE_ResetOperation
00019020 g     F .text	00000014 raw_malloc_get_ctx_size
00011e24 g     F .text	00000078 mbedtls_mpi_shift_l
00011fea g     F .text	00000172 mbedtls_mpi_cmp_mpi
00003414 g     F .text	00000024 TEE_MemFill
0001937a g     F .text	0000002a malloc_add_pool
000088fe g     F .text	00000082 TEE_MACUpdate
0000054c g     F .text	00000024 trace_get_level
000121e8 g     F .text	0000012e mbedtls_mpi_add_abs
00003f58 g     F .text	000000a0 TEE_RestrictObjectUsage
0000f312 g     F .text	00000026 TEE_BigIntFMMSizeInU32
0000fcfc g     F .text	000000cc TEE_GetPropertyAsBool
00018bc8 g     F .text	0000014c raw_realloc
0000f278 g     F .text	0000001e TEE_BigIntInitFMM
00004334 g     F .text	00000032 TEE_CloseObject
0000cbd8 g     F .text	00000014 _utee_cipher_init
0000c6cc g     F .text	00000072 __utee_entry
0000fdc8 g     F .text	000000c8 TEE_GetPropertyAsU32
0001a27e g       .text	00000000 __text_end
0000e43c g     F .text	000000f8 TEE_BigIntRelativePrime
00013084 g     F .text	00000094 mbedtls_mpi_mod_mpi
000154ca g     F .text	000000dc mbedtls_mpi_core_lt_ct
0000cc1c g     F .text	00000014 _utee_cryp_obj_get_info
00015d82 g     F .text	000000aa mbedtls_mpi_core_sub
00017e80 g     F .text	000000f0 bpool
00010240 g     F .text	00000070 TEE_AllocatePropertyEnumerator
0000cb58 g     F .text	00000018 _utee_cryp_state_alloc
00003148 g     F .text	0000006c TEE_GetCancellationFlag
000050f0 g     F .text	00000042 __GP11_TEE_CreatePersistentObject
00013c5c g     F .text	000001f4 mbedtls_mpi_gcd
00003542 g     F .text	00000046 TEE_SetTAPersistentTime
00017550 g     F .text	0000002a mbedtls_zeroize_and_free
00011dcc g     F .text	0000002c mbedtls_mpi_write_binary_le
00019f7e g     F .text	0000011c memset
00018988 g     F .text	000000d8 raw_memalign
000034be g     F .text	00000084 TEE_GetTAPersistentTime
00007494 g     F .text	00000036 __GP11_TEE_SetOperationKey
0000946c g     F .text	000000b8 __GP11_TEE_AEEncryptFinal
00000be8 g     F .text	0000001e dhex_dump
000153e8 g     F .text	00000072 mbedtls_mpi_core_bigendian_to_host
00004fc4 g     F .text	0000012c TEE_CreatePersistentObject
00003220 g     F .text	0000006c TEE_MaskCancellation
00008dca g     F .text	00000088 TEE_AEUpdateAAD
000057f2 g     F .text	0000006c TEE_TruncateObjectData
0000cc44 g     F .text	00000014 _utee_cryp_obj_get_attr
00003dc0 g     F .text	000000cc TEE_GetObjectInfo1
0000cc04 g     F .text	00000018 _utee_cipher_final
00000504 g     F .text	00000048 trace_set_level
00016f1c g     F .text	00000036 mbedtls_mpi_core_to_mont_rep
000041f0 g     F .text	00000144 TEE_GetObjectValueAttribute
0000730a g     F .text	0000018a TEE_SetOperationKey
0000416c g     F .text	00000084 __GP11_TEE_GetObjectBufferAttribute
00017440 g     F .text	0000004e mbedtls_ct_memcpy_offset
0000cb84 g     F .text	00000014 _utee_cryp_state_free
0001a09a g     F .text	000000ae strcmp
0000ca88 g     F .text	00000018 _utee_open_ta_session
0000d46c g     F .text	00000108 TEE_BigIntConvertToS32
0000ddd8 g     F .text	00000034 TEE_BigIntSub
000059d0 g     F .text	0000003c __GP11_TEE_SeekObjectData
00000448 g     F .text	00000014 tahead_get_trace_level
0000ce1c g     F .text	00000014 _utee_storage_start_enum
00017304 g     F .text	000000ba mbedtls_ct_memmove_left
0000587e g     F .text	00000152 TEE_SeekObjectData
0000b84c g     F .text	000000cc tee_map_zi
0000585e g     F .text	00000020 __GP11_TEE_TruncateObjectData
000132c0 g     F .text	0000007c mbedtls_mpi_montred
00018e80 g     F .text	00000054 memalign
000084e4 g     F .text	000002f0 TEE_CipherDoFinal
0000d198 g     F .text	0000001e __GP11_TEE_BigIntInit
00015b10 g     F .text	00000118 mbedtls_mpi_core_shift_l
0000d3b8 g     F .text	000000b4 TEE_BigIntConvertFromS32
00012576 g     F .text	0000008e mbedtls_mpi_add_int
0000cd28 g     F .text	00000018 _utee_authenc_enc_final
000193a4 g     F .text	0000002c malloc_buffer_is_within_alloced
0000cc6c g     F .text	00000014 _utee_cryp_obj_close
0000ac1c g     F .text	0000001e __GP11_TEE_GenerateRandom
0000f2b4 g     F .text	0000001c TEE_BigIntInitFMMContext
0000cb08 g     F .text	00000014 _utee_mask_cancellation
0002646c g     O .bss	00000004 __ta_no_share_malloc_ctx
0000cdcc g     F .text	00000014 _utee_storage_obj_rename
000054c8 g     F .text	0000013c __GP11_TEE_GetNextPersistentObject
00005750 g     F .text	0000007e TEE_WriteObjectData
000052fe g     F .text	00000032 TEE_ResetPersistentObjectEnumerator
00003320 g     F .text	00000024 __GP11_TEE_CheckMemoryAccessRights
0000e004 g     F .text	00000020 TEE_BigIntSquare
0000ce58 g     F .text	00000014 _utee_storage_obj_write
00015362 g     F .text	00000068 mbedtls_mpi_core_bitlen
000002f8 g     F .text	00000014 TA_CreateEntryPoint
000004cc g     F .text	00000004 __ta_entry
00026434 g     O .bss	00000000 __ta_no_share_heap
0000ccfc g     F .text	00000014 _utee_authenc_update_aad
0001323a g     F .text	00000026 mbedtls_mpi_montg_init
00000c08 g     F .text	00000070 snprintk
0000d8f8 g     F .text	0000006c TEE_BigIntGetBitCount
0000cca8 g     F .text	00000014 _utee_cryp_obj_copy
00008e52 g     F .text	00000080 __GP11_TEE_AEUpdateAAD
0000e2a0 g     F .text	00000038 TEE_BigIntMulMod
00013f3e g     F .text	0000049e mbedtls_mpi_inv_mod
0000b674 g     F .text	00000044 __utee_check_gp11_attr_in_annotation
0000a7c0 g     F .text	00000218 TEE_DeriveKey
0002644c g     O .bss	00000020 ta_params
000129ca g     F .text	0000062a mbedtls_mpi_div_mpi
0000b5a4 g     F .text	00000058 __utee_check_gp11_outstring_annotation
00011716 g     F .text	00000024 mbedtls_mpi_size
00017674 g     F .text	00000394 bget
000056cc g     F .text	00000084 __GP11_TEE_ReadObjectData
00004366 g     F .text	0000003c TEE_AllocateTransientObject
00008980 g     F .text	00000020 __GP11_TEE_MACUpdate
0000f370 g     F .text	0000001c __GP11_TEE_BigIntFMMContextSizeInU32
000102f2 g     F .text	00000034 TEE_StartPropertyEnumerator
0000cb1c g     F .text	00000014 _utee_wait
000115bc g     F .text	000000ca mbedtls_mpi_set_bit
0001545a g     F .text	00000070 mbedtls_mpi_core_uint_le_mpi
00003814 g     F .text	00000060 TEE_Free
000038bc g     F .text	00000024 TEE_CacheInvalidate
0000cf24 g     F .text	00000014 _assert_break
00016be6 g     F .text	00000054 mbedtls_mpi_core_exp_mod_working_limbs
0000e230 g     F .text	00000038 TEE_BigIntAddMod
0000f296 g     F .text	0000001e __GP11_TEE_BigIntInitFMM
0000cb30 g     F .text	00000014 _utee_get_time
00015c28 g     F .text	000000aa mbedtls_mpi_core_add
00010464 g     F .text	00000080 TEE_GetPropertyName
000037f4 g     F .text	00000020 __GP11_TEE_Realloc
00005f88 g     F .text	00000f92 TEE_AllocateOperation
0000cc94 g     F .text	00000014 _utee_cryp_obj_populate
000156ca g     F .text	000000ae mbedtls_mpi_core_read_le
000071f0 g     F .text	00000080 __GP11_TEE_GetOperationInfoMultiple
00029c90 g     O .bss	00000004 mbedtls_ct_zero
00003a5e g     F .text	00000184 __utee_from_gp11_attr
0000abf0 g     F .text	0000002c TEE_GenerateRandom
00007bd4 g     F .text	000001e8 TEE_DigestExtract
000033cc g     F .text	00000024 TEE_MemCompare
0000cbec g     F .text	00000018 _utee_cipher_update
00000ca6 g     F .text	000000a6 __vsnprintf
00026470 g     O .bss	0000000c __elf_phdr_info
000052cc g     F .text	00000032 TEE_FreePersistentObjectEnumerator
00002b98 g     F .text	0000014c TEE_OpenTASession
0001748e g     F .text	0000005c mbedtls_ct_zeroize_if
0000a9d8 g     F .text	00000218 __GP11_TEE_DeriveKey
00016f52 g     F .text	0000007a mbedtls_mpi_core_from_mont_rep
00009754 g     F .text	00000098 __GP11_TEE_AEDecryptFinal
00002028 g     F .text	00000024 trace_ext_puts
0000fc7c g     F .text	00000080 __GP11_TEE_GetPropertyAsString
00019254 g     F .text	000000f4 raw_malloc_buffer_is_within_alloced
0000204c g     F .text	00000014 trace_ext_get_thread_id
00019198 g     F .text	000000bc raw_malloc_buffer_overlaps_heap
00005132 g     F .text	00000032 TEE_CloseAndDeletePersistentObject
0000ccbc g     F .text	00000014 _utee_cryp_derive_key
00010fd4 g     F .text	0000009c mbedtls_mpi_free
000088de g     F .text	00000020 __GP11_TEE_MACInit
0000a5f8 g     F .text	000001c8 __GP11_TEE_AsymmetricVerifyDigest
0000cc80 g     F .text	00000014 _utee_cryp_obj_reset
00003874 g     F .text	00000024 TEE_CacheClean
0000ca74 g     F .text	00000014 _utee_get_property_name_to_index
00016898 g     F .text	000000dc mbedtls_mpi_core_montmul
00018ac4 g     F .text	00000104 raw_calloc
00010e8c g     F .text	000000b4 mbedtls_mpi_safe_cond_swap
0000cce4 g     F .text	00000018 _utee_authenc_init
00004ad8 g     F .text	00000124 TEE_CopyObjectAttributes1
0000521a g     F .text	00000024 __GP11_TEE_RenamePersistentObject
00019cc4 g     F .text	0000008a strlen
0000eee4 g     F .text	000002c8 TEE_BigIntComputeExtendedGcd
00019b90 g     F .text	00000010 __aeabi_unwind_cpp_pr1
0000cde0 g     F .text	00000014 _utee_storage_alloc_enum
0000e590 g     F .text	000001f0 TEE_BigIntExpMod
0000345a g     F .text	0000002c TEE_GetSystemTime
0000cd70 g     F .text	00000018 _utee_asymm_verify
0001b680 g     O .ta_head	00000020 ta_head
00017b70 g     F .text	00000310 brel
0000c960 g     F .text	000000ac __ta_invoke_cmd
0000ff58 g     F .text	000000d8 __GP11_TEE_GetPropertyAsBinaryBlock
00012316 g     F .text	0000015a mbedtls_mpi_sub_abs
00013e50 g     F .text	00000070 mbedtls_mpi_fill_random
000043a2 g     F .text	0000009e __GP11_TEE_AllocateTransientObject
0000c8c8 g     F .text	00000098 __ta_open_sess
00003344 g     F .text	00000024 TEE_SetInstanceData
00009a10 g     F .text	00000208 __GP11_TEE_AsymmetricEncrypt
0000cacc g     F .text	00000014 _utee_get_cancellation_flag
000155a6 g     F .text	00000078 mbedtls_mpi_core_cond_assign
00001ca8 g     F .text	00000018 __aeabi_ldivmod
00011adc g     F .text	00000228 mbedtls_mpi_write_string
00018ed4 g     F .text	0000003c aligned_alloc
00016832 g     F .text	00000066 mbedtls_mpi_core_montmul_init
0000538a g     F .text	0000013e TEE_GetNextPersistentObject
0000f2f2 g     F .text	00000020 TEE_BigIntInitFMMContext1
00008c80 g     F .text	0000002c __GP11_TEE_MACCompareFinal
000057ce g     F .text	00000024 __GP11_TEE_WriteObjectData
00016974 g     F .text	0000006e mbedtls_mpi_core_get_mont_r2_unsafe
00002e28 g     F .text	00000030 TEE_CloseTASession
0000a434 g     F .text	000001c4 TEE_AsymmetricVerifyDigest
0000cda0 g     F .text	00000018 _utee_storage_obj_create
0000f338 g     F .text	0000001c __GP11_TEE_BigIntFMMSizeInU32
000167c0 g     F .text	00000072 mbedtls_mpi_core_mul
00018f36 g     F .text	0000001e free
00017f70 g     F .text	000000a4 bstats
000089a0 g     F .text	0000012c TEE_MACComputeFinal
00029c8c g     O .bss	00000004 mbedtls_mpi_mempool
0000cbc0 g     F .text	00000018 _utee_hash_final



Disassembly of section .text:

00000000 <cmd_gen_key>:
cmd_gen_key():
/home/palatrauss/optee_with_ftpm_ta/out-br/build/optee_examples_ext-1.0/acipher/ta/acipher_ta.c:18
       0:	e96d 7e02 	strd	r7, lr, [sp, #-8]!
       4:	b08e      	sub	sp, #56	; 0x38
       6:	af04      	add	r7, sp, #16
       8:	60f8      	str	r0, [r7, #12]
       a:	60b9      	str	r1, [r7, #8]
       c:	607a      	str	r2, [r7, #4]
       e:	4a3d      	ldr	r2, [pc, #244]	; (104 <cmd_gen_key+0x104>)
      10:	447a      	add	r2, pc
      12:	4b3d      	ldr	r3, [pc, #244]	; (108 <cmd_gen_key+0x108>)
      14:	58d3      	ldr	r3, [r2, r3]
      16:	681b      	ldr	r3, [r3, #0]
      18:	627b      	str	r3, [r7, #36]	; 0x24
      1a:	f04f 0300 	mov.w	r3, #0
/home/palatrauss/optee_with_ftpm_ta/out-br/build/optee_examples_ext-1.0/acipher/ta/acipher_ta.c:22
      1e:	f04f 0330 	mov.w	r3, #48	; 0x30
      22:	f2ca 1300 	movt	r3, #41216	; 0xa100
      26:	617b      	str	r3, [r7, #20]
/home/palatrauss/optee_with_ftpm_ta/out-br/build/optee_examples_ext-1.0/acipher/ta/acipher_ta.c:23
      28:	f04f 0301 	mov.w	r3, #1
      2c:	61bb      	str	r3, [r7, #24]
/home/palatrauss/optee_with_ftpm_ta/out-br/build/optee_examples_ext-1.0/acipher/ta/acipher_ta.c:28
      2e:	68ba      	ldr	r2, [r7, #8]
      30:	69bb      	ldr	r3, [r7, #24]
      32:	429a      	cmp	r2, r3
      34:	d004      	beq.n	40 <cmd_gen_key+0x40>
/home/palatrauss/optee_with_ftpm_ta/out-br/build/optee_examples_ext-1.0/acipher/ta/acipher_ta.c:29
      36:	f04f 0306 	mov.w	r3, #6
      3a:	f6cf 73ff 	movt	r3, #65535	; 0xffff
      3e:	e04f      	b.n	e0 <cmd_gen_key+0xe0>
/home/palatrauss/optee_with_ftpm_ta/out-br/build/optee_examples_ext-1.0/acipher/ta/acipher_ta.c:31
      40:	687b      	ldr	r3, [r7, #4]
      42:	681b      	ldr	r3, [r3, #0]
      44:	61fb      	str	r3, [r7, #28]
/home/palatrauss/optee_with_ftpm_ta/out-br/build/optee_examples_ext-1.0/acipher/ta/acipher_ta.c:33
      46:	f107 0310 	add.w	r3, r7, #16
      4a:	461a      	mov	r2, r3
      4c:	69f9      	ldr	r1, [r7, #28]
      4e:	6978      	ldr	r0, [r7, #20]
      50:	f004 f9a7 	bl	43a2 <__GP11_TEE_AllocateTransientObject>
      54:	6238      	str	r0, [r7, #32]
/home/palatrauss/optee_with_ftpm_ta/out-br/build/optee_examples_ext-1.0/acipher/ta/acipher_ta.c:34
      56:	6a3b      	ldr	r3, [r7, #32]
      58:	2b00      	cmp	r3, #0
      5a:	d014      	beq.n	86 <cmd_gen_key+0x86>
/home/palatrauss/optee_with_ftpm_ta/out-br/build/optee_examples_ext-1.0/acipher/ta/acipher_ta.c:35
      5c:	6a3b      	ldr	r3, [r7, #32]
      5e:	9303      	str	r3, [sp, #12]
      60:	69fb      	ldr	r3, [r7, #28]
      62:	9302      	str	r3, [sp, #8]
      64:	697b      	ldr	r3, [r7, #20]
      66:	9301      	str	r3, [sp, #4]
      68:	4b28      	ldr	r3, [pc, #160]	; (10c <cmd_gen_key+0x10c>)
      6a:	447b      	add	r3, pc
      6c:	9300      	str	r3, [sp, #0]
      6e:	f04f 0301 	mov.w	r3, #1
      72:	f04f 0201 	mov.w	r2, #1
      76:	f04f 0123 	mov.w	r1, #35	; 0x23
      7a:	4825      	ldr	r0, [pc, #148]	; (110 <cmd_gen_key+0x110>)
      7c:	4478      	add	r0, pc
      7e:	f000 faef 	bl	660 <trace_printf>
/home/palatrauss/optee_with_ftpm_ta/out-br/build/optee_examples_ext-1.0/acipher/ta/acipher_ta.c:36
      82:	6a3b      	ldr	r3, [r7, #32]
      84:	e02c      	b.n	e0 <cmd_gen_key+0xe0>
/home/palatrauss/optee_with_ftpm_ta/out-br/build/optee_examples_ext-1.0/acipher/ta/acipher_ta.c:39
      86:	6938      	ldr	r0, [r7, #16]
      88:	f04f 0300 	mov.w	r3, #0
      8c:	f04f 0200 	mov.w	r2, #0
      90:	69f9      	ldr	r1, [r7, #28]
      92:	f004 fe61 	bl	4d58 <__GP11_TEE_GenerateKey>
      96:	6238      	str	r0, [r7, #32]
/home/palatrauss/optee_with_ftpm_ta/out-br/build/optee_examples_ext-1.0/acipher/ta/acipher_ta.c:40
      98:	6a3b      	ldr	r3, [r7, #32]
      9a:	2b00      	cmp	r3, #0
      9c:	d016      	beq.n	cc <cmd_gen_key+0xcc>
/home/palatrauss/optee_with_ftpm_ta/out-br/build/optee_examples_ext-1.0/acipher/ta/acipher_ta.c:41
      9e:	6a3b      	ldr	r3, [r7, #32]
      a0:	9302      	str	r3, [sp, #8]
      a2:	69fb      	ldr	r3, [r7, #28]
      a4:	9301      	str	r3, [sp, #4]
      a6:	4b1b      	ldr	r3, [pc, #108]	; (114 <cmd_gen_key+0x114>)
      a8:	447b      	add	r3, pc
      aa:	9300      	str	r3, [sp, #0]
      ac:	f04f 0301 	mov.w	r3, #1
      b0:	f04f 0201 	mov.w	r2, #1
      b4:	f04f 0129 	mov.w	r1, #41	; 0x29
      b8:	4817      	ldr	r0, [pc, #92]	; (118 <cmd_gen_key+0x118>)
      ba:	4478      	add	r0, pc
      bc:	f000 fad0 	bl	660 <trace_printf>
/home/palatrauss/optee_with_ftpm_ta/out-br/build/optee_examples_ext-1.0/acipher/ta/acipher_ta.c:43
      c0:	693b      	ldr	r3, [r7, #16]
      c2:	4618      	mov	r0, r3
      c4:	f004 f9bc 	bl	4440 <TEE_FreeTransientObject>
/home/palatrauss/optee_with_ftpm_ta/out-br/build/optee_examples_ext-1.0/acipher/ta/acipher_ta.c:44
      c8:	6a3b      	ldr	r3, [r7, #32]
      ca:	e009      	b.n	e0 <cmd_gen_key+0xe0>
/home/palatrauss/optee_with_ftpm_ta/out-br/build/optee_examples_ext-1.0/acipher/ta/acipher_ta.c:47
      cc:	68fb      	ldr	r3, [r7, #12]
      ce:	681b      	ldr	r3, [r3, #0]
      d0:	4618      	mov	r0, r3
      d2:	f004 f9b5 	bl	4440 <TEE_FreeTransientObject>
/home/palatrauss/optee_with_ftpm_ta/out-br/build/optee_examples_ext-1.0/acipher/ta/acipher_ta.c:48
      d6:	693a      	ldr	r2, [r7, #16]
      d8:	68fb      	ldr	r3, [r7, #12]
      da:	601a      	str	r2, [r3, #0]
/home/palatrauss/optee_with_ftpm_ta/out-br/build/optee_examples_ext-1.0/acipher/ta/acipher_ta.c:49
      dc:	f04f 0300 	mov.w	r3, #0
/home/palatrauss/optee_with_ftpm_ta/out-br/build/optee_examples_ext-1.0/acipher/ta/acipher_ta.c:18 (discriminator 1)
      e0:	490e      	ldr	r1, [pc, #56]	; (11c <cmd_gen_key+0x11c>)
      e2:	4479      	add	r1, pc
/home/palatrauss/optee_with_ftpm_ta/out-br/build/optee_examples_ext-1.0/acipher/ta/acipher_ta.c:50 (discriminator 1)
      e4:	4a08      	ldr	r2, [pc, #32]	; (108 <cmd_gen_key+0x108>)
      e6:	588a      	ldr	r2, [r1, r2]
      e8:	6811      	ldr	r1, [r2, #0]
      ea:	6a7a      	ldr	r2, [r7, #36]	; 0x24
      ec:	4051      	eors	r1, r2
      ee:	f04f 0200 	mov.w	r2, #0
      f2:	d001      	beq.n	f8 <cmd_gen_key+0xf8>
/home/palatrauss/optee_with_ftpm_ta/out-br/build/optee_examples_ext-1.0/acipher/ta/acipher_ta.c:50
      f4:	f000 f9ec 	bl	4d0 <__stack_chk_fail>
      f8:	4618      	mov	r0, r3
      fa:	f107 0728 	add.w	r7, r7, #40	; 0x28
      fe:	46bd      	mov	sp, r7
     100:	bd80      	pop	{r7, pc}
     102:	bf00      	nop
     104:	0001e074 	.word	0x0001e074
     108:	0000000c 	.word	0x0000000c
     10c:	0001a212 	.word	0x0001a212
     110:	0001a2f8 	.word	0x0001a2f8
     114:	0001a200 	.word	0x0001a200
     118:	0001a2ba 	.word	0x0001a2ba
     11c:	0001dfa2 	.word	0x0001dfa2

00000120 <cmd_enc>:
cmd_enc():
/home/palatrauss/optee_with_ftpm_ta/out-br/build/optee_examples_ext-1.0/acipher/ta/acipher_ta.c:54
     120:	e96d 7e02 	strd	r7, lr, [sp, #-8]!
     124:	b098      	sub	sp, #96	; 0x60
     126:	af04      	add	r7, sp, #16
     128:	60f8      	str	r0, [r7, #12]
     12a:	60b9      	str	r1, [r7, #8]
     12c:	607a      	str	r2, [r7, #4]
     12e:	4a67      	ldr	r2, [pc, #412]	; (2cc <cmd_enc+0x1ac>)
     130:	447a      	add	r2, pc
     132:	4b67      	ldr	r3, [pc, #412]	; (2d0 <cmd_enc+0x1b0>)
     134:	58d3      	ldr	r3, [r2, r3]
     136:	681b      	ldr	r3, [r3, #0]
     138:	64fb      	str	r3, [r7, #76]	; 0x4c
     13a:	f04f 0300 	mov.w	r3, #0
/home/palatrauss/optee_with_ftpm_ta/out-br/build/optee_examples_ext-1.0/acipher/ta/acipher_ta.c:62
     13e:	f44f 7398 	mov.w	r3, #304	; 0x130
     142:	f2c6 0300 	movt	r3, #24576	; 0x6000
     146:	61fb      	str	r3, [r7, #28]
/home/palatrauss/optee_with_ftpm_ta/out-br/build/optee_examples_ext-1.0/acipher/ta/acipher_ta.c:63
     148:	f04f 0365 	mov.w	r3, #101	; 0x65
     14c:	623b      	str	r3, [r7, #32]
/home/palatrauss/optee_with_ftpm_ta/out-br/build/optee_examples_ext-1.0/acipher/ta/acipher_ta.c:68
     14e:	68ba      	ldr	r2, [r7, #8]
     150:	6a3b      	ldr	r3, [r7, #32]
     152:	429a      	cmp	r2, r3
     154:	d004      	beq.n	160 <cmd_enc+0x40>
/home/palatrauss/optee_with_ftpm_ta/out-br/build/optee_examples_ext-1.0/acipher/ta/acipher_ta.c:69
     156:	f04f 0306 	mov.w	r3, #6
     15a:	f6cf 73ff 	movt	r3, #65535	; 0xffff
     15e:	e0a4      	b.n	2aa <cmd_enc+0x18a>
/home/palatrauss/optee_with_ftpm_ta/out-br/build/optee_examples_ext-1.0/acipher/ta/acipher_ta.c:70
     160:	68fb      	ldr	r3, [r7, #12]
     162:	681b      	ldr	r3, [r3, #0]
     164:	2b00      	cmp	r3, #0
     166:	d104      	bne.n	172 <cmd_enc+0x52>
/home/palatrauss/optee_with_ftpm_ta/out-br/build/optee_examples_ext-1.0/acipher/ta/acipher_ta.c:71
     168:	f04f 0307 	mov.w	r3, #7
     16c:	f6cf 73ff 	movt	r3, #65535	; 0xffff
     170:	e09b      	b.n	2aa <cmd_enc+0x18a>
/home/palatrauss/optee_with_ftpm_ta/out-br/build/optee_examples_ext-1.0/acipher/ta/acipher_ta.c:73
     172:	68fb      	ldr	r3, [r7, #12]
     174:	681b      	ldr	r3, [r3, #0]
     176:	f107 0230 	add.w	r2, r7, #48	; 0x30
     17a:	4611      	mov	r1, r2
     17c:	4618      	mov	r0, r3
     17e:	f003 fe85 	bl	3e8c <__GP11_TEE_GetObjectInfo1>
     182:	61b8      	str	r0, [r7, #24]
/home/palatrauss/optee_with_ftpm_ta/out-br/build/optee_examples_ext-1.0/acipher/ta/acipher_ta.c:74
     184:	69bb      	ldr	r3, [r7, #24]
     186:	2b00      	cmp	r3, #0
     188:	d010      	beq.n	1ac <cmd_enc+0x8c>
/home/palatrauss/optee_with_ftpm_ta/out-br/build/optee_examples_ext-1.0/acipher/ta/acipher_ta.c:75
     18a:	69bb      	ldr	r3, [r7, #24]
     18c:	9301      	str	r3, [sp, #4]
     18e:	4b51      	ldr	r3, [pc, #324]	; (2d4 <cmd_enc+0x1b4>)
     190:	447b      	add	r3, pc
     192:	9300      	str	r3, [sp, #0]
     194:	f04f 0301 	mov.w	r3, #1
     198:	f04f 0201 	mov.w	r2, #1
     19c:	f04f 014b 	mov.w	r1, #75	; 0x4b
     1a0:	484d      	ldr	r0, [pc, #308]	; (2d8 <cmd_enc+0x1b8>)
     1a2:	4478      	add	r0, pc
     1a4:	f000 fa5c 	bl	660 <trace_printf>
/home/palatrauss/optee_with_ftpm_ta/out-br/build/optee_examples_ext-1.0/acipher/ta/acipher_ta.c:76
     1a8:	69bb      	ldr	r3, [r7, #24]
     1aa:	e07e      	b.n	2aa <cmd_enc+0x18a>
/home/palatrauss/optee_with_ftpm_ta/out-br/build/optee_examples_ext-1.0/acipher/ta/acipher_ta.c:79
     1ac:	687b      	ldr	r3, [r7, #4]
     1ae:	681b      	ldr	r3, [r3, #0]
     1b0:	627b      	str	r3, [r7, #36]	; 0x24
/home/palatrauss/optee_with_ftpm_ta/out-br/build/optee_examples_ext-1.0/acipher/ta/acipher_ta.c:80
     1b2:	687b      	ldr	r3, [r7, #4]
     1b4:	685b      	ldr	r3, [r3, #4]
     1b6:	62bb      	str	r3, [r7, #40]	; 0x28
/home/palatrauss/optee_with_ftpm_ta/out-br/build/optee_examples_ext-1.0/acipher/ta/acipher_ta.c:81
     1b8:	687b      	ldr	r3, [r7, #4]
     1ba:	f103 0308 	add.w	r3, r3, #8
     1be:	681b      	ldr	r3, [r3, #0]
     1c0:	62fb      	str	r3, [r7, #44]	; 0x2c
/home/palatrauss/optee_with_ftpm_ta/out-br/build/optee_examples_ext-1.0/acipher/ta/acipher_ta.c:82
     1c2:	687b      	ldr	r3, [r7, #4]
     1c4:	f103 0308 	add.w	r3, r3, #8
     1c8:	685b      	ldr	r3, [r3, #4]
     1ca:	613b      	str	r3, [r7, #16]
/home/palatrauss/optee_with_ftpm_ta/out-br/build/optee_examples_ext-1.0/acipher/ta/acipher_ta.c:84
     1cc:	6b7b      	ldr	r3, [r7, #52]	; 0x34
     1ce:	f107 0014 	add.w	r0, r7, #20
     1d2:	f04f 0200 	mov.w	r2, #0
     1d6:	69f9      	ldr	r1, [r7, #28]
     1d8:	f005 fed6 	bl	5f88 <TEE_AllocateOperation>
     1dc:	61b8      	str	r0, [r7, #24]
/home/palatrauss/optee_with_ftpm_ta/out-br/build/optee_examples_ext-1.0/acipher/ta/acipher_ta.c:86
     1de:	69bb      	ldr	r3, [r7, #24]
     1e0:	2b00      	cmp	r3, #0
     1e2:	d014      	beq.n	20e <cmd_enc+0xee>
/home/palatrauss/optee_with_ftpm_ta/out-br/build/optee_examples_ext-1.0/acipher/ta/acipher_ta.c:87
     1e4:	6b7b      	ldr	r3, [r7, #52]	; 0x34
     1e6:	69ba      	ldr	r2, [r7, #24]
     1e8:	9203      	str	r2, [sp, #12]
     1ea:	9302      	str	r3, [sp, #8]
     1ec:	69fb      	ldr	r3, [r7, #28]
     1ee:	9301      	str	r3, [sp, #4]
     1f0:	4b3a      	ldr	r3, [pc, #232]	; (2dc <cmd_enc+0x1bc>)
     1f2:	447b      	add	r3, pc
     1f4:	9300      	str	r3, [sp, #0]
     1f6:	f04f 0301 	mov.w	r3, #1
     1fa:	f04f 0201 	mov.w	r2, #1
     1fe:	f04f 0157 	mov.w	r1, #87	; 0x57
     202:	4837      	ldr	r0, [pc, #220]	; (2e0 <cmd_enc+0x1c0>)
     204:	4478      	add	r0, pc
     206:	f000 fa2b 	bl	660 <trace_printf>
/home/palatrauss/optee_with_ftpm_ta/out-br/build/optee_examples_ext-1.0/acipher/ta/acipher_ta.c:88
     20a:	69bb      	ldr	r3, [r7, #24]
     20c:	e04d      	b.n	2aa <cmd_enc+0x18a>
/home/palatrauss/optee_with_ftpm_ta/out-br/build/optee_examples_ext-1.0/acipher/ta/acipher_ta.c:91
     20e:	697a      	ldr	r2, [r7, #20]
     210:	68fb      	ldr	r3, [r7, #12]
     212:	681b      	ldr	r3, [r3, #0]
     214:	4619      	mov	r1, r3
     216:	4610      	mov	r0, r2
     218:	f007 f93c 	bl	7494 <__GP11_TEE_SetOperationKey>
     21c:	61b8      	str	r0, [r7, #24]
/home/palatrauss/optee_with_ftpm_ta/out-br/build/optee_examples_ext-1.0/acipher/ta/acipher_ta.c:92
     21e:	69bb      	ldr	r3, [r7, #24]
     220:	2b00      	cmp	r3, #0
     222:	d00f      	beq.n	244 <cmd_enc+0x124>
/home/palatrauss/optee_with_ftpm_ta/out-br/build/optee_examples_ext-1.0/acipher/ta/acipher_ta.c:93
     224:	69bb      	ldr	r3, [r7, #24]
     226:	9301      	str	r3, [sp, #4]
     228:	4b2e      	ldr	r3, [pc, #184]	; (2e4 <cmd_enc+0x1c4>)
     22a:	447b      	add	r3, pc
     22c:	9300      	str	r3, [sp, #0]
     22e:	f04f 0301 	mov.w	r3, #1
     232:	f04f 0201 	mov.w	r2, #1
     236:	f04f 015d 	mov.w	r1, #93	; 0x5d
     23a:	482b      	ldr	r0, [pc, #172]	; (2e8 <cmd_enc+0x1c8>)
     23c:	4478      	add	r0, pc
     23e:	f000 fa0f 	bl	660 <trace_printf>
/home/palatrauss/optee_with_ftpm_ta/out-br/build/optee_examples_ext-1.0/acipher/ta/acipher_ta.c:94
     242:	e02d      	b.n	2a0 <cmd_enc+0x180>
/home/palatrauss/optee_with_ftpm_ta/out-br/build/optee_examples_ext-1.0/acipher/ta/acipher_ta.c:97
     244:	6978      	ldr	r0, [r7, #20]
     246:	f107 0310 	add.w	r3, r7, #16
     24a:	9302      	str	r3, [sp, #8]
     24c:	6afb      	ldr	r3, [r7, #44]	; 0x2c
     24e:	9301      	str	r3, [sp, #4]
     250:	6abb      	ldr	r3, [r7, #40]	; 0x28
     252:	9300      	str	r3, [sp, #0]
     254:	6a7b      	ldr	r3, [r7, #36]	; 0x24
     256:	f04f 0200 	mov.w	r2, #0
     25a:	f04f 0100 	mov.w	r1, #0
     25e:	f009 fbd7 	bl	9a10 <__GP11_TEE_AsymmetricEncrypt>
     262:	61b8      	str	r0, [r7, #24]
/home/palatrauss/optee_with_ftpm_ta/out-br/build/optee_examples_ext-1.0/acipher/ta/acipher_ta.c:99
     264:	69bb      	ldr	r3, [r7, #24]
     266:	2b00      	cmp	r3, #0
     268:	d015      	beq.n	296 <cmd_enc+0x176>
/home/palatrauss/optee_with_ftpm_ta/out-br/build/optee_examples_ext-1.0/acipher/ta/acipher_ta.c:100
     26a:	687b      	ldr	r3, [r7, #4]
     26c:	f103 0308 	add.w	r3, r3, #8
     270:	685b      	ldr	r3, [r3, #4]
     272:	69ba      	ldr	r2, [r7, #24]
     274:	9203      	str	r2, [sp, #12]
     276:	9302      	str	r3, [sp, #8]
     278:	6abb      	ldr	r3, [r7, #40]	; 0x28
     27a:	9301      	str	r3, [sp, #4]
     27c:	4b1b      	ldr	r3, [pc, #108]	; (2ec <cmd_enc+0x1cc>)
     27e:	447b      	add	r3, pc
     280:	9300      	str	r3, [sp, #0]
     282:	f04f 0301 	mov.w	r3, #1
     286:	f04f 0201 	mov.w	r2, #1
     28a:	f04f 0164 	mov.w	r1, #100	; 0x64
     28e:	4818      	ldr	r0, [pc, #96]	; (2f0 <cmd_enc+0x1d0>)
     290:	4478      	add	r0, pc
     292:	f000 f9e5 	bl	660 <trace_printf>
/home/palatrauss/optee_with_ftpm_ta/out-br/build/optee_examples_ext-1.0/acipher/ta/acipher_ta.c:102
     296:	687b      	ldr	r3, [r7, #4]
     298:	f103 0308 	add.w	r3, r3, #8
     29c:	693a      	ldr	r2, [r7, #16]
     29e:	605a      	str	r2, [r3, #4]
/home/palatrauss/optee_with_ftpm_ta/out-br/build/optee_examples_ext-1.0/acipher/ta/acipher_ta.c:105
     2a0:	697b      	ldr	r3, [r7, #20]
     2a2:	4618      	mov	r0, r3
     2a4:	f006 fe5b 	bl	6f5e <__GP11_TEE_FreeOperation>
/home/palatrauss/optee_with_ftpm_ta/out-br/build/optee_examples_ext-1.0/acipher/ta/acipher_ta.c:106
     2a8:	69bb      	ldr	r3, [r7, #24]
/home/palatrauss/optee_with_ftpm_ta/out-br/build/optee_examples_ext-1.0/acipher/ta/acipher_ta.c:54 (discriminator 1)
     2aa:	4912      	ldr	r1, [pc, #72]	; (2f4 <cmd_enc+0x1d4>)
     2ac:	4479      	add	r1, pc
/home/palatrauss/optee_with_ftpm_ta/out-br/build/optee_examples_ext-1.0/acipher/ta/acipher_ta.c:108 (discriminator 1)
     2ae:	4a08      	ldr	r2, [pc, #32]	; (2d0 <cmd_enc+0x1b0>)
     2b0:	588a      	ldr	r2, [r1, r2]
     2b2:	6811      	ldr	r1, [r2, #0]
     2b4:	6cfa      	ldr	r2, [r7, #76]	; 0x4c
     2b6:	4051      	eors	r1, r2
     2b8:	f04f 0200 	mov.w	r2, #0
     2bc:	d001      	beq.n	2c2 <cmd_enc+0x1a2>
/home/palatrauss/optee_with_ftpm_ta/out-br/build/optee_examples_ext-1.0/acipher/ta/acipher_ta.c:108
     2be:	f000 f907 	bl	4d0 <__stack_chk_fail>
     2c2:	4618      	mov	r0, r3
     2c4:	f107 0750 	add.w	r7, r7, #80	; 0x50
     2c8:	46bd      	mov	sp, r7
     2ca:	bd80      	pop	{r7, pc}
     2cc:	0001df54 	.word	0x0001df54
     2d0:	0000000c 	.word	0x0000000c
     2d4:	0001a134 	.word	0x0001a134
     2d8:	0001a1de 	.word	0x0001a1de
     2dc:	0001a0ea 	.word	0x0001a0ea
     2e0:	0001a17c 	.word	0x0001a17c
     2e4:	0001a0ea 	.word	0x0001a0ea
     2e8:	0001a144 	.word	0x0001a144
     2ec:	0001a0b2 	.word	0x0001a0b2
     2f0:	0001a0f0 	.word	0x0001a0f0
     2f4:	0001ddd8 	.word	0x0001ddd8

000002f8 <TA_CreateEntryPoint>:
TA_CreateEntryPoint():
/home/palatrauss/optee_with_ftpm_ta/out-br/build/optee_examples_ext-1.0/acipher/ta/acipher_ta.c:111
     2f8:	f84d 7d04 	str.w	r7, [sp, #-4]!
     2fc:	af00      	add	r7, sp, #0
/home/palatrauss/optee_with_ftpm_ta/out-br/build/optee_examples_ext-1.0/acipher/ta/acipher_ta.c:113
     2fe:	f04f 0300 	mov.w	r3, #0
/home/palatrauss/optee_with_ftpm_ta/out-br/build/optee_examples_ext-1.0/acipher/ta/acipher_ta.c:114
     302:	4618      	mov	r0, r3
     304:	46bd      	mov	sp, r7
     306:	f85d 7b04 	ldr.w	r7, [sp], #4
     30a:	4770      	bx	lr

0000030c <TA_DestroyEntryPoint>:
TA_DestroyEntryPoint():
/home/palatrauss/optee_with_ftpm_ta/out-br/build/optee_examples_ext-1.0/acipher/ta/acipher_ta.c:117
     30c:	f84d 7d04 	str.w	r7, [sp, #-4]!
     310:	af00      	add	r7, sp, #0
/home/palatrauss/optee_with_ftpm_ta/out-br/build/optee_examples_ext-1.0/acipher/ta/acipher_ta.c:119
     312:	bf00      	nop
     314:	46bd      	mov	sp, r7
     316:	f85d 7b04 	ldr.w	r7, [sp], #4
     31a:	4770      	bx	lr

0000031c <__GP11_TA_OpenSessionEntryPoint>:
__GP11_TA_OpenSessionEntryPoint():
/home/palatrauss/optee_with_ftpm_ta/out-br/build/optee_examples_ext-1.0/acipher/ta/acipher_ta.c:124
     31c:	e96d 7e02 	strd	r7, lr, [sp, #-8]!
     320:	b086      	sub	sp, #24
     322:	af00      	add	r7, sp, #0
     324:	60f8      	str	r0, [r7, #12]
     326:	60b9      	str	r1, [r7, #8]
     328:	607a      	str	r2, [r7, #4]
/home/palatrauss/optee_with_ftpm_ta/out-br/build/optee_examples_ext-1.0/acipher/ta/acipher_ta.c:130
     32a:	f04f 0100 	mov.w	r1, #0
     32e:	f04f 0004 	mov.w	r0, #4
     332:	f003 f9d3 	bl	36dc <__GP11_TEE_Malloc>
     336:	6178      	str	r0, [r7, #20]
/home/palatrauss/optee_with_ftpm_ta/out-br/build/optee_examples_ext-1.0/acipher/ta/acipher_ta.c:131
     338:	697b      	ldr	r3, [r7, #20]
     33a:	2b00      	cmp	r3, #0
     33c:	d104      	bne.n	348 <__GP11_TA_OpenSessionEntryPoint+0x2c>
/home/palatrauss/optee_with_ftpm_ta/out-br/build/optee_examples_ext-1.0/acipher/ta/acipher_ta.c:132
     33e:	f04f 030c 	mov.w	r3, #12
     342:	f6cf 73ff 	movt	r3, #65535	; 0xffff
     346:	e008      	b.n	35a <__GP11_TA_OpenSessionEntryPoint+0x3e>
/home/palatrauss/optee_with_ftpm_ta/out-br/build/optee_examples_ext-1.0/acipher/ta/acipher_ta.c:134
     348:	697b      	ldr	r3, [r7, #20]
     34a:	f04f 0200 	mov.w	r2, #0
     34e:	601a      	str	r2, [r3, #0]
/home/palatrauss/optee_with_ftpm_ta/out-br/build/optee_examples_ext-1.0/acipher/ta/acipher_ta.c:136
     350:	687b      	ldr	r3, [r7, #4]
     352:	697a      	ldr	r2, [r7, #20]
     354:	601a      	str	r2, [r3, #0]
/home/palatrauss/optee_with_ftpm_ta/out-br/build/optee_examples_ext-1.0/acipher/ta/acipher_ta.c:138
     356:	f04f 0300 	mov.w	r3, #0
/home/palatrauss/optee_with_ftpm_ta/out-br/build/optee_examples_ext-1.0/acipher/ta/acipher_ta.c:139
     35a:	4618      	mov	r0, r3
     35c:	f107 0718 	add.w	r7, r7, #24
     360:	46bd      	mov	sp, r7
     362:	bd80      	pop	{r7, pc}

00000364 <TA_CloseSessionEntryPoint>:
TA_CloseSessionEntryPoint():
/home/palatrauss/optee_with_ftpm_ta/out-br/build/optee_examples_ext-1.0/acipher/ta/acipher_ta.c:142
     364:	e96d 7e02 	strd	r7, lr, [sp, #-8]!
     368:	b084      	sub	sp, #16
     36a:	af00      	add	r7, sp, #0
     36c:	6078      	str	r0, [r7, #4]
/home/palatrauss/optee_with_ftpm_ta/out-br/build/optee_examples_ext-1.0/acipher/ta/acipher_ta.c:143
     36e:	687b      	ldr	r3, [r7, #4]
     370:	60fb      	str	r3, [r7, #12]
/home/palatrauss/optee_with_ftpm_ta/out-br/build/optee_examples_ext-1.0/acipher/ta/acipher_ta.c:145
     372:	68fb      	ldr	r3, [r7, #12]
     374:	681b      	ldr	r3, [r3, #0]
     376:	4618      	mov	r0, r3
     378:	f004 f862 	bl	4440 <TEE_FreeTransientObject>
/home/palatrauss/optee_with_ftpm_ta/out-br/build/optee_examples_ext-1.0/acipher/ta/acipher_ta.c:146
     37c:	68f8      	ldr	r0, [r7, #12]
     37e:	f003 fa49 	bl	3814 <TEE_Free>
/home/palatrauss/optee_with_ftpm_ta/out-br/build/optee_examples_ext-1.0/acipher/ta/acipher_ta.c:147
     382:	bf00      	nop
     384:	f107 0710 	add.w	r7, r7, #16
     388:	46bd      	mov	sp, r7
     38a:	bd80      	pop	{r7, pc}

0000038c <__GP11_TA_InvokeCommandEntryPoint>:
__GP11_TA_InvokeCommandEntryPoint():
/home/palatrauss/optee_with_ftpm_ta/out-br/build/optee_examples_ext-1.0/acipher/ta/acipher_ta.c:152
     38c:	e96d 7e02 	strd	r7, lr, [sp, #-8]!
     390:	b086      	sub	sp, #24
     392:	af02      	add	r7, sp, #8
     394:	60f8      	str	r0, [r7, #12]
     396:	60b9      	str	r1, [r7, #8]
     398:	607a      	str	r2, [r7, #4]
     39a:	603b      	str	r3, [r7, #0]
/home/palatrauss/optee_with_ftpm_ta/out-br/build/optee_examples_ext-1.0/acipher/ta/acipher_ta.c:153
     39c:	68bb      	ldr	r3, [r7, #8]
     39e:	2b00      	cmp	r3, #0
     3a0:	d003      	beq.n	3aa <__GP11_TA_InvokeCommandEntryPoint+0x1e>
     3a2:	68bb      	ldr	r3, [r7, #8]
     3a4:	2b01      	cmp	r3, #1
     3a6:	d007      	beq.n	3b8 <__GP11_TA_InvokeCommandEntryPoint+0x2c>
     3a8:	e00d      	b.n	3c6 <__GP11_TA_InvokeCommandEntryPoint+0x3a>
/home/palatrauss/optee_with_ftpm_ta/out-br/build/optee_examples_ext-1.0/acipher/ta/acipher_ta.c:155
     3aa:	683a      	ldr	r2, [r7, #0]
     3ac:	6879      	ldr	r1, [r7, #4]
     3ae:	68f8      	ldr	r0, [r7, #12]
     3b0:	f7ff fe26 	bl	0 <cmd_gen_key>
     3b4:	4603      	mov	r3, r0
     3b6:	e019      	b.n	3ec <__GP11_TA_InvokeCommandEntryPoint+0x60>
/home/palatrauss/optee_with_ftpm_ta/out-br/build/optee_examples_ext-1.0/acipher/ta/acipher_ta.c:157
     3b8:	683a      	ldr	r2, [r7, #0]
     3ba:	6879      	ldr	r1, [r7, #4]
     3bc:	68f8      	ldr	r0, [r7, #12]
     3be:	f7ff feaf 	bl	120 <cmd_enc>
     3c2:	4603      	mov	r3, r0
     3c4:	e012      	b.n	3ec <__GP11_TA_InvokeCommandEntryPoint+0x60>
/home/palatrauss/optee_with_ftpm_ta/out-br/build/optee_examples_ext-1.0/acipher/ta/acipher_ta.c:159
     3c6:	68bb      	ldr	r3, [r7, #8]
     3c8:	9301      	str	r3, [sp, #4]
     3ca:	4b0b      	ldr	r3, [pc, #44]	; (3f8 <__GP11_TA_InvokeCommandEntryPoint+0x6c>)
     3cc:	447b      	add	r3, pc
     3ce:	9300      	str	r3, [sp, #0]
     3d0:	f04f 0301 	mov.w	r3, #1
     3d4:	f04f 0201 	mov.w	r2, #1
     3d8:	f04f 019f 	mov.w	r1, #159	; 0x9f
     3dc:	4807      	ldr	r0, [pc, #28]	; (3fc <__GP11_TA_InvokeCommandEntryPoint+0x70>)
     3de:	4478      	add	r0, pc
     3e0:	f000 f93e 	bl	660 <trace_printf>
/home/palatrauss/optee_with_ftpm_ta/out-br/build/optee_examples_ext-1.0/acipher/ta/acipher_ta.c:160
     3e4:	f04f 030a 	mov.w	r3, #10
     3e8:	f6cf 73ff 	movt	r3, #65535	; 0xffff
/home/palatrauss/optee_with_ftpm_ta/out-br/build/optee_examples_ext-1.0/acipher/ta/acipher_ta.c:162
     3ec:	4618      	mov	r0, r3
     3ee:	f107 0710 	add.w	r7, r7, #16
     3f2:	46bd      	mov	sp, r7
     3f4:	bd80      	pop	{r7, pc}
     3f6:	bf00      	nop
     3f8:	00019f88 	.word	0x00019f88
     3fc:	00019faa 	.word	0x00019faa

00000400 <__ta_entry_c>:
__ta_entry_c():
/home/palatrauss/optee_with_ftpm_ta/optee_os/out/arm/export-ta_arm32/src/user_ta_header.c:51
     400:	e96d 7e02 	strd	r7, lr, [sp, #-8]!
     404:	b088      	sub	sp, #32
     406:	af00      	add	r7, sp, #0
     408:	60f8      	str	r0, [r7, #12]
     40a:	60b9      	str	r1, [r7, #8]
     40c:	607a      	str	r2, [r7, #4]
     40e:	603b      	str	r3, [r7, #0]
     410:	4a0b      	ldr	r2, [pc, #44]	; (440 <__ta_entry_c+0x40>)
     412:	447a      	add	r2, pc
     414:	4b0b      	ldr	r3, [pc, #44]	; (444 <__ta_entry_c+0x44>)
     416:	58d3      	ldr	r3, [r2, r3]
     418:	681b      	ldr	r3, [r3, #0]
     41a:	61fb      	str	r3, [r7, #28]
     41c:	f04f 0300 	mov.w	r3, #0
/home/palatrauss/optee_with_ftpm_ta/optee_os/out/arm/export-ta_arm32/src/user_ta_header.c:53
     420:	f04f 0300 	mov.w	r3, #0
     424:	f6cf 73ff 	movt	r3, #65535	; 0xffff
     428:	61bb      	str	r3, [r7, #24]
/home/palatrauss/optee_with_ftpm_ta/optee_os/out/arm/export-ta_arm32/src/user_ta_header.c:70
     42a:	683b      	ldr	r3, [r7, #0]
     42c:	687a      	ldr	r2, [r7, #4]
     42e:	68b9      	ldr	r1, [r7, #8]
     430:	68f8      	ldr	r0, [r7, #12]
     432:	f00c f94b 	bl	c6cc <__utee_entry>
     436:	61b8      	str	r0, [r7, #24]
/home/palatrauss/optee_with_ftpm_ta/optee_os/out/arm/export-ta_arm32/src/user_ta_header.c:81
     438:	69b8      	ldr	r0, [r7, #24]
     43a:	f00c eaf2 	blx	ca20 <_utee_return>
     43e:	bf00      	nop
     440:	0001dc72 	.word	0x0001dc72
     444:	0000000c 	.word	0x0000000c

00000448 <tahead_get_trace_level>:
tahead_get_trace_level():
/home/palatrauss/optee_with_ftpm_ta/optee_os/out/arm/export-ta_arm32/src/user_ta_header.c:188
     448:	f84d 7d04 	str.w	r7, [sp, #-4]!
     44c:	af00      	add	r7, sp, #0
/home/palatrauss/optee_with_ftpm_ta/optee_os/out/arm/export-ta_arm32/src/user_ta_header.c:192
     44e:	f04f 0304 	mov.w	r3, #4
/home/palatrauss/optee_with_ftpm_ta/optee_os/out/arm/export-ta_arm32/src/user_ta_header.c:193
     452:	4618      	mov	r0, r3
     454:	46bd      	mov	sp, r7
     456:	f85d 7b04 	ldr.w	r7, [sp], #4
     45a:	4770      	bx	lr

0000045c <TA_OpenSessionEntryPoint>:
TA_OpenSessionEntryPoint():
/home/palatrauss/optee_with_ftpm_ta/optee_os/out/arm/export-ta_arm32/src/user_ta_header.c:202
     45c:	e96d 7e02 	strd	r7, lr, [sp, #-8]!
     460:	b084      	sub	sp, #16
     462:	af00      	add	r7, sp, #0
     464:	60f8      	str	r0, [r7, #12]
     466:	60b9      	str	r1, [r7, #8]
     468:	607a      	str	r2, [r7, #4]
     46a:	4a07      	ldr	r2, [pc, #28]	; (488 <TA_OpenSessionEntryPoint+0x2c>)
     46c:	447a      	add	r2, pc
/home/palatrauss/optee_with_ftpm_ta/optee_os/out/arm/export-ta_arm32/src/user_ta_header.c:203
     46e:	4b07      	ldr	r3, [pc, #28]	; (48c <TA_OpenSessionEntryPoint+0x30>)
     470:	58d3      	ldr	r3, [r2, r3]
     472:	687a      	ldr	r2, [r7, #4]
     474:	68b9      	ldr	r1, [r7, #8]
     476:	68f8      	ldr	r0, [r7, #12]
     478:	f00c fa26 	bl	c8c8 <__ta_open_sess>
     47c:	4603      	mov	r3, r0
/home/palatrauss/optee_with_ftpm_ta/optee_os/out/arm/export-ta_arm32/src/user_ta_header.c:205
     47e:	4618      	mov	r0, r3
     480:	f107 0710 	add.w	r7, r7, #16
     484:	46bd      	mov	sp, r7
     486:	bd80      	pop	{r7, pc}
     488:	0001dc18 	.word	0x0001dc18
     48c:	00000040 	.word	0x00000040

00000490 <TA_InvokeCommandEntryPoint>:
TA_InvokeCommandEntryPoint():
/home/palatrauss/optee_with_ftpm_ta/optee_os/out/arm/export-ta_arm32/src/user_ta_header.c:210
     490:	e96d 7e02 	strd	r7, lr, [sp, #-8]!
     494:	b086      	sub	sp, #24
     496:	af02      	add	r7, sp, #8
     498:	60f8      	str	r0, [r7, #12]
     49a:	60b9      	str	r1, [r7, #8]
     49c:	607a      	str	r2, [r7, #4]
     49e:	603b      	str	r3, [r7, #0]
     4a0:	4a08      	ldr	r2, [pc, #32]	; (4c4 <TA_InvokeCommandEntryPoint+0x34>)
     4a2:	447a      	add	r2, pc
/home/palatrauss/optee_with_ftpm_ta/optee_os/out/arm/export-ta_arm32/src/user_ta_header.c:211
     4a4:	4b08      	ldr	r3, [pc, #32]	; (4c8 <TA_InvokeCommandEntryPoint+0x38>)
     4a6:	58d3      	ldr	r3, [r2, r3]
     4a8:	9300      	str	r3, [sp, #0]
     4aa:	683b      	ldr	r3, [r7, #0]
     4ac:	687a      	ldr	r2, [r7, #4]
     4ae:	68b9      	ldr	r1, [r7, #8]
     4b0:	68f8      	ldr	r0, [r7, #12]
     4b2:	f00c fa55 	bl	c960 <__ta_invoke_cmd>
     4b6:	4603      	mov	r3, r0
/home/palatrauss/optee_with_ftpm_ta/optee_os/out/arm/export-ta_arm32/src/user_ta_header.c:213
     4b8:	4618      	mov	r0, r3
     4ba:	f107 0710 	add.w	r7, r7, #16
     4be:	46bd      	mov	sp, r7
     4c0:	bd80      	pop	{r7, pc}
     4c2:	bf00      	nop
     4c4:	0001dbe2 	.word	0x0001dbe2
     4c8:	00000034 	.word	0x00000034

000004cc <__ta_entry>:
__ta_entry():
/home/palatrauss/optee_with_ftpm_ta/optee_os/out/arm/export-ta_arm32/src/ta_entry_a32.S:22
     4cc:	faffffcb 	blx	400 <__ta_entry_c>

000004d0 <__stack_chk_fail>:
__stack_chk_fail():
/home/palatrauss/optee_with_ftpm_ta/optee_os/lib/libutils/isoc/stack_check.c:24
     4d0:	e96d 7e02 	strd	r7, lr, [sp, #-8]!
     4d4:	b082      	sub	sp, #8
     4d6:	af02      	add	r7, sp, #8
/home/palatrauss/optee_with_ftpm_ta/optee_os/lib/libutils/isoc/stack_check.c:25
     4d8:	4b09      	ldr	r3, [pc, #36]	; (500 <__stack_chk_fail+0x30>)
     4da:	447b      	add	r3, pc
     4dc:	9300      	str	r3, [sp, #0]
     4de:	f04f 0301 	mov.w	r3, #1
     4e2:	f04f 0201 	mov.w	r2, #1
     4e6:	f04f 0100 	mov.w	r1, #0
     4ea:	f04f 0000 	mov.w	r0, #0
     4ee:	f000 f8b7 	bl	660 <trace_printf>
/home/palatrauss/optee_with_ftpm_ta/optee_os/lib/libutils/isoc/stack_check.c:27 (discriminator 1)
     4f2:	f243 000f 	movw	r0, #12303	; 0x300f
     4f6:	f6cf 70ff 	movt	r0, #65535	; 0xffff
     4fa:	f00c ea88 	blx	ca0c <_utee_panic>
     4fe:	e7f8      	b.n	4f2 <__stack_chk_fail+0x22>
     500:	0001a03e 	.word	0x0001a03e

00000504 <trace_set_level>:
trace_set_level():
/home/palatrauss/optee_with_ftpm_ta/optee_os/lib/libutils/ext/trace.c:25
     504:	f84d 7d04 	str.w	r7, [sp, #-4]!
     508:	b083      	sub	sp, #12
     50a:	af00      	add	r7, sp, #0
     50c:	6078      	str	r0, [r7, #4]
     50e:	4b0d      	ldr	r3, [pc, #52]	; (544 <trace_set_level+0x40>)
     510:	447b      	add	r3, pc
/home/palatrauss/optee_with_ftpm_ta/optee_os/lib/libutils/ext/trace.c:26
     512:	687a      	ldr	r2, [r7, #4]
     514:	2a00      	cmp	r2, #0
     516:	db07      	blt.n	528 <trace_set_level+0x24>
/home/palatrauss/optee_with_ftpm_ta/optee_os/lib/libutils/ext/trace.c:26 (discriminator 1)
     518:	687a      	ldr	r2, [r7, #4]
     51a:	2a04      	cmp	r2, #4
     51c:	dc04      	bgt.n	528 <trace_set_level+0x24>
/home/palatrauss/optee_with_ftpm_ta/optee_os/lib/libutils/ext/trace.c:27
     51e:	4a0a      	ldr	r2, [pc, #40]	; (548 <trace_set_level+0x44>)
     520:	589b      	ldr	r3, [r3, r2]
     522:	687a      	ldr	r2, [r7, #4]
     524:	601a      	str	r2, [r3, #0]
     526:	e005      	b.n	534 <trace_set_level+0x30>
/home/palatrauss/optee_with_ftpm_ta/optee_os/lib/libutils/ext/trace.c:29
     528:	4a07      	ldr	r2, [pc, #28]	; (548 <trace_set_level+0x44>)
     52a:	589b      	ldr	r3, [r3, r2]
     52c:	f04f 0204 	mov.w	r2, #4
     530:	601a      	str	r2, [r3, #0]
/home/palatrauss/optee_with_ftpm_ta/optee_os/lib/libutils/ext/trace.c:30
     532:	bf00      	nop
     534:	bf00      	nop
     536:	f107 070c 	add.w	r7, r7, #12
     53a:	46bd      	mov	sp, r7
     53c:	f85d 7b04 	ldr.w	r7, [sp], #4
     540:	4770      	bx	lr
     542:	bf00      	nop
     544:	0001db74 	.word	0x0001db74
     548:	0000001c 	.word	0x0000001c

0000054c <trace_get_level>:
trace_get_level():
/home/palatrauss/optee_with_ftpm_ta/optee_os/lib/libutils/ext/trace.c:33
     54c:	f84d 7d04 	str.w	r7, [sp, #-4]!
     550:	af00      	add	r7, sp, #0
     552:	4a05      	ldr	r2, [pc, #20]	; (568 <trace_get_level+0x1c>)
     554:	447a      	add	r2, pc
/home/palatrauss/optee_with_ftpm_ta/optee_os/lib/libutils/ext/trace.c:34
     556:	4b05      	ldr	r3, [pc, #20]	; (56c <trace_get_level+0x20>)
     558:	58d3      	ldr	r3, [r2, r3]
     55a:	681b      	ldr	r3, [r3, #0]
/home/palatrauss/optee_with_ftpm_ta/optee_os/lib/libutils/ext/trace.c:35
     55c:	4618      	mov	r0, r3
     55e:	46bd      	mov	sp, r7
     560:	f85d 7b04 	ldr.w	r7, [sp], #4
     564:	4770      	bx	lr
     566:	bf00      	nop
     568:	0001db30 	.word	0x0001db30
     56c:	0000001c 	.word	0x0000001c

00000570 <trace_level_to_string>:
trace_level_to_string():
/home/palatrauss/optee_with_ftpm_ta/optee_os/lib/libutils/ext/trace.c:38
     570:	f84d 7d04 	str.w	r7, [sp, #-4]!
     574:	b085      	sub	sp, #20
     576:	af00      	add	r7, sp, #0
     578:	6078      	str	r0, [r7, #4]
     57a:	460b      	mov	r3, r1
     57c:	70fb      	strb	r3, [r7, #3]
/home/palatrauss/optee_with_ftpm_ta/optee_os/lib/libutils/ext/trace.c:47
     57e:	f04f 0300 	mov.w	r3, #0
     582:	60fb      	str	r3, [r7, #12]
/home/palatrauss/optee_with_ftpm_ta/optee_os/lib/libutils/ext/trace.c:49
     584:	78fb      	ldrb	r3, [r7, #3]
     586:	f083 0301 	eor.w	r3, r3, #1
     58a:	b2db      	uxtb	r3, r3
     58c:	2b00      	cmp	r3, #0
     58e:	d002      	beq.n	596 <trace_level_to_string+0x26>
/home/palatrauss/optee_with_ftpm_ta/optee_os/lib/libutils/ext/trace.c:50
     590:	f04f 034d 	mov.w	r3, #77	; 0x4d
     594:	e00c      	b.n	5b0 <trace_level_to_string+0x40>
/home/palatrauss/optee_with_ftpm_ta/optee_os/lib/libutils/ext/trace.c:52
     596:	687b      	ldr	r3, [r7, #4]
     598:	2b00      	cmp	r3, #0
     59a:	db04      	blt.n	5a6 <trace_level_to_string+0x36>
/home/palatrauss/optee_with_ftpm_ta/optee_os/lib/libutils/ext/trace.c:52 (discriminator 1)
     59c:	687b      	ldr	r3, [r7, #4]
     59e:	2b04      	cmp	r3, #4
     5a0:	dc01      	bgt.n	5a6 <trace_level_to_string+0x36>
/home/palatrauss/optee_with_ftpm_ta/optee_os/lib/libutils/ext/trace.c:53
     5a2:	687b      	ldr	r3, [r7, #4]
     5a4:	60fb      	str	r3, [r7, #12]
/home/palatrauss/optee_with_ftpm_ta/optee_os/lib/libutils/ext/trace.c:55
     5a6:	4a06      	ldr	r2, [pc, #24]	; (5c0 <trace_level_to_string+0x50>)
     5a8:	447a      	add	r2, pc
     5aa:	68fb      	ldr	r3, [r7, #12]
     5ac:	4413      	add	r3, r2
     5ae:	781b      	ldrb	r3, [r3, #0]
/home/palatrauss/optee_with_ftpm_ta/optee_os/lib/libutils/ext/trace.c:56
     5b0:	4618      	mov	r0, r3
     5b2:	f107 0714 	add.w	r7, r7, #20
     5b6:	46bd      	mov	sp, r7
     5b8:	f85d 7b04 	ldr.w	r7, [sp], #4
     5bc:	4770      	bx	lr
     5be:	bf00      	nop
     5c0:	00019fac 	.word	0x00019fac

000005c4 <print_thread_id>:
print_thread_id():
/home/palatrauss/optee_with_ftpm_ta/optee_os/lib/libutils/ext/trace.c:59
     5c4:	e96d 7e02 	strd	r7, lr, [sp, #-8]!
     5c8:	b086      	sub	sp, #24
     5ca:	af02      	add	r7, sp, #8
     5cc:	6078      	str	r0, [r7, #4]
     5ce:	6039      	str	r1, [r7, #0]
/home/palatrauss/optee_with_ftpm_ta/optee_os/lib/libutils/ext/trace.c:65
     5d0:	f04f 0301 	mov.w	r3, #1
     5d4:	60bb      	str	r3, [r7, #8]
/home/palatrauss/optee_with_ftpm_ta/optee_os/lib/libutils/ext/trace.c:67
     5d6:	f001 fd39 	bl	204c <trace_ext_get_thread_id>
     5da:	60f8      	str	r0, [r7, #12]
/home/palatrauss/optee_with_ftpm_ta/optee_os/lib/libutils/ext/trace.c:69
     5dc:	68fb      	ldr	r3, [r7, #12]
     5de:	2b00      	cmp	r3, #0
     5e0:	db0a      	blt.n	5f8 <print_thread_id+0x34>
/home/palatrauss/optee_with_ftpm_ta/optee_os/lib/libutils/ext/trace.c:70
     5e2:	68fb      	ldr	r3, [r7, #12]
     5e4:	9300      	str	r3, [sp, #0]
     5e6:	68bb      	ldr	r3, [r7, #8]
     5e8:	4a0b      	ldr	r2, [pc, #44]	; (618 <print_thread_id+0x54>)
     5ea:	447a      	add	r2, pc
     5ec:	6839      	ldr	r1, [r7, #0]
     5ee:	6878      	ldr	r0, [r7, #4]
     5f0:	f000 fb0a 	bl	c08 <snprintk>
     5f4:	4603      	mov	r3, r0
     5f6:	e00a      	b.n	60e <print_thread_id+0x4a>
/home/palatrauss/optee_with_ftpm_ta/optee_os/lib/libutils/ext/trace.c:72
     5f8:	4b08      	ldr	r3, [pc, #32]	; (61c <print_thread_id+0x58>)
     5fa:	447b      	add	r3, pc
     5fc:	9300      	str	r3, [sp, #0]
     5fe:	68bb      	ldr	r3, [r7, #8]
     600:	4a07      	ldr	r2, [pc, #28]	; (620 <print_thread_id+0x5c>)
     602:	447a      	add	r2, pc
     604:	6839      	ldr	r1, [r7, #0]
     606:	6878      	ldr	r0, [r7, #4]
     608:	f000 fafe 	bl	c08 <snprintk>
     60c:	4603      	mov	r3, r0
/home/palatrauss/optee_with_ftpm_ta/optee_os/lib/libutils/ext/trace.c:73
     60e:	4618      	mov	r0, r3
     610:	f107 0710 	add.w	r7, r7, #16
     614:	46bd      	mov	sp, r7
     616:	bd80      	pop	{r7, pc}
     618:	00019f46 	.word	0x00019f46
     61c:	00019f46 	.word	0x00019f46
     620:	00019f36 	.word	0x00019f36

00000624 <print_core_id>:
print_core_id():
/home/palatrauss/optee_with_ftpm_ta/optee_os/lib/libutils/ext/trace.c:107
     624:	f84d 7d04 	str.w	r7, [sp, #-4]!
     628:	b083      	sub	sp, #12
     62a:	af00      	add	r7, sp, #0
     62c:	6078      	str	r0, [r7, #4]
     62e:	6039      	str	r1, [r7, #0]
/home/palatrauss/optee_with_ftpm_ta/optee_os/lib/libutils/ext/trace.c:108
     630:	f04f 0300 	mov.w	r3, #0
/home/palatrauss/optee_with_ftpm_ta/optee_os/lib/libutils/ext/trace.c:109
     634:	4618      	mov	r0, r3
     636:	f107 070c 	add.w	r7, r7, #12
     63a:	46bd      	mov	sp, r7
     63c:	f85d 7b04 	ldr.w	r7, [sp], #4
     640:	4770      	bx	lr

00000642 <print_guest_id>:
print_guest_id():
/home/palatrauss/optee_with_ftpm_ta/optee_os/lib/libutils/ext/trace.c:112
     642:	f84d 7d04 	str.w	r7, [sp, #-4]!
     646:	b083      	sub	sp, #12
     648:	af00      	add	r7, sp, #0
     64a:	6078      	str	r0, [r7, #4]
     64c:	6039      	str	r1, [r7, #0]
/home/palatrauss/optee_with_ftpm_ta/optee_os/lib/libutils/ext/trace.c:113
     64e:	f04f 0300 	mov.w	r3, #0
/home/palatrauss/optee_with_ftpm_ta/optee_os/lib/libutils/ext/trace.c:114
     652:	4618      	mov	r0, r3
     654:	f107 070c 	add.w	r7, r7, #12
     658:	46bd      	mov	sp, r7
     65a:	f85d 7b04 	ldr.w	r7, [sp], #4
     65e:	4770      	bx	lr

00000660 <trace_printf>:
trace_printf():
/home/palatrauss/optee_with_ftpm_ta/optee_os/lib/libutils/ext/trace.c:120
     660:	e96d 7e02 	strd	r7, lr, [sp, #-8]!
     664:	b08a      	sub	sp, #40	; 0x28
     666:	af02      	add	r7, sp, #8
     668:	6178      	str	r0, [r7, #20]
     66a:	6139      	str	r1, [r7, #16]
     66c:	60fa      	str	r2, [r7, #12]
     66e:	72fb      	strb	r3, [r7, #11]
     670:	6abb      	ldr	r3, [r7, #40]	; 0x28
     672:	607b      	str	r3, [r7, #4]
     674:	4a13      	ldr	r2, [pc, #76]	; (6c4 <trace_printf+0x64>)
     676:	447a      	add	r2, pc
     678:	4b13      	ldr	r3, [pc, #76]	; (6c8 <trace_printf+0x68>)
     67a:	58d3      	ldr	r3, [r2, r3]
     67c:	681b      	ldr	r3, [r3, #0]
     67e:	61fb      	str	r3, [r7, #28]
     680:	f04f 0300 	mov.w	r3, #0
/home/palatrauss/optee_with_ftpm_ta/optee_os/lib/libutils/ext/trace.c:123
     684:	f107 032c 	add.w	r3, r7, #44	; 0x2c
     688:	61bb      	str	r3, [r7, #24]
/home/palatrauss/optee_with_ftpm_ta/optee_os/lib/libutils/ext/trace.c:124
     68a:	7afa      	ldrb	r2, [r7, #11]
     68c:	69bb      	ldr	r3, [r7, #24]
     68e:	9301      	str	r3, [sp, #4]
     690:	687b      	ldr	r3, [r7, #4]
     692:	9300      	str	r3, [sp, #0]
     694:	4613      	mov	r3, r2
     696:	68fa      	ldr	r2, [r7, #12]
     698:	6939      	ldr	r1, [r7, #16]
     69a:	6978      	ldr	r0, [r7, #20]
     69c:	f000 f818 	bl	6d0 <trace_vprintf>
/home/palatrauss/optee_with_ftpm_ta/optee_os/lib/libutils/ext/trace.c:126
     6a0:	bf00      	nop
/home/palatrauss/optee_with_ftpm_ta/optee_os/lib/libutils/ext/trace.c:120
     6a2:	4a0a      	ldr	r2, [pc, #40]	; (6cc <trace_printf+0x6c>)
     6a4:	447a      	add	r2, pc
/home/palatrauss/optee_with_ftpm_ta/optee_os/lib/libutils/ext/trace.c:126
     6a6:	4b08      	ldr	r3, [pc, #32]	; (6c8 <trace_printf+0x68>)
     6a8:	58d3      	ldr	r3, [r2, r3]
     6aa:	681a      	ldr	r2, [r3, #0]
     6ac:	69fb      	ldr	r3, [r7, #28]
     6ae:	405a      	eors	r2, r3
     6b0:	f04f 0300 	mov.w	r3, #0
     6b4:	d001      	beq.n	6ba <trace_printf+0x5a>
     6b6:	f7ff ff0b 	bl	4d0 <__stack_chk_fail>
     6ba:	f107 0720 	add.w	r7, r7, #32
     6be:	46bd      	mov	sp, r7
     6c0:	bd80      	pop	{r7, pc}
     6c2:	bf00      	nop
     6c4:	0001da0e 	.word	0x0001da0e
     6c8:	0000000c 	.word	0x0000000c
     6cc:	0001d9e0 	.word	0x0001d9e0

000006d0 <trace_vprintf>:
trace_vprintf():
/home/palatrauss/optee_with_ftpm_ta/optee_os/lib/libutils/ext/trace.c:129
     6d0:	e96d 4504 	strd	r4, r5, [sp, #-16]!
     6d4:	e9cd 7e02 	strd	r7, lr, [sp, #8]
     6d8:	b0cc      	sub	sp, #304	; 0x130
     6da:	af02      	add	r7, sp, #8
     6dc:	f507 7494 	add.w	r4, r7, #296	; 0x128
     6e0:	f5a4 748a 	sub.w	r4, r4, #276	; 0x114
     6e4:	6020      	str	r0, [r4, #0]
     6e6:	f507 7094 	add.w	r0, r7, #296	; 0x128
     6ea:	f5a0 708c 	sub.w	r0, r0, #280	; 0x118
     6ee:	6001      	str	r1, [r0, #0]
     6f0:	f507 7194 	add.w	r1, r7, #296	; 0x128
     6f4:	f5a1 718e 	sub.w	r1, r1, #284	; 0x11c
     6f8:	600a      	str	r2, [r1, #0]
     6fa:	4619      	mov	r1, r3
     6fc:	f507 7394 	add.w	r3, r7, #296	; 0x128
     700:	f5a3 7392 	sub.w	r3, r3, #292	; 0x124
     704:	f507 7294 	add.w	r2, r7, #296	; 0x128
     708:	f2a2 121d 	subw	r2, r2, #285	; 0x11d
     70c:	7011      	strb	r1, [r2, #0]
     70e:	f8d7 2138 	ldr.w	r2, [r7, #312]	; 0x138
     712:	601a      	str	r2, [r3, #0]
     714:	f8df 44ac 	ldr.w	r4, [pc, #1196]	; bc4 <trace_vprintf+0x4f4>
     718:	447c      	add	r4, pc
     71a:	f8df 24ac 	ldr.w	r2, [pc, #1196]	; bc8 <trace_vprintf+0x4f8>
     71e:	447a      	add	r2, pc
     720:	f8df 34a8 	ldr.w	r3, [pc, #1192]	; bcc <trace_vprintf+0x4fc>
     724:	58d3      	ldr	r3, [r2, r3]
     726:	681b      	ldr	r3, [r3, #0]
     728:	f8c7 3124 	str.w	r3, [r7, #292]	; 0x124
     72c:	f04f 0300 	mov.w	r3, #0
/home/palatrauss/optee_with_ftpm_ta/optee_os/lib/libutils/ext/trace.c:131
     730:	f507 7394 	add.w	r3, r7, #296	; 0x128
     734:	f5a3 7386 	sub.w	r3, r3, #268	; 0x10c
     738:	f04f 0200 	mov.w	r2, #0
     73c:	601a      	str	r2, [r3, #0]
/home/palatrauss/optee_with_ftpm_ta/optee_os/lib/libutils/ext/trace.c:134
     73e:	f507 7394 	add.w	r3, r7, #296	; 0x128
     742:	f2a3 131d 	subw	r3, r3, #285	; 0x11d
     746:	781b      	ldrb	r3, [r3, #0]
     748:	2b00      	cmp	r3, #0
     74a:	d00b      	beq.n	764 <trace_vprintf+0x94>
/home/palatrauss/optee_with_ftpm_ta/optee_os/lib/libutils/ext/trace.c:134 (discriminator 1)
     74c:	f8df 3480 	ldr.w	r3, [pc, #1152]	; bd0 <trace_vprintf+0x500>
     750:	58e3      	ldr	r3, [r4, r3]
     752:	681b      	ldr	r3, [r3, #0]
     754:	f507 7294 	add.w	r2, r7, #296	; 0x128
     758:	f5a2 728e 	sub.w	r2, r2, #284	; 0x11c
     75c:	6812      	ldr	r2, [r2, #0]
     75e:	429a      	cmp	r2, r3
     760:	f300 820c 	bgt.w	b7c <trace_vprintf+0x4ac>
/home/palatrauss/optee_with_ftpm_ta/optee_os/lib/libutils/ext/trace.c:139
     764:	f507 7394 	add.w	r3, r7, #296	; 0x128
     768:	f2a3 131d 	subw	r3, r3, #285	; 0x11d
     76c:	781a      	ldrb	r2, [r3, #0]
     76e:	f507 7394 	add.w	r3, r7, #296	; 0x128
     772:	f5a3 738e 	sub.w	r3, r3, #284	; 0x11c
     776:	4611      	mov	r1, r2
     778:	6818      	ldr	r0, [r3, #0]
     77a:	f7ff fef9 	bl	570 <trace_level_to_string>
     77e:	4603      	mov	r3, r0
/home/palatrauss/optee_with_ftpm_ta/optee_os/lib/libutils/ext/trace.c:138
     780:	461a      	mov	r2, r3
     782:	f507 7394 	add.w	r3, r7, #296	; 0x128
     786:	f5a3 7584 	sub.w	r5, r3, #264	; 0x108
     78a:	f107 0024 	add.w	r0, r7, #36	; 0x24
     78e:	4613      	mov	r3, r2
     790:	f8df 2440 	ldr.w	r2, [pc, #1088]	; bd4 <trace_vprintf+0x504>
     794:	447a      	add	r2, pc
     796:	f44f 7180 	mov.w	r1, #256	; 0x100
     79a:	f000 fa35 	bl	c08 <snprintk>
     79e:	6028      	str	r0, [r5, #0]
/home/palatrauss/optee_with_ftpm_ta/optee_os/lib/libutils/ext/trace.c:140
     7a0:	f507 7394 	add.w	r3, r7, #296	; 0x128
     7a4:	f5a3 7384 	sub.w	r3, r3, #264	; 0x108
     7a8:	681b      	ldr	r3, [r3, #0]
     7aa:	2b00      	cmp	r3, #0
     7ac:	f2c0 81e8 	blt.w	b80 <trace_vprintf+0x4b0>
/home/palatrauss/optee_with_ftpm_ta/optee_os/lib/libutils/ext/trace.c:142
     7b0:	f507 7394 	add.w	r3, r7, #296	; 0x128
     7b4:	f5a3 7384 	sub.w	r3, r3, #264	; 0x108
     7b8:	681a      	ldr	r2, [r3, #0]
     7ba:	f507 7394 	add.w	r3, r7, #296	; 0x128
     7be:	f5a3 7386 	sub.w	r3, r3, #268	; 0x10c
     7c2:	f507 7194 	add.w	r1, r7, #296	; 0x128
     7c6:	f5a1 7186 	sub.w	r1, r1, #268	; 0x10c
     7ca:	6809      	ldr	r1, [r1, #0]
     7cc:	440a      	add	r2, r1
     7ce:	601a      	str	r2, [r3, #0]
/home/palatrauss/optee_with_ftpm_ta/optee_os/lib/libutils/ext/trace.c:145
     7d0:	f107 0224 	add.w	r2, r7, #36	; 0x24
     7d4:	f507 7394 	add.w	r3, r7, #296	; 0x128
     7d8:	f5a3 7386 	sub.w	r3, r3, #268	; 0x10c
     7dc:	681b      	ldr	r3, [r3, #0]
     7de:	eb02 0003 	add.w	r0, r2, r3
     7e2:	f507 7394 	add.w	r3, r7, #296	; 0x128
     7e6:	f5a3 7386 	sub.w	r3, r3, #268	; 0x10c
     7ea:	681b      	ldr	r3, [r3, #0]
     7ec:	f5c3 7180 	rsb	r1, r3, #256	; 0x100
     7f0:	f507 7394 	add.w	r3, r7, #296	; 0x128
     7f4:	f5a3 7584 	sub.w	r5, r3, #264	; 0x108
     7f8:	4bf7      	ldr	r3, [pc, #988]	; (bd8 <trace_vprintf+0x508>)
     7fa:	58e3      	ldr	r3, [r4, r3]
     7fc:	4af7      	ldr	r2, [pc, #988]	; (bdc <trace_vprintf+0x50c>)
     7fe:	447a      	add	r2, pc
     800:	f000 fa02 	bl	c08 <snprintk>
     804:	6028      	str	r0, [r5, #0]
/home/palatrauss/optee_with_ftpm_ta/optee_os/lib/libutils/ext/trace.c:147
     806:	f507 7394 	add.w	r3, r7, #296	; 0x128
     80a:	f5a3 7384 	sub.w	r3, r3, #264	; 0x108
     80e:	681b      	ldr	r3, [r3, #0]
     810:	2b00      	cmp	r3, #0
     812:	f2c0 81b7 	blt.w	b84 <trace_vprintf+0x4b4>
/home/palatrauss/optee_with_ftpm_ta/optee_os/lib/libutils/ext/trace.c:149
     816:	f507 7394 	add.w	r3, r7, #296	; 0x128
     81a:	f5a3 7384 	sub.w	r3, r3, #264	; 0x108
     81e:	681a      	ldr	r2, [r3, #0]
     820:	f507 7394 	add.w	r3, r7, #296	; 0x128
     824:	f5a3 7386 	sub.w	r3, r3, #268	; 0x10c
     828:	f507 7194 	add.w	r1, r7, #296	; 0x128
     82c:	f5a1 7186 	sub.w	r1, r1, #268	; 0x10c
     830:	6809      	ldr	r1, [r1, #0]
     832:	440a      	add	r2, r1
     834:	601a      	str	r2, [r3, #0]
/home/palatrauss/optee_with_ftpm_ta/optee_os/lib/libutils/ext/trace.c:151
     836:	f507 7394 	add.w	r3, r7, #296	; 0x128
     83a:	f2a3 131d 	subw	r3, r3, #285	; 0x11d
     83e:	781b      	ldrb	r3, [r3, #0]
     840:	2b00      	cmp	r3, #0
     842:	f000 80e2 	beq.w	a0a <trace_vprintf+0x33a>
/home/palatrauss/optee_with_ftpm_ta/optee_os/lib/libutils/ext/trace.c:151 (discriminator 1)
     846:	f507 7394 	add.w	r3, r7, #296	; 0x128
     84a:	f5a3 738e 	sub.w	r3, r3, #284	; 0x11c
     84e:	f04f 021a 	mov.w	r2, #26
     852:	681b      	ldr	r3, [r3, #0]
     854:	fa22 f303 	lsr.w	r3, r2, r3
     858:	f003 0301 	and.w	r3, r3, #1
     85c:	2b00      	cmp	r3, #0
     85e:	f000 80d4 	beq.w	a0a <trace_vprintf+0x33a>
/home/palatrauss/optee_with_ftpm_ta/optee_os/lib/libutils/ext/trace.c:153
     862:	f107 0224 	add.w	r2, r7, #36	; 0x24
     866:	f507 7394 	add.w	r3, r7, #296	; 0x128
     86a:	f5a3 7386 	sub.w	r3, r3, #268	; 0x10c
     86e:	681b      	ldr	r3, [r3, #0]
     870:	441a      	add	r2, r3
     872:	f507 7394 	add.w	r3, r7, #296	; 0x128
     876:	f5a3 7386 	sub.w	r3, r3, #268	; 0x10c
     87a:	681b      	ldr	r3, [r3, #0]
     87c:	f5c3 7380 	rsb	r3, r3, #256	; 0x100
     880:	f507 7194 	add.w	r1, r7, #296	; 0x128
     884:	f5a1 7484 	sub.w	r4, r1, #264	; 0x108
     888:	4619      	mov	r1, r3
     88a:	4610      	mov	r0, r2
     88c:	f7ff fed9 	bl	642 <print_guest_id>
     890:	6020      	str	r0, [r4, #0]
/home/palatrauss/optee_with_ftpm_ta/optee_os/lib/libutils/ext/trace.c:154
     892:	f507 7394 	add.w	r3, r7, #296	; 0x128
     896:	f5a3 7384 	sub.w	r3, r3, #264	; 0x108
     89a:	681b      	ldr	r3, [r3, #0]
     89c:	2b00      	cmp	r3, #0
     89e:	f2c0 8173 	blt.w	b88 <trace_vprintf+0x4b8>
/home/palatrauss/optee_with_ftpm_ta/optee_os/lib/libutils/ext/trace.c:156
     8a2:	f507 7394 	add.w	r3, r7, #296	; 0x128
     8a6:	f5a3 7384 	sub.w	r3, r3, #264	; 0x108
     8aa:	681a      	ldr	r2, [r3, #0]
     8ac:	f507 7394 	add.w	r3, r7, #296	; 0x128
     8b0:	f5a3 7386 	sub.w	r3, r3, #268	; 0x10c
     8b4:	f507 7194 	add.w	r1, r7, #296	; 0x128
     8b8:	f5a1 7186 	sub.w	r1, r1, #268	; 0x10c
     8bc:	6809      	ldr	r1, [r1, #0]
     8be:	440a      	add	r2, r1
     8c0:	601a      	str	r2, [r3, #0]
/home/palatrauss/optee_with_ftpm_ta/optee_os/lib/libutils/ext/trace.c:159
     8c2:	f107 0224 	add.w	r2, r7, #36	; 0x24
     8c6:	f507 7394 	add.w	r3, r7, #296	; 0x128
     8ca:	f5a3 7386 	sub.w	r3, r3, #268	; 0x10c
     8ce:	681b      	ldr	r3, [r3, #0]
     8d0:	441a      	add	r2, r3
     8d2:	f507 7394 	add.w	r3, r7, #296	; 0x128
     8d6:	f5a3 7386 	sub.w	r3, r3, #268	; 0x10c
     8da:	681b      	ldr	r3, [r3, #0]
     8dc:	f5c3 7380 	rsb	r3, r3, #256	; 0x100
     8e0:	f507 7194 	add.w	r1, r7, #296	; 0x128
     8e4:	f5a1 7484 	sub.w	r4, r1, #264	; 0x108
     8e8:	4619      	mov	r1, r3
     8ea:	4610      	mov	r0, r2
     8ec:	f7ff fe9a 	bl	624 <print_core_id>
     8f0:	6020      	str	r0, [r4, #0]
/home/palatrauss/optee_with_ftpm_ta/optee_os/lib/libutils/ext/trace.c:160
     8f2:	f507 7394 	add.w	r3, r7, #296	; 0x128
     8f6:	f5a3 7384 	sub.w	r3, r3, #264	; 0x108
     8fa:	681b      	ldr	r3, [r3, #0]
     8fc:	2b00      	cmp	r3, #0
     8fe:	f2c0 8145 	blt.w	b8c <trace_vprintf+0x4bc>
/home/palatrauss/optee_with_ftpm_ta/optee_os/lib/libutils/ext/trace.c:162
     902:	f507 7394 	add.w	r3, r7, #296	; 0x128
     906:	f5a3 7384 	sub.w	r3, r3, #264	; 0x108
     90a:	681a      	ldr	r2, [r3, #0]
     90c:	f507 7394 	add.w	r3, r7, #296	; 0x128
     910:	f5a3 7386 	sub.w	r3, r3, #268	; 0x10c
     914:	f507 7194 	add.w	r1, r7, #296	; 0x128
     918:	f5a1 7186 	sub.w	r1, r1, #268	; 0x10c
     91c:	6809      	ldr	r1, [r1, #0]
     91e:	440a      	add	r2, r1
     920:	601a      	str	r2, [r3, #0]
/home/palatrauss/optee_with_ftpm_ta/optee_os/lib/libutils/ext/trace.c:165
     922:	f107 0224 	add.w	r2, r7, #36	; 0x24
     926:	f507 7394 	add.w	r3, r7, #296	; 0x128
     92a:	f5a3 7386 	sub.w	r3, r3, #268	; 0x10c
     92e:	681b      	ldr	r3, [r3, #0]
     930:	441a      	add	r2, r3
     932:	f507 7394 	add.w	r3, r7, #296	; 0x128
     936:	f5a3 7386 	sub.w	r3, r3, #268	; 0x10c
     93a:	681b      	ldr	r3, [r3, #0]
     93c:	f5c3 7380 	rsb	r3, r3, #256	; 0x100
     940:	f507 7194 	add.w	r1, r7, #296	; 0x128
     944:	f5a1 7484 	sub.w	r4, r1, #264	; 0x108
     948:	4619      	mov	r1, r3
     94a:	4610      	mov	r0, r2
     94c:	f7ff fe3a 	bl	5c4 <print_thread_id>
     950:	6020      	str	r0, [r4, #0]
/home/palatrauss/optee_with_ftpm_ta/optee_os/lib/libutils/ext/trace.c:166
     952:	f507 7394 	add.w	r3, r7, #296	; 0x128
     956:	f5a3 7384 	sub.w	r3, r3, #264	; 0x108
     95a:	681b      	ldr	r3, [r3, #0]
     95c:	2b00      	cmp	r3, #0
     95e:	f2c0 8117 	blt.w	b90 <trace_vprintf+0x4c0>
/home/palatrauss/optee_with_ftpm_ta/optee_os/lib/libutils/ext/trace.c:168
     962:	f507 7394 	add.w	r3, r7, #296	; 0x128
     966:	f5a3 7384 	sub.w	r3, r3, #264	; 0x108
     96a:	681a      	ldr	r2, [r3, #0]
     96c:	f507 7394 	add.w	r3, r7, #296	; 0x128
     970:	f5a3 7386 	sub.w	r3, r3, #268	; 0x10c
     974:	f507 7194 	add.w	r1, r7, #296	; 0x128
     978:	f5a1 7186 	sub.w	r1, r1, #268	; 0x10c
     97c:	6809      	ldr	r1, [r1, #0]
     97e:	440a      	add	r2, r1
     980:	601a      	str	r2, [r3, #0]
/home/palatrauss/optee_with_ftpm_ta/optee_os/lib/libutils/ext/trace.c:170
     982:	f507 7394 	add.w	r3, r7, #296	; 0x128
     986:	f5a3 738a 	sub.w	r3, r3, #276	; 0x114
     98a:	681b      	ldr	r3, [r3, #0]
     98c:	2b00      	cmp	r3, #0
     98e:	d064      	beq.n	a5a <trace_vprintf+0x38a>
/home/palatrauss/optee_with_ftpm_ta/optee_os/lib/libutils/ext/trace.c:171
     990:	f107 0224 	add.w	r2, r7, #36	; 0x24
     994:	f507 7394 	add.w	r3, r7, #296	; 0x128
     998:	f5a3 7386 	sub.w	r3, r3, #268	; 0x10c
     99c:	681b      	ldr	r3, [r3, #0]
     99e:	eb02 0003 	add.w	r0, r2, r3
     9a2:	f507 7394 	add.w	r3, r7, #296	; 0x128
     9a6:	f5a3 7386 	sub.w	r3, r3, #268	; 0x10c
     9aa:	681b      	ldr	r3, [r3, #0]
     9ac:	f5c3 7180 	rsb	r1, r3, #256	; 0x100
     9b0:	f507 7394 	add.w	r3, r7, #296	; 0x128
     9b4:	f5a3 7484 	sub.w	r4, r3, #264	; 0x108
     9b8:	f507 7394 	add.w	r3, r7, #296	; 0x128
     9bc:	f5a3 738a 	sub.w	r3, r3, #276	; 0x114
     9c0:	f507 7294 	add.w	r2, r7, #296	; 0x128
     9c4:	f5a2 728c 	sub.w	r2, r2, #280	; 0x118
     9c8:	6812      	ldr	r2, [r2, #0]
     9ca:	9200      	str	r2, [sp, #0]
     9cc:	681b      	ldr	r3, [r3, #0]
     9ce:	4a84      	ldr	r2, [pc, #528]	; (be0 <trace_vprintf+0x510>)
     9d0:	447a      	add	r2, pc
     9d2:	f000 f919 	bl	c08 <snprintk>
     9d6:	6020      	str	r0, [r4, #0]
/home/palatrauss/optee_with_ftpm_ta/optee_os/lib/libutils/ext/trace.c:173
     9d8:	f507 7394 	add.w	r3, r7, #296	; 0x128
     9dc:	f5a3 7384 	sub.w	r3, r3, #264	; 0x108
     9e0:	681b      	ldr	r3, [r3, #0]
     9e2:	2b00      	cmp	r3, #0
     9e4:	f2c0 80d6 	blt.w	b94 <trace_vprintf+0x4c4>
/home/palatrauss/optee_with_ftpm_ta/optee_os/lib/libutils/ext/trace.c:175
     9e8:	f507 7394 	add.w	r3, r7, #296	; 0x128
     9ec:	f5a3 7384 	sub.w	r3, r3, #264	; 0x108
     9f0:	681a      	ldr	r2, [r3, #0]
     9f2:	f507 7394 	add.w	r3, r7, #296	; 0x128
     9f6:	f5a3 7386 	sub.w	r3, r3, #268	; 0x10c
     9fa:	f507 7194 	add.w	r1, r7, #296	; 0x128
     9fe:	f5a1 7186 	sub.w	r1, r1, #268	; 0x10c
     a02:	6809      	ldr	r1, [r1, #0]
     a04:	440a      	add	r2, r1
     a06:	601a      	str	r2, [r3, #0]
/home/palatrauss/optee_with_ftpm_ta/optee_os/lib/libutils/ext/trace.c:170
     a08:	e027      	b.n	a5a <trace_vprintf+0x38a>
/home/palatrauss/optee_with_ftpm_ta/optee_os/lib/libutils/ext/trace.c:179
     a0a:	f507 7394 	add.w	r3, r7, #296	; 0x128
     a0e:	f5a3 7386 	sub.w	r3, r3, #268	; 0x10c
     a12:	681b      	ldr	r3, [r3, #0]
     a14:	2bfe      	cmp	r3, #254	; 0xfe
     a16:	f200 80bf 	bhi.w	b98 <trace_vprintf+0x4c8>
/home/palatrauss/optee_with_ftpm_ta/optee_os/lib/libutils/ext/trace.c:181
     a1a:	f507 7394 	add.w	r3, r7, #296	; 0x128
     a1e:	f5a3 7386 	sub.w	r3, r3, #268	; 0x10c
     a22:	681b      	ldr	r3, [r3, #0]
     a24:	f507 7294 	add.w	r2, r7, #296	; 0x128
     a28:	f5a2 7286 	sub.w	r2, r2, #268	; 0x10c
     a2c:	f103 0101 	add.w	r1, r3, #1
     a30:	6011      	str	r1, [r2, #0]
     a32:	f507 7294 	add.w	r2, r7, #296	; 0x128
     a36:	f5a2 7282 	sub.w	r2, r2, #260	; 0x104
     a3a:	f04f 0120 	mov.w	r1, #32
     a3e:	54d1      	strb	r1, [r2, r3]
/home/palatrauss/optee_with_ftpm_ta/optee_os/lib/libutils/ext/trace.c:182
     a40:	f507 7394 	add.w	r3, r7, #296	; 0x128
     a44:	f5a3 7282 	sub.w	r2, r3, #260	; 0x104
     a48:	f507 7394 	add.w	r3, r7, #296	; 0x128
     a4c:	f5a3 7386 	sub.w	r3, r3, #268	; 0x10c
     a50:	681b      	ldr	r3, [r3, #0]
     a52:	4413      	add	r3, r2
     a54:	f04f 0200 	mov.w	r2, #0
     a58:	701a      	strb	r2, [r3, #0]
/home/palatrauss/optee_with_ftpm_ta/optee_os/lib/libutils/ext/trace.c:185
     a5a:	f107 0224 	add.w	r2, r7, #36	; 0x24
     a5e:	f507 7394 	add.w	r3, r7, #296	; 0x128
     a62:	f5a3 7386 	sub.w	r3, r3, #268	; 0x10c
     a66:	681b      	ldr	r3, [r3, #0]
     a68:	eb02 0003 	add.w	r0, r2, r3
     a6c:	f507 7394 	add.w	r3, r7, #296	; 0x128
     a70:	f5a3 7386 	sub.w	r3, r3, #268	; 0x10c
     a74:	681b      	ldr	r3, [r3, #0]
     a76:	f5c3 7180 	rsb	r1, r3, #256	; 0x100
     a7a:	f507 7394 	add.w	r3, r7, #296	; 0x128
     a7e:	f5a3 7484 	sub.w	r4, r3, #264	; 0x108
     a82:	f507 7394 	add.w	r3, r7, #296	; 0x128
     a86:	f5a3 7292 	sub.w	r2, r3, #292	; 0x124
     a8a:	f8d7 313c 	ldr.w	r3, [r7, #316]	; 0x13c
     a8e:	6812      	ldr	r2, [r2, #0]
     a90:	f000 f8f2 	bl	c78 <vsnprintk>
     a94:	6020      	str	r0, [r4, #0]
/home/palatrauss/optee_with_ftpm_ta/optee_os/lib/libutils/ext/trace.c:186
     a96:	f507 7394 	add.w	r3, r7, #296	; 0x128
     a9a:	f5a3 7384 	sub.w	r3, r3, #264	; 0x108
     a9e:	681b      	ldr	r3, [r3, #0]
     aa0:	2b00      	cmp	r3, #0
     aa2:	dd0f      	ble.n	ac4 <trace_vprintf+0x3f4>
/home/palatrauss/optee_with_ftpm_ta/optee_os/lib/libutils/ext/trace.c:187
     aa4:	f507 7394 	add.w	r3, r7, #296	; 0x128
     aa8:	f5a3 7384 	sub.w	r3, r3, #264	; 0x108
     aac:	681a      	ldr	r2, [r3, #0]
     aae:	f507 7394 	add.w	r3, r7, #296	; 0x128
     ab2:	f5a3 7386 	sub.w	r3, r3, #268	; 0x10c
     ab6:	f507 7194 	add.w	r1, r7, #296	; 0x128
     aba:	f5a1 7186 	sub.w	r1, r1, #268	; 0x10c
     abe:	6809      	ldr	r1, [r1, #0]
     ac0:	440a      	add	r2, r1
     ac2:	601a      	str	r2, [r3, #0]
/home/palatrauss/optee_with_ftpm_ta/optee_os/lib/libutils/ext/trace.c:189
     ac4:	f507 7394 	add.w	r3, r7, #296	; 0x128
     ac8:	f5a3 7386 	sub.w	r3, r3, #268	; 0x10c
     acc:	681b      	ldr	r3, [r3, #0]
     ace:	2bfe      	cmp	r3, #254	; 0xfe
     ad0:	d906      	bls.n	ae0 <trace_vprintf+0x410>
/home/palatrauss/optee_with_ftpm_ta/optee_os/lib/libutils/ext/trace.c:190
     ad2:	f507 7394 	add.w	r3, r7, #296	; 0x128
     ad6:	f5a3 7386 	sub.w	r3, r3, #268	; 0x10c
     ada:	f04f 02fe 	mov.w	r2, #254	; 0xfe
     ade:	601a      	str	r2, [r3, #0]
/home/palatrauss/optee_with_ftpm_ta/optee_os/lib/libutils/ext/trace.c:192
     ae0:	f507 7394 	add.w	r3, r7, #296	; 0x128
     ae4:	f5a3 7282 	sub.w	r2, r3, #260	; 0x104
     ae8:	f507 7394 	add.w	r3, r7, #296	; 0x128
     aec:	f5a3 7386 	sub.w	r3, r3, #268	; 0x10c
     af0:	681b      	ldr	r3, [r3, #0]
     af2:	4413      	add	r3, r2
     af4:	f04f 020a 	mov.w	r2, #10
     af8:	701a      	strb	r2, [r3, #0]
/home/palatrauss/optee_with_ftpm_ta/optee_os/lib/libutils/ext/trace.c:193
     afa:	e00b      	b.n	b14 <trace_vprintf+0x444>
/home/palatrauss/optee_with_ftpm_ta/optee_os/lib/libutils/ext/trace.c:194
     afc:	f507 7394 	add.w	r3, r7, #296	; 0x128
     b00:	f5a3 7386 	sub.w	r3, r3, #268	; 0x10c
     b04:	f507 7294 	add.w	r2, r7, #296	; 0x128
     b08:	f5a2 7286 	sub.w	r2, r2, #268	; 0x10c
     b0c:	6812      	ldr	r2, [r2, #0]
     b0e:	f102 32ff 	add.w	r2, r2, #4294967295	; 0xffffffff
     b12:	601a      	str	r2, [r3, #0]
/home/palatrauss/optee_with_ftpm_ta/optee_os/lib/libutils/ext/trace.c:193
     b14:	f507 7394 	add.w	r3, r7, #296	; 0x128
     b18:	f5a3 7386 	sub.w	r3, r3, #268	; 0x10c
     b1c:	681b      	ldr	r3, [r3, #0]
     b1e:	2b00      	cmp	r3, #0
     b20:	d00c      	beq.n	b3c <trace_vprintf+0x46c>
/home/palatrauss/optee_with_ftpm_ta/optee_os/lib/libutils/ext/trace.c:193 (discriminator 1)
     b22:	f507 7394 	add.w	r3, r7, #296	; 0x128
     b26:	f5a3 7282 	sub.w	r2, r3, #260	; 0x104
     b2a:	f507 7394 	add.w	r3, r7, #296	; 0x128
     b2e:	f5a3 7386 	sub.w	r3, r3, #268	; 0x10c
     b32:	681b      	ldr	r3, [r3, #0]
     b34:	4413      	add	r3, r2
     b36:	781b      	ldrb	r3, [r3, #0]
     b38:	2b0a      	cmp	r3, #10
     b3a:	d0df      	beq.n	afc <trace_vprintf+0x42c>
/home/palatrauss/optee_with_ftpm_ta/optee_os/lib/libutils/ext/trace.c:195
     b3c:	f507 7394 	add.w	r3, r7, #296	; 0x128
     b40:	f5a3 7386 	sub.w	r3, r3, #268	; 0x10c
     b44:	f507 7294 	add.w	r2, r7, #296	; 0x128
     b48:	f5a2 7286 	sub.w	r2, r2, #268	; 0x10c
     b4c:	6812      	ldr	r2, [r2, #0]
     b4e:	f102 0201 	add.w	r2, r2, #1
     b52:	601a      	str	r2, [r3, #0]
/home/palatrauss/optee_with_ftpm_ta/optee_os/lib/libutils/ext/trace.c:196
     b54:	f507 7394 	add.w	r3, r7, #296	; 0x128
     b58:	f5a3 7386 	sub.w	r3, r3, #268	; 0x10c
     b5c:	681b      	ldr	r3, [r3, #0]
     b5e:	f103 0301 	add.w	r3, r3, #1
     b62:	f507 7294 	add.w	r2, r7, #296	; 0x128
     b66:	f5a2 7282 	sub.w	r2, r2, #260	; 0x104
     b6a:	f04f 0100 	mov.w	r1, #0
     b6e:	54d1      	strb	r1, [r2, r3]
/home/palatrauss/optee_with_ftpm_ta/optee_os/lib/libutils/ext/trace.c:198
     b70:	f107 0324 	add.w	r3, r7, #36	; 0x24
     b74:	4618      	mov	r0, r3
     b76:	f001 fa57 	bl	2028 <trace_ext_puts>
     b7a:	e00e      	b.n	b9a <trace_vprintf+0x4ca>
/home/palatrauss/optee_with_ftpm_ta/optee_os/lib/libutils/ext/trace.c:135
     b7c:	bf00      	nop
     b7e:	e00c      	b.n	b9a <trace_vprintf+0x4ca>
/home/palatrauss/optee_with_ftpm_ta/optee_os/lib/libutils/ext/trace.c:141
     b80:	bf00      	nop
     b82:	e00a      	b.n	b9a <trace_vprintf+0x4ca>
/home/palatrauss/optee_with_ftpm_ta/optee_os/lib/libutils/ext/trace.c:148
     b84:	bf00      	nop
     b86:	e008      	b.n	b9a <trace_vprintf+0x4ca>
/home/palatrauss/optee_with_ftpm_ta/optee_os/lib/libutils/ext/trace.c:155
     b88:	bf00      	nop
     b8a:	e006      	b.n	b9a <trace_vprintf+0x4ca>
/home/palatrauss/optee_with_ftpm_ta/optee_os/lib/libutils/ext/trace.c:161
     b8c:	bf00      	nop
     b8e:	e004      	b.n	b9a <trace_vprintf+0x4ca>
/home/palatrauss/optee_with_ftpm_ta/optee_os/lib/libutils/ext/trace.c:167
     b90:	bf00      	nop
     b92:	e002      	b.n	b9a <trace_vprintf+0x4ca>
/home/palatrauss/optee_with_ftpm_ta/optee_os/lib/libutils/ext/trace.c:174
     b94:	bf00      	nop
     b96:	e000      	b.n	b9a <trace_vprintf+0x4ca>
/home/palatrauss/optee_with_ftpm_ta/optee_os/lib/libutils/ext/trace.c:180
     b98:	bf00      	nop
/home/palatrauss/optee_with_ftpm_ta/optee_os/lib/libutils/ext/trace.c:129
     b9a:	4a12      	ldr	r2, [pc, #72]	; (be4 <trace_vprintf+0x514>)
     b9c:	447a      	add	r2, pc
/home/palatrauss/optee_with_ftpm_ta/optee_os/lib/libutils/ext/trace.c:199
     b9e:	4b0b      	ldr	r3, [pc, #44]	; (bcc <trace_vprintf+0x4fc>)
     ba0:	58d3      	ldr	r3, [r2, r3]
     ba2:	681a      	ldr	r2, [r3, #0]
     ba4:	f8d7 3124 	ldr.w	r3, [r7, #292]	; 0x124
     ba8:	405a      	eors	r2, r3
     baa:	f04f 0300 	mov.w	r3, #0
     bae:	d001      	beq.n	bb4 <trace_vprintf+0x4e4>
     bb0:	f7ff fc8e 	bl	4d0 <__stack_chk_fail>
     bb4:	f507 7794 	add.w	r7, r7, #296	; 0x128
     bb8:	46bd      	mov	sp, r7
     bba:	e9dd 4500 	ldrd	r4, r5, [sp]
     bbe:	b002      	add	sp, #8
     bc0:	bd80      	pop	{r7, pc}
     bc2:	bf00      	nop
     bc4:	0001d96c 	.word	0x0001d96c
     bc8:	0001d966 	.word	0x0001d966
     bcc:	0000000c 	.word	0x0000000c
     bd0:	0000001c 	.word	0x0000001c
     bd4:	00019db0 	.word	0x00019db0
     bd8:	00000024 	.word	0x00000024
     bdc:	00019d4a 	.word	0x00019d4a
     be0:	00019b7c 	.word	0x00019b7c
     be4:	0001d4e8 	.word	0x0001d4e8

00000be8 <dhex_dump>:
dhex_dump():
/home/palatrauss/optee_with_ftpm_ta/optee_os/lib/libutils/ext/trace.c:308
     be8:	f84d 7d04 	str.w	r7, [sp, #-4]!
     bec:	b085      	sub	sp, #20
     bee:	af00      	add	r7, sp, #0
     bf0:	60f8      	str	r0, [r7, #12]
     bf2:	60b9      	str	r1, [r7, #8]
     bf4:	607a      	str	r2, [r7, #4]
     bf6:	603b      	str	r3, [r7, #0]
/home/palatrauss/optee_with_ftpm_ta/optee_os/lib/libutils/ext/trace.c:309
     bf8:	bf00      	nop
     bfa:	f107 0714 	add.w	r7, r7, #20
     bfe:	46bd      	mov	sp, r7
     c00:	f85d 7b04 	ldr.w	r7, [sp], #4
     c04:	4770      	bx	lr
     c06:	bf00      	nop

00000c08 <snprintk>:
snprintk():
/home/palatrauss/optee_with_ftpm_ta/optee_os/lib/libutils/ext/snprintk.c:113
     c08:	b40c      	push	{r2, r3}
     c0a:	e96d 7e02 	strd	r7, lr, [sp, #-8]!
     c0e:	b088      	sub	sp, #32
     c10:	af00      	add	r7, sp, #0
     c12:	60f8      	str	r0, [r7, #12]
     c14:	60b9      	str	r1, [r7, #8]
     c16:	6abb      	ldr	r3, [r7, #40]	; 0x28
     c18:	607b      	str	r3, [r7, #4]
     c1a:	4a14      	ldr	r2, [pc, #80]	; (c6c <snprintk+0x64>)
     c1c:	447a      	add	r2, pc
     c1e:	4b14      	ldr	r3, [pc, #80]	; (c70 <snprintk+0x68>)
     c20:	58d3      	ldr	r3, [r2, r3]
     c22:	681b      	ldr	r3, [r3, #0]
     c24:	61fb      	str	r3, [r7, #28]
     c26:	f04f 0300 	mov.w	r3, #0
/home/palatrauss/optee_with_ftpm_ta/optee_os/lib/libutils/ext/snprintk.c:117
     c2a:	f107 032c 	add.w	r3, r7, #44	; 0x2c
     c2e:	617b      	str	r3, [r7, #20]
/home/palatrauss/optee_with_ftpm_ta/optee_os/lib/libutils/ext/snprintk.c:118
     c30:	697b      	ldr	r3, [r7, #20]
     c32:	687a      	ldr	r2, [r7, #4]
     c34:	68b9      	ldr	r1, [r7, #8]
     c36:	68f8      	ldr	r0, [r7, #12]
     c38:	f000 f81e 	bl	c78 <vsnprintk>
     c3c:	61b8      	str	r0, [r7, #24]
/home/palatrauss/optee_with_ftpm_ta/optee_os/lib/libutils/ext/snprintk.c:121
     c3e:	69bb      	ldr	r3, [r7, #24]
/home/palatrauss/optee_with_ftpm_ta/optee_os/lib/libutils/ext/snprintk.c:113
     c40:	490c      	ldr	r1, [pc, #48]	; (c74 <snprintk+0x6c>)
     c42:	4479      	add	r1, pc
/home/palatrauss/optee_with_ftpm_ta/optee_os/lib/libutils/ext/snprintk.c:122
     c44:	4a0a      	ldr	r2, [pc, #40]	; (c70 <snprintk+0x68>)
     c46:	588a      	ldr	r2, [r1, r2]
     c48:	6811      	ldr	r1, [r2, #0]
     c4a:	69fa      	ldr	r2, [r7, #28]
     c4c:	4051      	eors	r1, r2
     c4e:	f04f 0200 	mov.w	r2, #0
     c52:	d001      	beq.n	c58 <snprintk+0x50>
     c54:	f7ff fc3c 	bl	4d0 <__stack_chk_fail>
     c58:	4618      	mov	r0, r3
     c5a:	f107 0720 	add.w	r7, r7, #32
     c5e:	46bd      	mov	sp, r7
     c60:	e9dd 7e00 	ldrd	r7, lr, [sp]
     c64:	b002      	add	sp, #8
     c66:	b002      	add	sp, #8
     c68:	4770      	bx	lr
     c6a:	bf00      	nop
     c6c:	0001d468 	.word	0x0001d468
     c70:	0000000c 	.word	0x0000000c
     c74:	0001d442 	.word	0x0001d442

00000c78 <vsnprintk>:
vsnprintk():
/home/palatrauss/optee_with_ftpm_ta/optee_os/lib/libutils/ext/snprintk.c:130
     c78:	e96d 7e02 	strd	r7, lr, [sp, #-8]!
     c7c:	b086      	sub	sp, #24
     c7e:	af02      	add	r7, sp, #8
     c80:	60f8      	str	r0, [r7, #12]
     c82:	60b9      	str	r1, [r7, #8]
     c84:	607a      	str	r2, [r7, #4]
     c86:	603b      	str	r3, [r7, #0]
/home/palatrauss/optee_with_ftpm_ta/optee_os/lib/libutils/ext/snprintk.c:131
     c88:	f04f 0301 	mov.w	r3, #1
     c8c:	9300      	str	r3, [sp, #0]
     c8e:	683b      	ldr	r3, [r7, #0]
     c90:	687a      	ldr	r2, [r7, #4]
     c92:	68b9      	ldr	r1, [r7, #8]
     c94:	68f8      	ldr	r0, [r7, #12]
     c96:	f000 f806 	bl	ca6 <__vsnprintf>
     c9a:	4603      	mov	r3, r0
/home/palatrauss/optee_with_ftpm_ta/optee_os/lib/libutils/ext/snprintk.c:132
     c9c:	4618      	mov	r0, r3
     c9e:	f107 0710 	add.w	r7, r7, #16
     ca2:	46bd      	mov	sp, r7
     ca4:	bd80      	pop	{r7, pc}

00000ca6 <__vsnprintf>:
__vsnprintf():
/home/palatrauss/optee_with_ftpm_ta/optee_os/lib/libutils/ext/snprintk.c:138
     ca6:	e96d 7e02 	strd	r7, lr, [sp, #-8]!
     caa:	b08a      	sub	sp, #40	; 0x28
     cac:	af02      	add	r7, sp, #8
     cae:	60f8      	str	r0, [r7, #12]
     cb0:	60b9      	str	r1, [r7, #8]
     cb2:	607a      	str	r2, [r7, #4]
     cb4:	603b      	str	r3, [r7, #0]
     cb6:	4a22      	ldr	r2, [pc, #136]	; (d40 <__vsnprintf+0x9a>)
     cb8:	447a      	add	r2, pc
     cba:	4b22      	ldr	r3, [pc, #136]	; (d44 <__vsnprintf+0x9e>)
     cbc:	58d3      	ldr	r3, [r2, r3]
     cbe:	681b      	ldr	r3, [r3, #0]
     cc0:	61fb      	str	r3, [r7, #28]
     cc2:	f04f 0300 	mov.w	r3, #0
/home/palatrauss/optee_with_ftpm_ta/optee_os/lib/libutils/ext/snprintk.c:142
     cc6:	68fa      	ldr	r2, [r7, #12]
     cc8:	68bb      	ldr	r3, [r7, #8]
     cca:	4413      	add	r3, r2
     ccc:	617b      	str	r3, [r7, #20]
/home/palatrauss/optee_with_ftpm_ta/optee_os/lib/libutils/ext/snprintk.c:143
     cce:	f107 0214 	add.w	r2, r7, #20
     cd2:	f897 3028 	ldrb.w	r3, [r7, #40]	; 0x28
     cd6:	9301      	str	r3, [sp, #4]
     cd8:	683b      	ldr	r3, [r7, #0]
     cda:	9300      	str	r3, [sp, #0]
     cdc:	68fb      	ldr	r3, [r7, #12]
     cde:	f04f 0108 	mov.w	r1, #8
     ce2:	6878      	ldr	r0, [r7, #4]
     ce4:	f000 f89c 	bl	e20 <kprintf>
     ce8:	61b8      	str	r0, [r7, #24]
/home/palatrauss/optee_with_ftpm_ta/optee_os/lib/libutils/ext/snprintk.c:144
     cea:	68fb      	ldr	r3, [r7, #12]
     cec:	2b00      	cmp	r3, #0
     cee:	d015      	beq.n	d1c <__vsnprintf+0x76>
/home/palatrauss/optee_with_ftpm_ta/optee_os/lib/libutils/ext/snprintk.c:144 (discriminator 1)
     cf0:	68bb      	ldr	r3, [r7, #8]
     cf2:	2b00      	cmp	r3, #0
     cf4:	d012      	beq.n	d1c <__vsnprintf+0x76>
/home/palatrauss/optee_with_ftpm_ta/optee_os/lib/libutils/ext/snprintk.c:146
     cf6:	69bb      	ldr	r3, [r7, #24]
     cf8:	68ba      	ldr	r2, [r7, #8]
     cfa:	429a      	cmp	r2, r3
     cfc:	d808      	bhi.n	d10 <__vsnprintf+0x6a>
/home/palatrauss/optee_with_ftpm_ta/optee_os/lib/libutils/ext/snprintk.c:147
     cfe:	68bb      	ldr	r3, [r7, #8]
     d00:	f103 33ff 	add.w	r3, r3, #4294967295	; 0xffffffff
     d04:	68fa      	ldr	r2, [r7, #12]
     d06:	4413      	add	r3, r2
     d08:	f04f 0200 	mov.w	r2, #0
     d0c:	701a      	strb	r2, [r3, #0]
     d0e:	e005      	b.n	d1c <__vsnprintf+0x76>
/home/palatrauss/optee_with_ftpm_ta/optee_os/lib/libutils/ext/snprintk.c:149
     d10:	69bb      	ldr	r3, [r7, #24]
     d12:	68fa      	ldr	r2, [r7, #12]
     d14:	4413      	add	r3, r2
     d16:	f04f 0200 	mov.w	r2, #0
     d1a:	701a      	strb	r2, [r3, #0]
/home/palatrauss/optee_with_ftpm_ta/optee_os/lib/libutils/ext/snprintk.c:151
     d1c:	69bb      	ldr	r3, [r7, #24]
/home/palatrauss/optee_with_ftpm_ta/optee_os/lib/libutils/ext/snprintk.c:138
     d1e:	490a      	ldr	r1, [pc, #40]	; (d48 <__vsnprintf+0xa2>)
     d20:	4479      	add	r1, pc
/home/palatrauss/optee_with_ftpm_ta/optee_os/lib/libutils/ext/snprintk.c:152
     d22:	4a08      	ldr	r2, [pc, #32]	; (d44 <__vsnprintf+0x9e>)
     d24:	588a      	ldr	r2, [r1, r2]
     d26:	6811      	ldr	r1, [r2, #0]
     d28:	69fa      	ldr	r2, [r7, #28]
     d2a:	4051      	eors	r1, r2
     d2c:	f04f 0200 	mov.w	r2, #0
     d30:	d001      	beq.n	d36 <__vsnprintf+0x90>
     d32:	f7ff fbcd 	bl	4d0 <__stack_chk_fail>
     d36:	4618      	mov	r0, r3
     d38:	f107 0720 	add.w	r7, r7, #32
     d3c:	46bd      	mov	sp, r7
     d3e:	bd80      	pop	{r7, pc}
     d40:	0001d3cc 	.word	0x0001d3cc
     d44:	0000000c 	.word	0x0000000c
     d48:	0001d364 	.word	0x0001d364

00000d4c <__vsprintf>:
__vsprintf():
/home/palatrauss/optee_with_ftpm_ta/optee_os/lib/libutils/ext/snprintk.c:155
     d4c:	e96d 7e02 	strd	r7, lr, [sp, #-8]!
     d50:	b086      	sub	sp, #24
     d52:	af02      	add	r7, sp, #8
     d54:	60f8      	str	r0, [r7, #12]
     d56:	60b9      	str	r1, [r7, #8]
     d58:	607a      	str	r2, [r7, #4]
/home/palatrauss/optee_with_ftpm_ta/optee_os/lib/libutils/ext/snprintk.c:156
     d5a:	f04f 0300 	mov.w	r3, #0
     d5e:	9301      	str	r3, [sp, #4]
     d60:	687b      	ldr	r3, [r7, #4]
     d62:	9300      	str	r3, [sp, #0]
     d64:	68fb      	ldr	r3, [r7, #12]
     d66:	f04f 0200 	mov.w	r2, #0
     d6a:	f04f 0108 	mov.w	r1, #8
     d6e:	68b8      	ldr	r0, [r7, #8]
     d70:	f000 f856 	bl	e20 <kprintf>
     d74:	4603      	mov	r3, r0
/home/palatrauss/optee_with_ftpm_ta/optee_os/lib/libutils/ext/snprintk.c:157
     d76:	4618      	mov	r0, r3
     d78:	f107 0710 	add.w	r7, r7, #16
     d7c:	46bd      	mov	sp, r7
     d7e:	bd80      	pop	{r7, pc}

00000d80 <uuid2str>:
uuid2str():
/home/palatrauss/optee_with_ftpm_ta/optee_os/lib/libutils/ext/snprintk.c:221
     d80:	f84d 4d14 	str.w	r4, [sp, #-20]!
     d84:	e9cd 5601 	strd	r5, r6, [sp, #4]
     d88:	e9cd 7e03 	strd	r7, lr, [sp, #12]
     d8c:	b095      	sub	sp, #84	; 0x54
     d8e:	af0a      	add	r7, sp, #40	; 0x28
     d90:	61f8      	str	r0, [r7, #28]
     d92:	61b9      	str	r1, [r7, #24]
     d94:	617a      	str	r2, [r7, #20]
/home/palatrauss/optee_with_ftpm_ta/optee_os/lib/libutils/ext/snprintk.c:227
     d96:	697b      	ldr	r3, [r7, #20]
     d98:	627b      	str	r3, [r7, #36]	; 0x24
/home/palatrauss/optee_with_ftpm_ta/optee_os/lib/libutils/ext/snprintk.c:229
     d9a:	6a7b      	ldr	r3, [r7, #36]	; 0x24
     d9c:	681a      	ldr	r2, [r3, #0]
/home/palatrauss/optee_with_ftpm_ta/optee_os/lib/libutils/ext/snprintk.c:231
     d9e:	6a7b      	ldr	r3, [r7, #36]	; 0x24
     da0:	889b      	ldrh	r3, [r3, #4]
/home/palatrauss/optee_with_ftpm_ta/optee_os/lib/libutils/ext/snprintk.c:229
     da2:	4619      	mov	r1, r3
/home/palatrauss/optee_with_ftpm_ta/optee_os/lib/libutils/ext/snprintk.c:231
     da4:	6a7b      	ldr	r3, [r7, #36]	; 0x24
     da6:	88db      	ldrh	r3, [r3, #6]
/home/palatrauss/optee_with_ftpm_ta/optee_os/lib/libutils/ext/snprintk.c:229
     da8:	4618      	mov	r0, r3
/home/palatrauss/optee_with_ftpm_ta/optee_os/lib/libutils/ext/snprintk.c:232
     daa:	6a7b      	ldr	r3, [r7, #36]	; 0x24
     dac:	7a1b      	ldrb	r3, [r3, #8]
/home/palatrauss/optee_with_ftpm_ta/optee_os/lib/libutils/ext/snprintk.c:229
     dae:	461c      	mov	r4, r3
/home/palatrauss/optee_with_ftpm_ta/optee_os/lib/libutils/ext/snprintk.c:232
     db0:	6a7b      	ldr	r3, [r7, #36]	; 0x24
     db2:	7a5b      	ldrb	r3, [r3, #9]
/home/palatrauss/optee_with_ftpm_ta/optee_os/lib/libutils/ext/snprintk.c:229
     db4:	461d      	mov	r5, r3
/home/palatrauss/optee_with_ftpm_ta/optee_os/lib/libutils/ext/snprintk.c:233
     db6:	6a7b      	ldr	r3, [r7, #36]	; 0x24
     db8:	7a9b      	ldrb	r3, [r3, #10]
/home/palatrauss/optee_with_ftpm_ta/optee_os/lib/libutils/ext/snprintk.c:229
     dba:	461e      	mov	r6, r3
/home/palatrauss/optee_with_ftpm_ta/optee_os/lib/libutils/ext/snprintk.c:233
     dbc:	6a7b      	ldr	r3, [r7, #36]	; 0x24
     dbe:	7adb      	ldrb	r3, [r3, #11]
/home/palatrauss/optee_with_ftpm_ta/optee_os/lib/libutils/ext/snprintk.c:229
     dc0:	613b      	str	r3, [r7, #16]
/home/palatrauss/optee_with_ftpm_ta/optee_os/lib/libutils/ext/snprintk.c:234
     dc2:	6a7b      	ldr	r3, [r7, #36]	; 0x24
     dc4:	7b1b      	ldrb	r3, [r3, #12]
/home/palatrauss/optee_with_ftpm_ta/optee_os/lib/libutils/ext/snprintk.c:229
     dc6:	60fb      	str	r3, [r7, #12]
/home/palatrauss/optee_with_ftpm_ta/optee_os/lib/libutils/ext/snprintk.c:234
     dc8:	6a7b      	ldr	r3, [r7, #36]	; 0x24
     dca:	7b5b      	ldrb	r3, [r3, #13]
/home/palatrauss/optee_with_ftpm_ta/optee_os/lib/libutils/ext/snprintk.c:229
     dcc:	60bb      	str	r3, [r7, #8]
/home/palatrauss/optee_with_ftpm_ta/optee_os/lib/libutils/ext/snprintk.c:235
     dce:	6a7b      	ldr	r3, [r7, #36]	; 0x24
     dd0:	7b9b      	ldrb	r3, [r3, #14]
/home/palatrauss/optee_with_ftpm_ta/optee_os/lib/libutils/ext/snprintk.c:229
     dd2:	607b      	str	r3, [r7, #4]
/home/palatrauss/optee_with_ftpm_ta/optee_os/lib/libutils/ext/snprintk.c:235
     dd4:	6a7b      	ldr	r3, [r7, #36]	; 0x24
     dd6:	7bdb      	ldrb	r3, [r3, #15]
/home/palatrauss/optee_with_ftpm_ta/optee_os/lib/libutils/ext/snprintk.c:229
     dd8:	9309      	str	r3, [sp, #36]	; 0x24
     dda:	687b      	ldr	r3, [r7, #4]
     ddc:	9308      	str	r3, [sp, #32]
     dde:	68bb      	ldr	r3, [r7, #8]
     de0:	9307      	str	r3, [sp, #28]
     de2:	68fb      	ldr	r3, [r7, #12]
     de4:	9306      	str	r3, [sp, #24]
     de6:	693b      	ldr	r3, [r7, #16]
     de8:	9305      	str	r3, [sp, #20]
     dea:	9604      	str	r6, [sp, #16]
     dec:	9503      	str	r5, [sp, #12]
     dee:	9402      	str	r4, [sp, #8]
     df0:	9001      	str	r0, [sp, #4]
     df2:	9100      	str	r1, [sp, #0]
     df4:	4613      	mov	r3, r2
     df6:	4a09      	ldr	r2, [pc, #36]	; (e1c <uuid2str+0x9c>)
     df8:	447a      	add	r2, pc
     dfa:	69b9      	ldr	r1, [r7, #24]
     dfc:	69f8      	ldr	r0, [r7, #28]
     dfe:	f7ff ff03 	bl	c08 <snprintk>
     e02:	4603      	mov	r3, r0
/home/palatrauss/optee_with_ftpm_ta/optee_os/lib/libutils/ext/snprintk.c:236
     e04:	4618      	mov	r0, r3
     e06:	f107 072c 	add.w	r7, r7, #44	; 0x2c
     e0a:	46bd      	mov	sp, r7
     e0c:	e9dd 4500 	ldrd	r4, r5, [sp]
     e10:	e9dd 6702 	ldrd	r6, r7, [sp, #8]
     e14:	b004      	add	sp, #16
     e16:	f85d fb04 	ldr.w	pc, [sp], #4
     e1a:	bf00      	nop
     e1c:	0001978c 	.word	0x0001978c

00000e20 <kprintf>:
kprintf():
/home/palatrauss/optee_with_ftpm_ta/optee_os/lib/libutils/ext/snprintk.c:244
     e20:	e96d 4508 	strd	r4, r5, [sp, #-32]!
     e24:	e9cd 7802 	strd	r7, r8, [sp, #8]
     e28:	e9cd 9a04 	strd	r9, sl, [sp, #16]
     e2c:	e9cd be06 	strd	fp, lr, [sp, #24]
     e30:	b0ac      	sub	sp, #176	; 0xb0
     e32:	af00      	add	r7, sp, #0
     e34:	6378      	str	r0, [r7, #52]	; 0x34
     e36:	6339      	str	r1, [r7, #48]	; 0x30
     e38:	62fa      	str	r2, [r7, #44]	; 0x2c
     e3a:	62bb      	str	r3, [r7, #40]	; 0x28
     e3c:	f8df 2bdc 	ldr.w	r2, [pc, #3036]	; 1a1c <kprintf+0xbfc>
     e40:	447a      	add	r2, pc
     e42:	f8df 3bdc 	ldr.w	r3, [pc, #3036]	; 1a20 <kprintf+0xc00>
     e46:	58d3      	ldr	r3, [r2, r3]
     e48:	681b      	ldr	r3, [r3, #0]
     e4a:	f8c7 30ac 	str.w	r3, [r7, #172]	; 0xac
     e4e:	f04f 0300 	mov.w	r3, #0
/home/palatrauss/optee_with_ftpm_ta/optee_os/lib/libutils/ext/snprintk.c:264
     e52:	6b3b      	ldr	r3, [r7, #48]	; 0x30
     e54:	2b08      	cmp	r3, #8
     e56:	d106      	bne.n	e66 <kprintf+0x46>
/home/palatrauss/optee_with_ftpm_ta/optee_os/lib/libutils/ext/snprintk.c:264 (discriminator 1)
     e58:	6afb      	ldr	r3, [r7, #44]	; 0x2c
     e5a:	2b00      	cmp	r3, #0
     e5c:	d003      	beq.n	e66 <kprintf+0x46>
/home/palatrauss/optee_with_ftpm_ta/optee_os/lib/libutils/ext/snprintk.c:265
     e5e:	6afb      	ldr	r3, [r7, #44]	; 0x2c
     e60:	681b      	ldr	r3, [r3, #0]
     e62:	673b      	str	r3, [r7, #112]	; 0x70
     e64:	e002      	b.n	e6c <kprintf+0x4c>
/home/palatrauss/optee_with_ftpm_ta/optee_os/lib/libutils/ext/snprintk.c:267
     e66:	f04f 0300 	mov.w	r3, #0
     e6a:	673b      	str	r3, [r7, #112]	; 0x70
/home/palatrauss/optee_with_ftpm_ta/optee_os/lib/libutils/ext/snprintk.c:269
     e6c:	f04f 0300 	mov.w	r3, #0
     e70:	64bb      	str	r3, [r7, #72]	; 0x48
/home/palatrauss/optee_with_ftpm_ta/optee_os/lib/libutils/ext/snprintk.c:270
     e72:	f04f 0300 	mov.w	r3, #0
     e76:	66bb      	str	r3, [r7, #104]	; 0x68
/home/palatrauss/optee_with_ftpm_ta/optee_os/lib/libutils/ext/snprintk.c:272
     e78:	6b7b      	ldr	r3, [r7, #52]	; 0x34
     e7a:	63fb      	str	r3, [r7, #60]	; 0x3c
/home/palatrauss/optee_with_ftpm_ta/optee_os/lib/libutils/ext/snprintk.c:273
     e7c:	f04f 0300 	mov.w	r3, #0
     e80:	653b      	str	r3, [r7, #80]	; 0x50
/home/palatrauss/optee_with_ftpm_ta/optee_os/lib/libutils/ext/snprintk.c:275
     e82:	f04f 0300 	mov.w	r3, #0
     e86:	66fb      	str	r3, [r7, #108]	; 0x6c
/home/palatrauss/optee_with_ftpm_ta/optee_os/lib/libutils/ext/snprintk.c:281
     e88:	e01b      	b.n	ec2 <kprintf+0xa2>
/home/palatrauss/optee_with_ftpm_ta/optee_os/lib/libutils/ext/snprintk.c:282
     e8a:	6d3b      	ldr	r3, [r7, #80]	; 0x50
     e8c:	f103 0301 	add.w	r3, r3, #1
     e90:	653b      	str	r3, [r7, #80]	; 0x50
/home/palatrauss/optee_with_ftpm_ta/optee_os/lib/libutils/ext/snprintk.c:283
     e92:	6b3b      	ldr	r3, [r7, #48]	; 0x30
     e94:	2b08      	cmp	r3, #8
     e96:	d110      	bne.n	eba <kprintf+0x9a>
/home/palatrauss/optee_with_ftpm_ta/optee_os/lib/libutils/ext/snprintk.c:283 (discriminator 1)
     e98:	6abb      	ldr	r3, [r7, #40]	; 0x28
     e9a:	2b00      	cmp	r3, #0
     e9c:	d00d      	beq.n	eba <kprintf+0x9a>
/home/palatrauss/optee_with_ftpm_ta/optee_os/lib/libutils/ext/snprintk.c:283 (discriminator 2)
     e9e:	6afb      	ldr	r3, [r7, #44]	; 0x2c
     ea0:	2b00      	cmp	r3, #0
     ea2:	d003      	beq.n	eac <kprintf+0x8c>
/home/palatrauss/optee_with_ftpm_ta/optee_os/lib/libutils/ext/snprintk.c:283 (discriminator 4)
     ea4:	6aba      	ldr	r2, [r7, #40]	; 0x28
     ea6:	6f3b      	ldr	r3, [r7, #112]	; 0x70
     ea8:	429a      	cmp	r2, r3
     eaa:	d206      	bcs.n	eba <kprintf+0x9a>
/home/palatrauss/optee_with_ftpm_ta/optee_os/lib/libutils/ext/snprintk.c:283 (discriminator 5)
     eac:	6aba      	ldr	r2, [r7, #40]	; 0x28
     eae:	f102 0301 	add.w	r3, r2, #1
     eb2:	62bb      	str	r3, [r7, #40]	; 0x28
     eb4:	6bfb      	ldr	r3, [r7, #60]	; 0x3c
     eb6:	781b      	ldrb	r3, [r3, #0]
     eb8:	7013      	strb	r3, [r2, #0]
/home/palatrauss/optee_with_ftpm_ta/optee_os/lib/libutils/ext/snprintk.c:281
     eba:	6bfb      	ldr	r3, [r7, #60]	; 0x3c
     ebc:	f103 0301 	add.w	r3, r3, #1
     ec0:	63fb      	str	r3, [r7, #60]	; 0x3c
/home/palatrauss/optee_with_ftpm_ta/optee_os/lib/libutils/ext/snprintk.c:281 (discriminator 1)
     ec2:	6bfb      	ldr	r3, [r7, #60]	; 0x3c
     ec4:	781b      	ldrb	r3, [r3, #0]
     ec6:	2b25      	cmp	r3, #37	; 0x25
     ec8:	d003      	beq.n	ed2 <kprintf+0xb2>
/home/palatrauss/optee_with_ftpm_ta/optee_os/lib/libutils/ext/snprintk.c:281 (discriminator 2)
     eca:	6bfb      	ldr	r3, [r7, #60]	; 0x3c
     ecc:	781b      	ldrb	r3, [r3, #0]
     ece:	2b00      	cmp	r3, #0
     ed0:	d1db      	bne.n	e8a <kprintf+0x6a>
/home/palatrauss/optee_with_ftpm_ta/optee_os/lib/libutils/ext/snprintk.c:285
     ed2:	6bfb      	ldr	r3, [r7, #60]	; 0x3c
     ed4:	781b      	ldrb	r3, [r3, #0]
     ed6:	2b00      	cmp	r3, #0
     ed8:	f000 86bb 	beq.w	1c52 <kprintf+0xe32>
/home/palatrauss/optee_with_ftpm_ta/optee_os/lib/libutils/ext/snprintk.c:288
     edc:	6bfb      	ldr	r3, [r7, #60]	; 0x3c
     ede:	f103 0301 	add.w	r3, r3, #1
     ee2:	63fb      	str	r3, [r7, #60]	; 0x3c
/home/palatrauss/optee_with_ftpm_ta/optee_os/lib/libutils/ext/snprintk.c:290
     ee4:	f04f 0300 	mov.w	r3, #0
     ee8:	64fb      	str	r3, [r7, #76]	; 0x4c
/home/palatrauss/optee_with_ftpm_ta/optee_os/lib/libutils/ext/snprintk.c:291
     eea:	f04f 0300 	mov.w	r3, #0
     eee:	663b      	str	r3, [r7, #96]	; 0x60
/home/palatrauss/optee_with_ftpm_ta/optee_os/lib/libutils/ext/snprintk.c:292
     ef0:	f04f 0300 	mov.w	r3, #0
     ef4:	657b      	str	r3, [r7, #84]	; 0x54
/home/palatrauss/optee_with_ftpm_ta/optee_os/lib/libutils/ext/snprintk.c:293
     ef6:	f04f 33ff 	mov.w	r3, #4294967295	; 0xffffffff
     efa:	65bb      	str	r3, [r7, #88]	; 0x58
/home/palatrauss/optee_with_ftpm_ta/optee_os/lib/libutils/ext/snprintk.c:294
     efc:	f04f 0300 	mov.w	r3, #0
     f00:	f887 303b 	strb.w	r3, [r7, #59]	; 0x3b
/home/palatrauss/optee_with_ftpm_ta/optee_os/lib/libutils/ext/snprintk.c:296
     f04:	6bfa      	ldr	r2, [r7, #60]	; 0x3c
     f06:	f102 0301 	add.w	r3, r2, #1
     f0a:	63fb      	str	r3, [r7, #60]	; 0x3c
     f0c:	7813      	ldrb	r3, [r2, #0]
     f0e:	643b      	str	r3, [r7, #64]	; 0x40
/home/palatrauss/optee_with_ftpm_ta/optee_os/lib/libutils/ext/snprintk.c:297
     f10:	6c3b      	ldr	r3, [r7, #64]	; 0x40
     f12:	f1a3 0320 	sub.w	r3, r3, #32
     f16:	2b5a      	cmp	r3, #90	; 0x5a
     f18:	f200 855e 	bhi.w	19d8 <kprintf+0xbb8>
     f1c:	a202      	add	r2, pc, #8	; (adr r2, f28 <kprintf+0x108>)
     f1e:	f852 3023 	ldr.w	r3, [r2, r3, lsl #2]
     f22:	441a      	add	r2, r3
     f24:	4710      	bx	r2
     f26:	bf00      	nop
     f28:	0000016d 	.word	0x0000016d
     f2c:	00000ab1 	.word	0x00000ab1
     f30:	00000ab1 	.word	0x00000ab1
     f34:	00000181 	.word	0x00000181
     f38:	00000ab1 	.word	0x00000ab1
     f3c:	00000ab1 	.word	0x00000ab1
     f40:	00000ab1 	.word	0x00000ab1
     f44:	00000ab1 	.word	0x00000ab1
     f48:	00000ab1 	.word	0x00000ab1
     f4c:	00000ab1 	.word	0x00000ab1
     f50:	0000018b 	.word	0x0000018b
     f54:	000001b5 	.word	0x000001b5
     f58:	00000ab1 	.word	0x00000ab1
     f5c:	000001ab 	.word	0x000001ab
     f60:	000001bf 	.word	0x000001bf
     f64:	00000ab1 	.word	0x00000ab1
     f68:	0000022d 	.word	0x0000022d
     f6c:	00000237 	.word	0x00000237
     f70:	00000237 	.word	0x00000237
     f74:	00000237 	.word	0x00000237
     f78:	00000237 	.word	0x00000237
     f7c:	00000237 	.word	0x00000237
     f80:	00000237 	.word	0x00000237
     f84:	00000237 	.word	0x00000237
     f88:	00000237 	.word	0x00000237
     f8c:	00000237 	.word	0x00000237
     f90:	00000ab1 	.word	0x00000ab1
     f94:	00000ab1 	.word	0x00000ab1
     f98:	00000ab1 	.word	0x00000ab1
     f9c:	00000ab1 	.word	0x00000ab1
     fa0:	00000ab1 	.word	0x00000ab1
     fa4:	00000ab1 	.word	0x00000ab1
     fa8:	00000ab1 	.word	0x00000ab1
     fac:	00000ab1 	.word	0x00000ab1
     fb0:	00000ab1 	.word	0x00000ab1
     fb4:	00000ab1 	.word	0x00000ab1
     fb8:	000002f3 	.word	0x000002f3
     fbc:	00000ab1 	.word	0x00000ab1
     fc0:	00000ab1 	.word	0x00000ab1
     fc4:	00000ab1 	.word	0x00000ab1
     fc8:	00000ab1 	.word	0x00000ab1
     fcc:	00000ab1 	.word	0x00000ab1
     fd0:	00000ab1 	.word	0x00000ab1
     fd4:	00000ab1 	.word	0x00000ab1
     fd8:	00000ab1 	.word	0x00000ab1
     fdc:	00000ab1 	.word	0x00000ab1
     fe0:	00000ab1 	.word	0x00000ab1
     fe4:	0000051b 	.word	0x0000051b
     fe8:	00000ab1 	.word	0x00000ab1
     fec:	00000ab1 	.word	0x00000ab1
     ff0:	00000ab1 	.word	0x00000ab1
     ff4:	00000ab1 	.word	0x00000ab1
     ff8:	00000ab1 	.word	0x00000ab1
     ffc:	00000715 	.word	0x00000715
    1000:	00000ab1 	.word	0x00000ab1
    1004:	00000ab1 	.word	0x00000ab1
    1008:	00000813 	.word	0x00000813
    100c:	00000ab1 	.word	0x00000ab1
    1010:	00000ab1 	.word	0x00000ab1
    1014:	00000ab1 	.word	0x00000ab1
    1018:	00000ab1 	.word	0x00000ab1
    101c:	00000ab1 	.word	0x00000ab1
    1020:	00000ab1 	.word	0x00000ab1
    1024:	00000ab1 	.word	0x00000ab1
    1028:	00000ab1 	.word	0x00000ab1
    102c:	00000ab1 	.word	0x00000ab1
    1030:	00000ab1 	.word	0x00000ab1
    1034:	000002c9 	.word	0x000002c9
    1038:	000002fb 	.word	0x000002fb
    103c:	00000ab1 	.word	0x00000ab1
    1040:	00000ab1 	.word	0x00000ab1
    1044:	00000ab1 	.word	0x00000ab1
    1048:	00000273 	.word	0x00000273
    104c:	000002fb 	.word	0x000002fb
    1050:	0000027d 	.word	0x0000027d
    1054:	00000ab1 	.word	0x00000ab1
    1058:	00000287 	.word	0x00000287
    105c:	00000ab1 	.word	0x00000ab1
    1060:	00000427 	.word	0x00000427
    1064:	00000523 	.word	0x00000523
    1068:	00000619 	.word	0x00000619
    106c:	000002ab 	.word	0x000002ab
    1070:	00000ab1 	.word	0x00000ab1
    1074:	000006a9 	.word	0x000006a9
    1078:	000002b5 	.word	0x000002b5
    107c:	0000071d 	.word	0x0000071d
    1080:	00000ab1 	.word	0x00000ab1
    1084:	00000ab1 	.word	0x00000ab1
    1088:	0000081b 	.word	0x0000081b
    108c:	00000ab1 	.word	0x00000ab1
    1090:	000002bf 	.word	0x000002bf
/home/palatrauss/optee_with_ftpm_ta/optee_os/lib/libutils/ext/snprintk.c:304
    1094:	f897 303b 	ldrb.w	r3, [r7, #59]	; 0x3b
    1098:	2b00      	cmp	r3, #0
    109a:	f47f af33 	bne.w	f04 <kprintf+0xe4>
/home/palatrauss/optee_with_ftpm_ta/optee_os/lib/libutils/ext/snprintk.c:305
    109e:	f04f 0320 	mov.w	r3, #32
    10a2:	f887 303b 	strb.w	r3, [r7, #59]	; 0x3b
/home/palatrauss/optee_with_ftpm_ta/optee_os/lib/libutils/ext/snprintk.c:306
    10a6:	e72d      	b.n	f04 <kprintf+0xe4>
/home/palatrauss/optee_with_ftpm_ta/optee_os/lib/libutils/ext/snprintk.c:308
    10a8:	6cfb      	ldr	r3, [r7, #76]	; 0x4c
    10aa:	f043 0301 	orr.w	r3, r3, #1
    10ae:	64fb      	str	r3, [r7, #76]	; 0x4c
/home/palatrauss/optee_with_ftpm_ta/optee_os/lib/libutils/ext/snprintk.c:309
    10b0:	e728      	b.n	f04 <kprintf+0xe4>
/home/palatrauss/optee_with_ftpm_ta/optee_os/lib/libutils/ext/snprintk.c:317
    10b2:	f8d7 20d0 	ldr.w	r2, [r7, #208]	; 0xd0
    10b6:	f102 0304 	add.w	r3, r2, #4
    10ba:	f8c7 30d0 	str.w	r3, [r7, #208]	; 0xd0
    10be:	6813      	ldr	r3, [r2, #0]
    10c0:	657b      	str	r3, [r7, #84]	; 0x54
    10c2:	6d7b      	ldr	r3, [r7, #84]	; 0x54
    10c4:	2b00      	cmp	r3, #0
    10c6:	db00      	blt.n	10ca <kprintf+0x2aa>
/home/palatrauss/optee_with_ftpm_ta/optee_os/lib/libutils/ext/snprintk.c:318
    10c8:	e71c      	b.n	f04 <kprintf+0xe4>
/home/palatrauss/optee_with_ftpm_ta/optee_os/lib/libutils/ext/snprintk.c:319
    10ca:	6d7b      	ldr	r3, [r7, #84]	; 0x54
    10cc:	f1c3 0300 	rsb	r3, r3, #0
    10d0:	657b      	str	r3, [r7, #84]	; 0x54
/home/palatrauss/optee_with_ftpm_ta/optee_os/lib/libutils/ext/snprintk.c:322
    10d2:	6cfb      	ldr	r3, [r7, #76]	; 0x4c
    10d4:	f043 0304 	orr.w	r3, r3, #4
    10d8:	64fb      	str	r3, [r7, #76]	; 0x4c
/home/palatrauss/optee_with_ftpm_ta/optee_os/lib/libutils/ext/snprintk.c:323
    10da:	e713      	b.n	f04 <kprintf+0xe4>
/home/palatrauss/optee_with_ftpm_ta/optee_os/lib/libutils/ext/snprintk.c:325
    10dc:	f04f 032b 	mov.w	r3, #43	; 0x2b
    10e0:	f887 303b 	strb.w	r3, [r7, #59]	; 0x3b
/home/palatrauss/optee_with_ftpm_ta/optee_os/lib/libutils/ext/snprintk.c:326
    10e4:	e70e      	b.n	f04 <kprintf+0xe4>
/home/palatrauss/optee_with_ftpm_ta/optee_os/lib/libutils/ext/snprintk.c:328
    10e6:	6bfa      	ldr	r2, [r7, #60]	; 0x3c
    10e8:	f102 0301 	add.w	r3, r2, #1
    10ec:	63fb      	str	r3, [r7, #60]	; 0x3c
    10ee:	7813      	ldrb	r3, [r2, #0]
    10f0:	643b      	str	r3, [r7, #64]	; 0x40
    10f2:	6c3b      	ldr	r3, [r7, #64]	; 0x40
    10f4:	2b2a      	cmp	r3, #42	; 0x2a
    10f6:	d10c      	bne.n	1112 <kprintf+0x2f2>
/home/palatrauss/optee_with_ftpm_ta/optee_os/lib/libutils/ext/snprintk.c:329
    10f8:	f8d7 20d0 	ldr.w	r2, [r7, #208]	; 0xd0
    10fc:	f102 0304 	add.w	r3, r2, #4
    1100:	f8c7 30d0 	str.w	r3, [r7, #208]	; 0xd0
    1104:	6813      	ldr	r3, [r2, #0]
    1106:	647b      	str	r3, [r7, #68]	; 0x44
/home/palatrauss/optee_with_ftpm_ta/optee_os/lib/libutils/ext/snprintk.c:330
    1108:	6c7b      	ldr	r3, [r7, #68]	; 0x44
    110a:	ea43 73e3 	orr.w	r3, r3, r3, asr #31
    110e:	65bb      	str	r3, [r7, #88]	; 0x58
/home/palatrauss/optee_with_ftpm_ta/optee_os/lib/libutils/ext/snprintk.c:331
    1110:	e6f8      	b.n	f04 <kprintf+0xe4>
/home/palatrauss/optee_with_ftpm_ta/optee_os/lib/libutils/ext/snprintk.c:333
    1112:	f04f 0300 	mov.w	r3, #0
    1116:	647b      	str	r3, [r7, #68]	; 0x44
/home/palatrauss/optee_with_ftpm_ta/optee_os/lib/libutils/ext/snprintk.c:334
    1118:	e012      	b.n	1140 <kprintf+0x320>
/home/palatrauss/optee_with_ftpm_ta/optee_os/lib/libutils/ext/snprintk.c:335
    111a:	6c7a      	ldr	r2, [r7, #68]	; 0x44
    111c:	4613      	mov	r3, r2
    111e:	ea4f 0383 	mov.w	r3, r3, lsl #2
    1122:	4413      	add	r3, r2
    1124:	ea4f 0343 	mov.w	r3, r3, lsl #1
    1128:	461a      	mov	r2, r3
    112a:	6c3b      	ldr	r3, [r7, #64]	; 0x40
    112c:	f1a3 0330 	sub.w	r3, r3, #48	; 0x30
    1130:	4413      	add	r3, r2
    1132:	647b      	str	r3, [r7, #68]	; 0x44
/home/palatrauss/optee_with_ftpm_ta/optee_os/lib/libutils/ext/snprintk.c:336
    1134:	6bfa      	ldr	r2, [r7, #60]	; 0x3c
    1136:	f102 0301 	add.w	r3, r2, #1
    113a:	63fb      	str	r3, [r7, #60]	; 0x3c
    113c:	7813      	ldrb	r3, [r2, #0]
    113e:	643b      	str	r3, [r7, #64]	; 0x40
/home/palatrauss/optee_with_ftpm_ta/optee_os/lib/libutils/ext/snprintk.c:334
    1140:	6c3b      	ldr	r3, [r7, #64]	; 0x40
    1142:	f1a3 0330 	sub.w	r3, r3, #48	; 0x30
    1146:	2b09      	cmp	r3, #9
    1148:	d9e7      	bls.n	111a <kprintf+0x2fa>
/home/palatrauss/optee_with_ftpm_ta/optee_os/lib/libutils/ext/snprintk.c:338
    114a:	6c7b      	ldr	r3, [r7, #68]	; 0x44
    114c:	ea43 73e3 	orr.w	r3, r3, r3, asr #31
    1150:	65bb      	str	r3, [r7, #88]	; 0x58
/home/palatrauss/optee_with_ftpm_ta/optee_os/lib/libutils/ext/snprintk.c:339
    1152:	e6dd      	b.n	f10 <kprintf+0xf0>
/home/palatrauss/optee_with_ftpm_ta/optee_os/lib/libutils/ext/snprintk.c:346
    1154:	6cfb      	ldr	r3, [r7, #76]	; 0x4c
    1156:	f443 6380 	orr.w	r3, r3, #1024	; 0x400
    115a:	64fb      	str	r3, [r7, #76]	; 0x4c
/home/palatrauss/optee_with_ftpm_ta/optee_os/lib/libutils/ext/snprintk.c:347
    115c:	e6d2      	b.n	f04 <kprintf+0xe4>
/home/palatrauss/optee_with_ftpm_ta/optee_os/lib/libutils/ext/snprintk.c:350
    115e:	f04f 0300 	mov.w	r3, #0
    1162:	647b      	str	r3, [r7, #68]	; 0x44
/home/palatrauss/optee_with_ftpm_ta/optee_os/lib/libutils/ext/snprintk.c:352 (discriminator 1)
    1164:	6c7a      	ldr	r2, [r7, #68]	; 0x44
    1166:	4613      	mov	r3, r2
    1168:	ea4f 0383 	mov.w	r3, r3, lsl #2
    116c:	4413      	add	r3, r2
    116e:	ea4f 0343 	mov.w	r3, r3, lsl #1
    1172:	461a      	mov	r2, r3
    1174:	6c3b      	ldr	r3, [r7, #64]	; 0x40
    1176:	f1a3 0330 	sub.w	r3, r3, #48	; 0x30
    117a:	4413      	add	r3, r2
    117c:	647b      	str	r3, [r7, #68]	; 0x44
/home/palatrauss/optee_with_ftpm_ta/optee_os/lib/libutils/ext/snprintk.c:353 (discriminator 1)
    117e:	6bfa      	ldr	r2, [r7, #60]	; 0x3c
    1180:	f102 0301 	add.w	r3, r2, #1
    1184:	63fb      	str	r3, [r7, #60]	; 0x3c
    1186:	7813      	ldrb	r3, [r2, #0]
    1188:	643b      	str	r3, [r7, #64]	; 0x40
/home/palatrauss/optee_with_ftpm_ta/optee_os/lib/libutils/ext/snprintk.c:354 (discriminator 1)
    118a:	6c3b      	ldr	r3, [r7, #64]	; 0x40
    118c:	f1a3 0330 	sub.w	r3, r3, #48	; 0x30
    1190:	2b09      	cmp	r3, #9
    1192:	d9e7      	bls.n	1164 <kprintf+0x344>
/home/palatrauss/optee_with_ftpm_ta/optee_os/lib/libutils/ext/snprintk.c:355
    1194:	6c7b      	ldr	r3, [r7, #68]	; 0x44
    1196:	657b      	str	r3, [r7, #84]	; 0x54
/home/palatrauss/optee_with_ftpm_ta/optee_os/lib/libutils/ext/snprintk.c:356
    1198:	e6ba      	b.n	f10 <kprintf+0xf0>
/home/palatrauss/optee_with_ftpm_ta/optee_os/lib/libutils/ext/snprintk.c:358
    119a:	6cfb      	ldr	r3, [r7, #76]	; 0x4c
    119c:	f043 0340 	orr.w	r3, r3, #64	; 0x40
    11a0:	64fb      	str	r3, [r7, #76]	; 0x4c
/home/palatrauss/optee_with_ftpm_ta/optee_os/lib/libutils/ext/snprintk.c:359
    11a2:	e6af      	b.n	f04 <kprintf+0xe4>
/home/palatrauss/optee_with_ftpm_ta/optee_os/lib/libutils/ext/snprintk.c:361
    11a4:	6cfb      	ldr	r3, [r7, #76]	; 0x4c
    11a6:	f043 0380 	orr.w	r3, r3, #128	; 0x80
    11aa:	64fb      	str	r3, [r7, #76]	; 0x4c
/home/palatrauss/optee_with_ftpm_ta/optee_os/lib/libutils/ext/snprintk.c:362
    11ac:	e6aa      	b.n	f04 <kprintf+0xe4>
/home/palatrauss/optee_with_ftpm_ta/optee_os/lib/libutils/ext/snprintk.c:364
    11ae:	6bfb      	ldr	r3, [r7, #60]	; 0x3c
    11b0:	781b      	ldrb	r3, [r3, #0]
    11b2:	2b6c      	cmp	r3, #108	; 0x6c
    11b4:	d108      	bne.n	11c8 <kprintf+0x3a8>
/home/palatrauss/optee_with_ftpm_ta/optee_os/lib/libutils/ext/snprintk.c:365
    11b6:	6bfb      	ldr	r3, [r7, #60]	; 0x3c
    11b8:	f103 0301 	add.w	r3, r3, #1
    11bc:	63fb      	str	r3, [r7, #60]	; 0x3c
/home/palatrauss/optee_with_ftpm_ta/optee_os/lib/libutils/ext/snprintk.c:366
    11be:	6cfb      	ldr	r3, [r7, #76]	; 0x4c
    11c0:	f043 0320 	orr.w	r3, r3, #32
    11c4:	64fb      	str	r3, [r7, #76]	; 0x4c
    11c6:	e69d      	b.n	f04 <kprintf+0xe4>
/home/palatrauss/optee_with_ftpm_ta/optee_os/lib/libutils/ext/snprintk.c:368
    11c8:	6cfb      	ldr	r3, [r7, #76]	; 0x4c
    11ca:	f043 0310 	orr.w	r3, r3, #16
    11ce:	64fb      	str	r3, [r7, #76]	; 0x4c
/home/palatrauss/optee_with_ftpm_ta/optee_os/lib/libutils/ext/snprintk.c:370
    11d0:	e698      	b.n	f04 <kprintf+0xe4>
/home/palatrauss/optee_with_ftpm_ta/optee_os/lib/libutils/ext/snprintk.c:372
    11d2:	6cfb      	ldr	r3, [r7, #76]	; 0x4c
    11d4:	f043 0320 	orr.w	r3, r3, #32
    11d8:	64fb      	str	r3, [r7, #76]	; 0x4c
/home/palatrauss/optee_with_ftpm_ta/optee_os/lib/libutils/ext/snprintk.c:373
    11da:	e693      	b.n	f04 <kprintf+0xe4>
/home/palatrauss/optee_with_ftpm_ta/optee_os/lib/libutils/ext/snprintk.c:375
    11dc:	6cfb      	ldr	r3, [r7, #76]	; 0x4c
    11de:	f443 7380 	orr.w	r3, r3, #256	; 0x100
    11e2:	64fb      	str	r3, [r7, #76]	; 0x4c
/home/palatrauss/optee_with_ftpm_ta/optee_os/lib/libutils/ext/snprintk.c:376
    11e4:	e68e      	b.n	f04 <kprintf+0xe4>
/home/palatrauss/optee_with_ftpm_ta/optee_os/lib/libutils/ext/snprintk.c:378
    11e6:	6cfb      	ldr	r3, [r7, #76]	; 0x4c
    11e8:	f443 7300 	orr.w	r3, r3, #512	; 0x200
    11ec:	64fb      	str	r3, [r7, #76]	; 0x4c
/home/palatrauss/optee_with_ftpm_ta/optee_os/lib/libutils/ext/snprintk.c:379
    11ee:	e689      	b.n	f04 <kprintf+0xe4>
/home/palatrauss/optee_with_ftpm_ta/optee_os/lib/libutils/ext/snprintk.c:381
    11f0:	f8d7 20d0 	ldr.w	r2, [r7, #208]	; 0xd0
    11f4:	f102 0304 	add.w	r3, r2, #4
    11f8:	f8c7 30d0 	str.w	r3, [r7, #208]	; 0xd0
    11fc:	6812      	ldr	r2, [r2, #0]
    11fe:	f107 0384 	add.w	r3, r7, #132	; 0x84
    1202:	64bb      	str	r3, [r7, #72]	; 0x48
    1204:	b2d3      	uxtb	r3, r2
    1206:	6cba      	ldr	r2, [r7, #72]	; 0x48
    1208:	7013      	strb	r3, [r2, #0]
/home/palatrauss/optee_with_ftpm_ta/optee_os/lib/libutils/ext/snprintk.c:382
    120a:	f04f 0301 	mov.w	r3, #1
    120e:	66bb      	str	r3, [r7, #104]	; 0x68
/home/palatrauss/optee_with_ftpm_ta/optee_os/lib/libutils/ext/snprintk.c:383
    1210:	f04f 0300 	mov.w	r3, #0
    1214:	f887 303b 	strb.w	r3, [r7, #59]	; 0x3b
/home/palatrauss/optee_with_ftpm_ta/optee_os/lib/libutils/ext/snprintk.c:384
    1218:	e3f1      	b.n	19fe <kprintf+0xbde>
/home/palatrauss/optee_with_ftpm_ta/optee_os/lib/libutils/ext/snprintk.c:386
    121a:	6cfb      	ldr	r3, [r7, #76]	; 0x4c
    121c:	f043 0310 	orr.w	r3, r3, #16
    1220:	64fb      	str	r3, [r7, #76]	; 0x4c
/home/palatrauss/optee_with_ftpm_ta/optee_os/lib/libutils/ext/snprintk.c:390
    1222:	6cfb      	ldr	r3, [r7, #76]	; 0x4c
    1224:	f003 0380 	and.w	r3, r3, #128	; 0x80
    1228:	2b00      	cmp	r3, #0
    122a:	d00e      	beq.n	124a <kprintf+0x42a>
    122c:	f8d7 30d0 	ldr.w	r3, [r7, #208]	; 0xd0
    1230:	f103 0307 	add.w	r3, r3, #7
    1234:	f023 0207 	bic.w	r2, r3, #7
    1238:	f102 0308 	add.w	r3, r2, #8
    123c:	f8c7 30d0 	str.w	r3, [r7, #208]	; 0xd0
    1240:	e9d2 2300 	ldrd	r2, r3, [r2]
    1244:	e9c7 2308 	strd	r2, r3, [r7, #32]
    1248:	e064      	b.n	1314 <kprintf+0x4f4>
/home/palatrauss/optee_with_ftpm_ta/optee_os/lib/libutils/ext/snprintk.c:390 (discriminator 2)
    124a:	6cfb      	ldr	r3, [r7, #76]	; 0x4c
    124c:	f403 7380 	and.w	r3, r3, #256	; 0x100
    1250:	2b00      	cmp	r3, #0
    1252:	d00b      	beq.n	126c <kprintf+0x44c>
/home/palatrauss/optee_with_ftpm_ta/optee_os/lib/libutils/ext/snprintk.c:390
    1254:	f8d7 20d0 	ldr.w	r2, [r7, #208]	; 0xd0
    1258:	f102 0304 	add.w	r3, r2, #4
    125c:	f8c7 30d0 	str.w	r3, [r7, #208]	; 0xd0
    1260:	6813      	ldr	r3, [r2, #0]
    1262:	ea4f 72e3 	mov.w	r2, r3, asr #31
    1266:	623b      	str	r3, [r7, #32]
    1268:	627a      	str	r2, [r7, #36]	; 0x24
    126a:	e053      	b.n	1314 <kprintf+0x4f4>
/home/palatrauss/optee_with_ftpm_ta/optee_os/lib/libutils/ext/snprintk.c:390 (discriminator 5)
    126c:	6cfb      	ldr	r3, [r7, #76]	; 0x4c
    126e:	f403 7300 	and.w	r3, r3, #512	; 0x200
    1272:	2b00      	cmp	r3, #0
    1274:	d00b      	beq.n	128e <kprintf+0x46e>
/home/palatrauss/optee_with_ftpm_ta/optee_os/lib/libutils/ext/snprintk.c:390
    1276:	f8d7 20d0 	ldr.w	r2, [r7, #208]	; 0xd0
    127a:	f102 0304 	add.w	r3, r2, #4
    127e:	f8c7 30d0 	str.w	r3, [r7, #208]	; 0xd0
    1282:	6813      	ldr	r3, [r2, #0]
    1284:	ea4f 72e3 	mov.w	r2, r3, asr #31
    1288:	623b      	str	r3, [r7, #32]
    128a:	627a      	str	r2, [r7, #36]	; 0x24
    128c:	e042      	b.n	1314 <kprintf+0x4f4>
/home/palatrauss/optee_with_ftpm_ta/optee_os/lib/libutils/ext/snprintk.c:390 (discriminator 8)
    128e:	6cfb      	ldr	r3, [r7, #76]	; 0x4c
    1290:	f003 0320 	and.w	r3, r3, #32
    1294:	2b00      	cmp	r3, #0
    1296:	d00e      	beq.n	12b6 <kprintf+0x496>
/home/palatrauss/optee_with_ftpm_ta/optee_os/lib/libutils/ext/snprintk.c:390
    1298:	f8d7 30d0 	ldr.w	r3, [r7, #208]	; 0xd0
    129c:	f103 0307 	add.w	r3, r3, #7
    12a0:	f023 0207 	bic.w	r2, r3, #7
    12a4:	f102 0308 	add.w	r3, r2, #8
    12a8:	f8c7 30d0 	str.w	r3, [r7, #208]	; 0xd0
    12ac:	e9d2 2300 	ldrd	r2, r3, [r2]
    12b0:	e9c7 2308 	strd	r2, r3, [r7, #32]
    12b4:	e02e      	b.n	1314 <kprintf+0x4f4>
/home/palatrauss/optee_with_ftpm_ta/optee_os/lib/libutils/ext/snprintk.c:390 (discriminator 11)
    12b6:	6cfb      	ldr	r3, [r7, #76]	; 0x4c
    12b8:	f003 0310 	and.w	r3, r3, #16
    12bc:	2b00      	cmp	r3, #0
    12be:	d00b      	beq.n	12d8 <kprintf+0x4b8>
/home/palatrauss/optee_with_ftpm_ta/optee_os/lib/libutils/ext/snprintk.c:390
    12c0:	f8d7 20d0 	ldr.w	r2, [r7, #208]	; 0xd0
    12c4:	f102 0304 	add.w	r3, r2, #4
    12c8:	f8c7 30d0 	str.w	r3, [r7, #208]	; 0xd0
    12cc:	6813      	ldr	r3, [r2, #0]
    12ce:	ea4f 72e3 	mov.w	r2, r3, asr #31
    12d2:	623b      	str	r3, [r7, #32]
    12d4:	627a      	str	r2, [r7, #36]	; 0x24
    12d6:	e01d      	b.n	1314 <kprintf+0x4f4>
/home/palatrauss/optee_with_ftpm_ta/optee_os/lib/libutils/ext/snprintk.c:390 (discriminator 14)
    12d8:	6cfb      	ldr	r3, [r7, #76]	; 0x4c
    12da:	f003 0340 	and.w	r3, r3, #64	; 0x40
    12de:	2b00      	cmp	r3, #0
    12e0:	d00d      	beq.n	12fe <kprintf+0x4de>
/home/palatrauss/optee_with_ftpm_ta/optee_os/lib/libutils/ext/snprintk.c:390
    12e2:	f8d7 20d0 	ldr.w	r2, [r7, #208]	; 0xd0
    12e6:	f102 0304 	add.w	r3, r2, #4
    12ea:	f8c7 30d0 	str.w	r3, [r7, #208]	; 0xd0
    12ee:	6813      	ldr	r3, [r2, #0]
    12f0:	b21b      	sxth	r3, r3
    12f2:	b21b      	sxth	r3, r3
    12f4:	ea4f 72e3 	mov.w	r2, r3, asr #31
    12f8:	623b      	str	r3, [r7, #32]
    12fa:	627a      	str	r2, [r7, #36]	; 0x24
    12fc:	e00a      	b.n	1314 <kprintf+0x4f4>
    12fe:	f8d7 20d0 	ldr.w	r2, [r7, #208]	; 0xd0
    1302:	f102 0304 	add.w	r3, r2, #4
    1306:	f8c7 30d0 	str.w	r3, [r7, #208]	; 0xd0
    130a:	6813      	ldr	r3, [r2, #0]
    130c:	ea4f 72e3 	mov.w	r2, r3, asr #31
    1310:	623b      	str	r3, [r7, #32]
    1312:	627a      	str	r2, [r7, #36]	; 0x24
/home/palatrauss/optee_with_ftpm_ta/optee_os/lib/libutils/ext/snprintk.c:390 (discriminator 24)
    1314:	e9d7 2308 	ldrd	r2, r3, [r7, #32]
    1318:	e9c7 231e 	strd	r2, r3, [r7, #120]	; 0x78
/home/palatrauss/optee_with_ftpm_ta/optee_os/lib/libutils/ext/snprintk.c:391 (discriminator 24)
    131c:	e9d7 231e 	ldrd	r2, r3, [r7, #120]	; 0x78
    1320:	2b00      	cmp	r3, #0
    1322:	da10      	bge.n	1346 <kprintf+0x526>
/home/palatrauss/optee_with_ftpm_ta/optee_os/lib/libutils/ext/snprintk.c:392
    1324:	e9d7 231e 	ldrd	r2, r3, [r7, #120]	; 0x78
    1328:	f04f 0100 	mov.w	r1, #0
    132c:	4250      	negs	r0, r2
    132e:	60b8      	str	r0, [r7, #8]
    1330:	eb61 0303 	sbc.w	r3, r1, r3
    1334:	60fb      	str	r3, [r7, #12]
    1336:	e9d7 2302 	ldrd	r2, r3, [r7, #8]
    133a:	e9c7 231e 	strd	r2, r3, [r7, #120]	; 0x78
/home/palatrauss/optee_with_ftpm_ta/optee_os/lib/libutils/ext/snprintk.c:393
    133e:	f04f 032d 	mov.w	r3, #45	; 0x2d
    1342:	f887 303b 	strb.w	r3, [r7, #59]	; 0x3b
/home/palatrauss/optee_with_ftpm_ta/optee_os/lib/libutils/ext/snprintk.c:395
    1346:	f04f 0301 	mov.w	r3, #1
    134a:	65fb      	str	r3, [r7, #92]	; 0x5c
/home/palatrauss/optee_with_ftpm_ta/optee_os/lib/libutils/ext/snprintk.c:396
    134c:	e289      	b.n	1862 <kprintf+0xa42>
/home/palatrauss/optee_with_ftpm_ta/optee_os/lib/libutils/ext/snprintk.c:398
    134e:	6cfb      	ldr	r3, [r7, #76]	; 0x4c
    1350:	f003 0380 	and.w	r3, r3, #128	; 0x80
    1354:	2b00      	cmp	r3, #0
    1356:	d011      	beq.n	137c <kprintf+0x55c>
/home/palatrauss/optee_with_ftpm_ta/optee_os/lib/libutils/ext/snprintk.c:399
    1358:	f8d7 20d0 	ldr.w	r2, [r7, #208]	; 0xd0
    135c:	f102 0304 	add.w	r3, r2, #4
    1360:	f8c7 30d0 	str.w	r3, [r7, #208]	; 0xd0
    1364:	6811      	ldr	r1, [r2, #0]
    1366:	6d3b      	ldr	r3, [r7, #80]	; 0x50
    1368:	ea4f 72e3 	mov.w	r2, r3, asr #31
    136c:	61bb      	str	r3, [r7, #24]
    136e:	61fa      	str	r2, [r7, #28]
    1370:	e9d7 2306 	ldrd	r2, r3, [r7, #24]
    1374:	e9c1 2300 	strd	r2, r3, [r1]
/home/palatrauss/optee_with_ftpm_ta/optee_os/lib/libutils/ext/snprintk.c:412
    1378:	f000 bc69 	b.w	1c4e <kprintf+0xe2e>
/home/palatrauss/optee_with_ftpm_ta/optee_os/lib/libutils/ext/snprintk.c:400
    137c:	6cfb      	ldr	r3, [r7, #76]	; 0x4c
    137e:	f403 7380 	and.w	r3, r3, #256	; 0x100
    1382:	2b00      	cmp	r3, #0
    1384:	d00a      	beq.n	139c <kprintf+0x57c>
/home/palatrauss/optee_with_ftpm_ta/optee_os/lib/libutils/ext/snprintk.c:401
    1386:	f8d7 20d0 	ldr.w	r2, [r7, #208]	; 0xd0
    138a:	f102 0304 	add.w	r3, r2, #4
    138e:	f8c7 30d0 	str.w	r3, [r7, #208]	; 0xd0
    1392:	6812      	ldr	r2, [r2, #0]
    1394:	6d3b      	ldr	r3, [r7, #80]	; 0x50
    1396:	6013      	str	r3, [r2, #0]
/home/palatrauss/optee_with_ftpm_ta/optee_os/lib/libutils/ext/snprintk.c:412
    1398:	f000 bc59 	b.w	1c4e <kprintf+0xe2e>
/home/palatrauss/optee_with_ftpm_ta/optee_os/lib/libutils/ext/snprintk.c:402
    139c:	6cfb      	ldr	r3, [r7, #76]	; 0x4c
    139e:	f403 7300 	and.w	r3, r3, #512	; 0x200
    13a2:	2b00      	cmp	r3, #0
    13a4:	d00a      	beq.n	13bc <kprintf+0x59c>
/home/palatrauss/optee_with_ftpm_ta/optee_os/lib/libutils/ext/snprintk.c:403
    13a6:	f8d7 20d0 	ldr.w	r2, [r7, #208]	; 0xd0
    13aa:	f102 0304 	add.w	r3, r2, #4
    13ae:	f8c7 30d0 	str.w	r3, [r7, #208]	; 0xd0
    13b2:	6812      	ldr	r2, [r2, #0]
    13b4:	6d3b      	ldr	r3, [r7, #80]	; 0x50
    13b6:	6013      	str	r3, [r2, #0]
/home/palatrauss/optee_with_ftpm_ta/optee_os/lib/libutils/ext/snprintk.c:412
    13b8:	f000 bc49 	b.w	1c4e <kprintf+0xe2e>
/home/palatrauss/optee_with_ftpm_ta/optee_os/lib/libutils/ext/snprintk.c:404
    13bc:	6cfb      	ldr	r3, [r7, #76]	; 0x4c
    13be:	f003 0320 	and.w	r3, r3, #32
    13c2:	2b00      	cmp	r3, #0
    13c4:	d011      	beq.n	13ea <kprintf+0x5ca>
/home/palatrauss/optee_with_ftpm_ta/optee_os/lib/libutils/ext/snprintk.c:405
    13c6:	f8d7 20d0 	ldr.w	r2, [r7, #208]	; 0xd0
    13ca:	f102 0304 	add.w	r3, r2, #4
    13ce:	f8c7 30d0 	str.w	r3, [r7, #208]	; 0xd0
    13d2:	6811      	ldr	r1, [r2, #0]
    13d4:	6d3b      	ldr	r3, [r7, #80]	; 0x50
    13d6:	ea4f 72e3 	mov.w	r2, r3, asr #31
    13da:	613b      	str	r3, [r7, #16]
    13dc:	617a      	str	r2, [r7, #20]
    13de:	e9d7 2304 	ldrd	r2, r3, [r7, #16]
    13e2:	e9c1 2300 	strd	r2, r3, [r1]
/home/palatrauss/optee_with_ftpm_ta/optee_os/lib/libutils/ext/snprintk.c:412
    13e6:	f000 bc32 	b.w	1c4e <kprintf+0xe2e>
/home/palatrauss/optee_with_ftpm_ta/optee_os/lib/libutils/ext/snprintk.c:406
    13ea:	6cfb      	ldr	r3, [r7, #76]	; 0x4c
    13ec:	f003 0310 	and.w	r3, r3, #16
    13f0:	2b00      	cmp	r3, #0
    13f2:	d00a      	beq.n	140a <kprintf+0x5ea>
/home/palatrauss/optee_with_ftpm_ta/optee_os/lib/libutils/ext/snprintk.c:407
    13f4:	f8d7 20d0 	ldr.w	r2, [r7, #208]	; 0xd0
    13f8:	f102 0304 	add.w	r3, r2, #4
    13fc:	f8c7 30d0 	str.w	r3, [r7, #208]	; 0xd0
    1400:	6812      	ldr	r2, [r2, #0]
    1402:	6d3b      	ldr	r3, [r7, #80]	; 0x50
    1404:	6013      	str	r3, [r2, #0]
/home/palatrauss/optee_with_ftpm_ta/optee_os/lib/libutils/ext/snprintk.c:412
    1406:	f000 bc22 	b.w	1c4e <kprintf+0xe2e>
/home/palatrauss/optee_with_ftpm_ta/optee_os/lib/libutils/ext/snprintk.c:408
    140a:	6cfb      	ldr	r3, [r7, #76]	; 0x4c
    140c:	f003 0340 	and.w	r3, r3, #64	; 0x40
    1410:	2b00      	cmp	r3, #0
    1412:	d00b      	beq.n	142c <kprintf+0x60c>
/home/palatrauss/optee_with_ftpm_ta/optee_os/lib/libutils/ext/snprintk.c:409
    1414:	f8d7 20d0 	ldr.w	r2, [r7, #208]	; 0xd0
    1418:	f102 0304 	add.w	r3, r2, #4
    141c:	f8c7 30d0 	str.w	r3, [r7, #208]	; 0xd0
    1420:	6812      	ldr	r2, [r2, #0]
    1422:	6d3b      	ldr	r3, [r7, #80]	; 0x50
    1424:	b21b      	sxth	r3, r3
    1426:	8013      	strh	r3, [r2, #0]
/home/palatrauss/optee_with_ftpm_ta/optee_os/lib/libutils/ext/snprintk.c:412
    1428:	f000 bc11 	b.w	1c4e <kprintf+0xe2e>
/home/palatrauss/optee_with_ftpm_ta/optee_os/lib/libutils/ext/snprintk.c:411
    142c:	f8d7 20d0 	ldr.w	r2, [r7, #208]	; 0xd0
    1430:	f102 0304 	add.w	r3, r2, #4
    1434:	f8c7 30d0 	str.w	r3, [r7, #208]	; 0xd0
    1438:	6812      	ldr	r2, [r2, #0]
    143a:	6d3b      	ldr	r3, [r7, #80]	; 0x50
    143c:	6013      	str	r3, [r2, #0]
/home/palatrauss/optee_with_ftpm_ta/optee_os/lib/libutils/ext/snprintk.c:412
    143e:	f000 bc06 	b.w	1c4e <kprintf+0xe2e>
/home/palatrauss/optee_with_ftpm_ta/optee_os/lib/libutils/ext/snprintk.c:414
    1442:	6cfb      	ldr	r3, [r7, #76]	; 0x4c
    1444:	f043 0310 	orr.w	r3, r3, #16
    1448:	64fb      	str	r3, [r7, #76]	; 0x4c
/home/palatrauss/optee_with_ftpm_ta/optee_os/lib/libutils/ext/snprintk.c:417
    144a:	6cfb      	ldr	r3, [r7, #76]	; 0x4c
    144c:	f003 0380 	and.w	r3, r3, #128	; 0x80
    1450:	2b00      	cmp	r3, #0
    1452:	d00c      	beq.n	146e <kprintf+0x64e>
    1454:	f8d7 30d0 	ldr.w	r3, [r7, #208]	; 0xd0
    1458:	f103 0307 	add.w	r3, r3, #7
    145c:	f023 0207 	bic.w	r2, r3, #7
    1460:	f102 0308 	add.w	r3, r2, #8
    1464:	f8c7 30d0 	str.w	r3, [r7, #208]	; 0xd0
    1468:	e9d2 4500 	ldrd	r4, r5, [r2]
    146c:	e062      	b.n	1534 <kprintf+0x714>
/home/palatrauss/optee_with_ftpm_ta/optee_os/lib/libutils/ext/snprintk.c:417 (discriminator 2)
    146e:	6cfb      	ldr	r3, [r7, #76]	; 0x4c
    1470:	f403 7380 	and.w	r3, r3, #256	; 0x100
    1474:	2b00      	cmp	r3, #0
    1476:	d00b      	beq.n	1490 <kprintf+0x670>
/home/palatrauss/optee_with_ftpm_ta/optee_os/lib/libutils/ext/snprintk.c:417
    1478:	f8d7 20d0 	ldr.w	r2, [r7, #208]	; 0xd0
    147c:	f102 0304 	add.w	r3, r2, #4
    1480:	f8c7 30d0 	str.w	r3, [r7, #208]	; 0xd0
    1484:	6813      	ldr	r3, [r2, #0]
    1486:	f04f 0200 	mov.w	r2, #0
    148a:	461c      	mov	r4, r3
    148c:	4615      	mov	r5, r2
    148e:	e051      	b.n	1534 <kprintf+0x714>
/home/palatrauss/optee_with_ftpm_ta/optee_os/lib/libutils/ext/snprintk.c:417 (discriminator 5)
    1490:	6cfb      	ldr	r3, [r7, #76]	; 0x4c
    1492:	f403 7300 	and.w	r3, r3, #512	; 0x200
    1496:	2b00      	cmp	r3, #0
    1498:	d00b      	beq.n	14b2 <kprintf+0x692>
/home/palatrauss/optee_with_ftpm_ta/optee_os/lib/libutils/ext/snprintk.c:417
    149a:	f8d7 20d0 	ldr.w	r2, [r7, #208]	; 0xd0
    149e:	f102 0304 	add.w	r3, r2, #4
    14a2:	f8c7 30d0 	str.w	r3, [r7, #208]	; 0xd0
    14a6:	6813      	ldr	r3, [r2, #0]
    14a8:	f04f 0200 	mov.w	r2, #0
    14ac:	461c      	mov	r4, r3
    14ae:	4615      	mov	r5, r2
    14b0:	e040      	b.n	1534 <kprintf+0x714>
/home/palatrauss/optee_with_ftpm_ta/optee_os/lib/libutils/ext/snprintk.c:417 (discriminator 8)
    14b2:	6cfb      	ldr	r3, [r7, #76]	; 0x4c
    14b4:	f003 0320 	and.w	r3, r3, #32
    14b8:	2b00      	cmp	r3, #0
    14ba:	d00c      	beq.n	14d6 <kprintf+0x6b6>
/home/palatrauss/optee_with_ftpm_ta/optee_os/lib/libutils/ext/snprintk.c:417
    14bc:	f8d7 30d0 	ldr.w	r3, [r7, #208]	; 0xd0
    14c0:	f103 0307 	add.w	r3, r3, #7
    14c4:	f023 0207 	bic.w	r2, r3, #7
    14c8:	f102 0308 	add.w	r3, r2, #8
    14cc:	f8c7 30d0 	str.w	r3, [r7, #208]	; 0xd0
    14d0:	e9d2 4500 	ldrd	r4, r5, [r2]
    14d4:	e02e      	b.n	1534 <kprintf+0x714>
/home/palatrauss/optee_with_ftpm_ta/optee_os/lib/libutils/ext/snprintk.c:417 (discriminator 11)
    14d6:	6cfb      	ldr	r3, [r7, #76]	; 0x4c
    14d8:	f003 0310 	and.w	r3, r3, #16
    14dc:	2b00      	cmp	r3, #0
    14de:	d00b      	beq.n	14f8 <kprintf+0x6d8>
/home/palatrauss/optee_with_ftpm_ta/optee_os/lib/libutils/ext/snprintk.c:417
    14e0:	f8d7 20d0 	ldr.w	r2, [r7, #208]	; 0xd0
    14e4:	f102 0304 	add.w	r3, r2, #4
    14e8:	f8c7 30d0 	str.w	r3, [r7, #208]	; 0xd0
    14ec:	6813      	ldr	r3, [r2, #0]
    14ee:	f04f 0200 	mov.w	r2, #0
    14f2:	461c      	mov	r4, r3
    14f4:	4615      	mov	r5, r2
    14f6:	e01d      	b.n	1534 <kprintf+0x714>
/home/palatrauss/optee_with_ftpm_ta/optee_os/lib/libutils/ext/snprintk.c:417 (discriminator 14)
    14f8:	6cfb      	ldr	r3, [r7, #76]	; 0x4c
    14fa:	f003 0340 	and.w	r3, r3, #64	; 0x40
    14fe:	2b00      	cmp	r3, #0
    1500:	d00d      	beq.n	151e <kprintf+0x6fe>
/home/palatrauss/optee_with_ftpm_ta/optee_os/lib/libutils/ext/snprintk.c:417
    1502:	f8d7 20d0 	ldr.w	r2, [r7, #208]	; 0xd0
    1506:	f102 0304 	add.w	r3, r2, #4
    150a:	f8c7 30d0 	str.w	r3, [r7, #208]	; 0xd0
    150e:	6813      	ldr	r3, [r2, #0]
    1510:	b29b      	uxth	r3, r3
    1512:	b29b      	uxth	r3, r3
    1514:	f04f 0200 	mov.w	r2, #0
    1518:	461c      	mov	r4, r3
    151a:	4615      	mov	r5, r2
    151c:	e00a      	b.n	1534 <kprintf+0x714>
    151e:	f8d7 20d0 	ldr.w	r2, [r7, #208]	; 0xd0
    1522:	f102 0304 	add.w	r3, r2, #4
    1526:	f8c7 30d0 	str.w	r3, [r7, #208]	; 0xd0
    152a:	6813      	ldr	r3, [r2, #0]
    152c:	f04f 0200 	mov.w	r2, #0
    1530:	461c      	mov	r4, r3
    1532:	4615      	mov	r5, r2
/home/palatrauss/optee_with_ftpm_ta/optee_os/lib/libutils/ext/snprintk.c:417 (discriminator 24)
    1534:	e9c7 451e 	strd	r4, r5, [r7, #120]	; 0x78
/home/palatrauss/optee_with_ftpm_ta/optee_os/lib/libutils/ext/snprintk.c:418 (discriminator 24)
    1538:	f04f 0300 	mov.w	r3, #0
    153c:	65fb      	str	r3, [r7, #92]	; 0x5c
/home/palatrauss/optee_with_ftpm_ta/optee_os/lib/libutils/ext/snprintk.c:419 (discriminator 24)
    153e:	e18c      	b.n	185a <kprintf+0xa3a>
/home/palatrauss/optee_with_ftpm_ta/optee_os/lib/libutils/ext/snprintk.c:421
    1540:	f897 30d4 	ldrb.w	r3, [r7, #212]	; 0xd4
    1544:	2b00      	cmp	r3, #0
    1546:	d024      	beq.n	1592 <kprintf+0x772>
/home/palatrauss/optee_with_ftpm_ta/optee_os/lib/libutils/ext/snprintk.c:421 (discriminator 1)
    1548:	6bfb      	ldr	r3, [r7, #60]	; 0x3c
    154a:	781b      	ldrb	r3, [r3, #0]
    154c:	2b55      	cmp	r3, #85	; 0x55
    154e:	d120      	bne.n	1592 <kprintf+0x772>
/home/palatrauss/optee_with_ftpm_ta/optee_os/lib/libutils/ext/snprintk.c:421 (discriminator 2)
    1550:	6bfb      	ldr	r3, [r7, #60]	; 0x3c
    1552:	f103 0301 	add.w	r3, r3, #1
    1556:	781b      	ldrb	r3, [r3, #0]
    1558:	2b6c      	cmp	r3, #108	; 0x6c
    155a:	d11a      	bne.n	1592 <kprintf+0x772>
/home/palatrauss/optee_with_ftpm_ta/optee_os/lib/libutils/ext/snprintk.c:426
    155c:	6bfb      	ldr	r3, [r7, #60]	; 0x3c
    155e:	f103 0302 	add.w	r3, r3, #2
    1562:	63fb      	str	r3, [r7, #60]	; 0x3c
/home/palatrauss/optee_with_ftpm_ta/optee_os/lib/libutils/ext/snprintk.c:427
    1564:	f8d7 20d0 	ldr.w	r2, [r7, #208]	; 0xd0
    1568:	f102 0304 	add.w	r3, r2, #4
    156c:	f8c7 30d0 	str.w	r3, [r7, #208]	; 0xd0
    1570:	6813      	ldr	r3, [r2, #0]
    1572:	f107 0084 	add.w	r0, r7, #132	; 0x84
    1576:	461a      	mov	r2, r3
    1578:	f04f 0125 	mov.w	r1, #37	; 0x25
    157c:	f7ff fc00 	bl	d80 <uuid2str>
    1580:	66b8      	str	r0, [r7, #104]	; 0x68
/home/palatrauss/optee_with_ftpm_ta/optee_os/lib/libutils/ext/snprintk.c:429
    1582:	f107 0384 	add.w	r3, r7, #132	; 0x84
    1586:	64bb      	str	r3, [r7, #72]	; 0x48
/home/palatrauss/optee_with_ftpm_ta/optee_os/lib/libutils/ext/snprintk.c:430
    1588:	f04f 0300 	mov.w	r3, #0
    158c:	f887 303b 	strb.w	r3, [r7, #59]	; 0x3b
/home/palatrauss/optee_with_ftpm_ta/optee_os/lib/libutils/ext/snprintk.c:431
    1590:	e235      	b.n	19fe <kprintf+0xbde>
/home/palatrauss/optee_with_ftpm_ta/optee_os/lib/libutils/ext/snprintk.c:441
    1592:	f8d7 20d0 	ldr.w	r2, [r7, #208]	; 0xd0
    1596:	f102 0304 	add.w	r3, r2, #4
    159a:	f8c7 30d0 	str.w	r3, [r7, #208]	; 0xd0
    159e:	6813      	ldr	r3, [r2, #0]
    15a0:	461a      	mov	r2, r3
    15a2:	f04f 0300 	mov.w	r3, #0
    15a6:	603a      	str	r2, [r7, #0]
    15a8:	607b      	str	r3, [r7, #4]
    15aa:	e9d7 2300 	ldrd	r2, r3, [r7]
    15ae:	e9c7 231e 	strd	r2, r3, [r7, #120]	; 0x78
/home/palatrauss/optee_with_ftpm_ta/optee_os/lib/libutils/ext/snprintk.c:442
    15b2:	f04f 0302 	mov.w	r3, #2
    15b6:	65fb      	str	r3, [r7, #92]	; 0x5c
/home/palatrauss/optee_with_ftpm_ta/optee_os/lib/libutils/ext/snprintk.c:443
    15b8:	f8df 3468 	ldr.w	r3, [pc, #1128]	; 1a24 <kprintf+0xc04>
    15bc:	447b      	add	r3, pc
    15be:	66fb      	str	r3, [r7, #108]	; 0x6c
/home/palatrauss/optee_with_ftpm_ta/optee_os/lib/libutils/ext/snprintk.c:444
    15c0:	6cfb      	ldr	r3, [r7, #76]	; 0x4c
    15c2:	f043 0302 	orr.w	r3, r3, #2
    15c6:	64fb      	str	r3, [r7, #76]	; 0x4c
/home/palatrauss/optee_with_ftpm_ta/optee_os/lib/libutils/ext/snprintk.c:445
    15c8:	f04f 0378 	mov.w	r3, #120	; 0x78
    15cc:	643b      	str	r3, [r7, #64]	; 0x40
/home/palatrauss/optee_with_ftpm_ta/optee_os/lib/libutils/ext/snprintk.c:446
    15ce:	e144      	b.n	185a <kprintf+0xa3a>
/home/palatrauss/optee_with_ftpm_ta/optee_os/lib/libutils/ext/snprintk.c:448
    15d0:	f8d7 20d0 	ldr.w	r2, [r7, #208]	; 0xd0
    15d4:	f102 0304 	add.w	r3, r2, #4
    15d8:	f8c7 30d0 	str.w	r3, [r7, #208]	; 0xd0
    15dc:	6813      	ldr	r3, [r2, #0]
    15de:	64bb      	str	r3, [r7, #72]	; 0x48
    15e0:	6cbb      	ldr	r3, [r7, #72]	; 0x48
    15e2:	2b00      	cmp	r3, #0
    15e4:	d103      	bne.n	15ee <kprintf+0x7ce>
/home/palatrauss/optee_with_ftpm_ta/optee_os/lib/libutils/ext/snprintk.c:450
    15e6:	f8df 3440 	ldr.w	r3, [pc, #1088]	; 1a28 <kprintf+0xc08>
    15ea:	447b      	add	r3, pc
    15ec:	64bb      	str	r3, [r7, #72]	; 0x48
/home/palatrauss/optee_with_ftpm_ta/optee_os/lib/libutils/ext/snprintk.c:451
    15ee:	6dbb      	ldr	r3, [r7, #88]	; 0x58
    15f0:	2b00      	cmp	r3, #0
    15f2:	db19      	blt.n	1628 <kprintf+0x808>
/home/palatrauss/optee_with_ftpm_ta/optee_os/lib/libutils/ext/snprintk.c:457
    15f4:	6dbb      	ldr	r3, [r7, #88]	; 0x58
    15f6:	461a      	mov	r2, r3
    15f8:	f04f 0100 	mov.w	r1, #0
    15fc:	6cb8      	ldr	r0, [r7, #72]	; 0x48
    15fe:	f018 fad7 	bl	19bb0 <memchr>
    1602:	6778      	str	r0, [r7, #116]	; 0x74
/home/palatrauss/optee_with_ftpm_ta/optee_os/lib/libutils/ext/snprintk.c:459
    1604:	6f7b      	ldr	r3, [r7, #116]	; 0x74
    1606:	2b00      	cmp	r3, #0
    1608:	d00b      	beq.n	1622 <kprintf+0x802>
/home/palatrauss/optee_with_ftpm_ta/optee_os/lib/libutils/ext/snprintk.c:460
    160a:	6f7a      	ldr	r2, [r7, #116]	; 0x74
    160c:	6cbb      	ldr	r3, [r7, #72]	; 0x48
    160e:	eba2 0303 	sub.w	r3, r2, r3
    1612:	66bb      	str	r3, [r7, #104]	; 0x68
/home/palatrauss/optee_with_ftpm_ta/optee_os/lib/libutils/ext/snprintk.c:461
    1614:	6eba      	ldr	r2, [r7, #104]	; 0x68
    1616:	6dbb      	ldr	r3, [r7, #88]	; 0x58
    1618:	429a      	cmp	r2, r3
    161a:	dd0a      	ble.n	1632 <kprintf+0x812>
/home/palatrauss/optee_with_ftpm_ta/optee_os/lib/libutils/ext/snprintk.c:462
    161c:	6dbb      	ldr	r3, [r7, #88]	; 0x58
    161e:	66bb      	str	r3, [r7, #104]	; 0x68
    1620:	e007      	b.n	1632 <kprintf+0x812>
/home/palatrauss/optee_with_ftpm_ta/optee_os/lib/libutils/ext/snprintk.c:464
    1622:	6dbb      	ldr	r3, [r7, #88]	; 0x58
    1624:	66bb      	str	r3, [r7, #104]	; 0x68
    1626:	e004      	b.n	1632 <kprintf+0x812>
/home/palatrauss/optee_with_ftpm_ta/optee_os/lib/libutils/ext/snprintk.c:466
    1628:	6cb8      	ldr	r0, [r7, #72]	; 0x48
    162a:	f018 fb4b 	bl	19cc4 <strlen>
    162e:	4603      	mov	r3, r0
    1630:	66bb      	str	r3, [r7, #104]	; 0x68
/home/palatrauss/optee_with_ftpm_ta/optee_os/lib/libutils/ext/snprintk.c:467
    1632:	f04f 0300 	mov.w	r3, #0
    1636:	f887 303b 	strb.w	r3, [r7, #59]	; 0x3b
/home/palatrauss/optee_with_ftpm_ta/optee_os/lib/libutils/ext/snprintk.c:468
    163a:	e1e0      	b.n	19fe <kprintf+0xbde>
/home/palatrauss/optee_with_ftpm_ta/optee_os/lib/libutils/ext/snprintk.c:470
    163c:	6cfb      	ldr	r3, [r7, #76]	; 0x4c
    163e:	f043 0310 	orr.w	r3, r3, #16
    1642:	64fb      	str	r3, [r7, #76]	; 0x4c
/home/palatrauss/optee_with_ftpm_ta/optee_os/lib/libutils/ext/snprintk.c:473
    1644:	6cfb      	ldr	r3, [r7, #76]	; 0x4c
    1646:	f003 0380 	and.w	r3, r3, #128	; 0x80
    164a:	2b00      	cmp	r3, #0
    164c:	d00c      	beq.n	1668 <kprintf+0x848>
    164e:	f8d7 30d0 	ldr.w	r3, [r7, #208]	; 0xd0
    1652:	f103 0307 	add.w	r3, r3, #7
    1656:	f023 0207 	bic.w	r2, r3, #7
    165a:	f102 0308 	add.w	r3, r2, #8
    165e:	f8c7 30d0 	str.w	r3, [r7, #208]	; 0xd0
    1662:	e9d2 8900 	ldrd	r8, r9, [r2]
    1666:	e062      	b.n	172e <kprintf+0x90e>
/home/palatrauss/optee_with_ftpm_ta/optee_os/lib/libutils/ext/snprintk.c:473 (discriminator 2)
    1668:	6cfb      	ldr	r3, [r7, #76]	; 0x4c
    166a:	f403 7380 	and.w	r3, r3, #256	; 0x100
    166e:	2b00      	cmp	r3, #0
    1670:	d00b      	beq.n	168a <kprintf+0x86a>
/home/palatrauss/optee_with_ftpm_ta/optee_os/lib/libutils/ext/snprintk.c:473
    1672:	f8d7 20d0 	ldr.w	r2, [r7, #208]	; 0xd0
    1676:	f102 0304 	add.w	r3, r2, #4
    167a:	f8c7 30d0 	str.w	r3, [r7, #208]	; 0xd0
    167e:	6813      	ldr	r3, [r2, #0]
    1680:	f04f 0200 	mov.w	r2, #0
    1684:	4698      	mov	r8, r3
    1686:	4691      	mov	r9, r2
    1688:	e051      	b.n	172e <kprintf+0x90e>
/home/palatrauss/optee_with_ftpm_ta/optee_os/lib/libutils/ext/snprintk.c:473 (discriminator 5)
    168a:	6cfb      	ldr	r3, [r7, #76]	; 0x4c
    168c:	f403 7300 	and.w	r3, r3, #512	; 0x200
    1690:	2b00      	cmp	r3, #0
    1692:	d00b      	beq.n	16ac <kprintf+0x88c>
/home/palatrauss/optee_with_ftpm_ta/optee_os/lib/libutils/ext/snprintk.c:473
    1694:	f8d7 20d0 	ldr.w	r2, [r7, #208]	; 0xd0
    1698:	f102 0304 	add.w	r3, r2, #4
    169c:	f8c7 30d0 	str.w	r3, [r7, #208]	; 0xd0
    16a0:	6813      	ldr	r3, [r2, #0]
    16a2:	f04f 0200 	mov.w	r2, #0
    16a6:	4698      	mov	r8, r3
    16a8:	4691      	mov	r9, r2
    16aa:	e040      	b.n	172e <kprintf+0x90e>
/home/palatrauss/optee_with_ftpm_ta/optee_os/lib/libutils/ext/snprintk.c:473 (discriminator 8)
    16ac:	6cfb      	ldr	r3, [r7, #76]	; 0x4c
    16ae:	f003 0320 	and.w	r3, r3, #32
    16b2:	2b00      	cmp	r3, #0
    16b4:	d00c      	beq.n	16d0 <kprintf+0x8b0>
/home/palatrauss/optee_with_ftpm_ta/optee_os/lib/libutils/ext/snprintk.c:473
    16b6:	f8d7 30d0 	ldr.w	r3, [r7, #208]	; 0xd0
    16ba:	f103 0307 	add.w	r3, r3, #7
    16be:	f023 0207 	bic.w	r2, r3, #7
    16c2:	f102 0308 	add.w	r3, r2, #8
    16c6:	f8c7 30d0 	str.w	r3, [r7, #208]	; 0xd0
    16ca:	e9d2 8900 	ldrd	r8, r9, [r2]
    16ce:	e02e      	b.n	172e <kprintf+0x90e>
/home/palatrauss/optee_with_ftpm_ta/optee_os/lib/libutils/ext/snprintk.c:473 (discriminator 11)
    16d0:	6cfb      	ldr	r3, [r7, #76]	; 0x4c
    16d2:	f003 0310 	and.w	r3, r3, #16
    16d6:	2b00      	cmp	r3, #0
    16d8:	d00b      	beq.n	16f2 <kprintf+0x8d2>
/home/palatrauss/optee_with_ftpm_ta/optee_os/lib/libutils/ext/snprintk.c:473
    16da:	f8d7 20d0 	ldr.w	r2, [r7, #208]	; 0xd0
    16de:	f102 0304 	add.w	r3, r2, #4
    16e2:	f8c7 30d0 	str.w	r3, [r7, #208]	; 0xd0
    16e6:	6813      	ldr	r3, [r2, #0]
    16e8:	f04f 0200 	mov.w	r2, #0
    16ec:	4698      	mov	r8, r3
    16ee:	4691      	mov	r9, r2
    16f0:	e01d      	b.n	172e <kprintf+0x90e>
/home/palatrauss/optee_with_ftpm_ta/optee_os/lib/libutils/ext/snprintk.c:473 (discriminator 14)
    16f2:	6cfb      	ldr	r3, [r7, #76]	; 0x4c
    16f4:	f003 0340 	and.w	r3, r3, #64	; 0x40
    16f8:	2b00      	cmp	r3, #0
    16fa:	d00d      	beq.n	1718 <kprintf+0x8f8>
/home/palatrauss/optee_with_ftpm_ta/optee_os/lib/libutils/ext/snprintk.c:473
    16fc:	f8d7 20d0 	ldr.w	r2, [r7, #208]	; 0xd0
    1700:	f102 0304 	add.w	r3, r2, #4
    1704:	f8c7 30d0 	str.w	r3, [r7, #208]	; 0xd0
    1708:	6813      	ldr	r3, [r2, #0]
    170a:	b29b      	uxth	r3, r3
    170c:	b29b      	uxth	r3, r3
    170e:	f04f 0200 	mov.w	r2, #0
    1712:	4698      	mov	r8, r3
    1714:	4691      	mov	r9, r2
    1716:	e00a      	b.n	172e <kprintf+0x90e>
    1718:	f8d7 20d0 	ldr.w	r2, [r7, #208]	; 0xd0
    171c:	f102 0304 	add.w	r3, r2, #4
    1720:	f8c7 30d0 	str.w	r3, [r7, #208]	; 0xd0
    1724:	6813      	ldr	r3, [r2, #0]
    1726:	f04f 0200 	mov.w	r2, #0
    172a:	4698      	mov	r8, r3
    172c:	4691      	mov	r9, r2
/home/palatrauss/optee_with_ftpm_ta/optee_os/lib/libutils/ext/snprintk.c:473 (discriminator 24)
    172e:	e9c7 891e 	strd	r8, r9, [r7, #120]	; 0x78
/home/palatrauss/optee_with_ftpm_ta/optee_os/lib/libutils/ext/snprintk.c:474 (discriminator 24)
    1732:	f04f 0301 	mov.w	r3, #1
    1736:	65fb      	str	r3, [r7, #92]	; 0x5c
/home/palatrauss/optee_with_ftpm_ta/optee_os/lib/libutils/ext/snprintk.c:475 (discriminator 24)
    1738:	e08f      	b.n	185a <kprintf+0xa3a>
/home/palatrauss/optee_with_ftpm_ta/optee_os/lib/libutils/ext/snprintk.c:477
    173a:	4bbc      	ldr	r3, [pc, #752]	; (1a2c <kprintf+0xc0c>)
    173c:	447b      	add	r3, pc
    173e:	66fb      	str	r3, [r7, #108]	; 0x6c
/home/palatrauss/optee_with_ftpm_ta/optee_os/lib/libutils/ext/snprintk.c:478
    1740:	e002      	b.n	1748 <kprintf+0x928>
/home/palatrauss/optee_with_ftpm_ta/optee_os/lib/libutils/ext/snprintk.c:480
    1742:	4bbb      	ldr	r3, [pc, #748]	; (1a30 <kprintf+0xc10>)
    1744:	447b      	add	r3, pc
    1746:	66fb      	str	r3, [r7, #108]	; 0x6c
/home/palatrauss/optee_with_ftpm_ta/optee_os/lib/libutils/ext/snprintk.c:481
    1748:	6cfb      	ldr	r3, [r7, #76]	; 0x4c
    174a:	f003 0380 	and.w	r3, r3, #128	; 0x80
    174e:	2b00      	cmp	r3, #0
    1750:	d00c      	beq.n	176c <kprintf+0x94c>
    1752:	f8d7 30d0 	ldr.w	r3, [r7, #208]	; 0xd0
    1756:	f103 0307 	add.w	r3, r3, #7
    175a:	f023 0207 	bic.w	r2, r3, #7
    175e:	f102 0308 	add.w	r3, r2, #8
    1762:	f8c7 30d0 	str.w	r3, [r7, #208]	; 0xd0
    1766:	e9d2 ab00 	ldrd	sl, fp, [r2]
    176a:	e062      	b.n	1832 <kprintf+0xa12>
/home/palatrauss/optee_with_ftpm_ta/optee_os/lib/libutils/ext/snprintk.c:481 (discriminator 2)
    176c:	6cfb      	ldr	r3, [r7, #76]	; 0x4c
    176e:	f403 7380 	and.w	r3, r3, #256	; 0x100
    1772:	2b00      	cmp	r3, #0
    1774:	d00b      	beq.n	178e <kprintf+0x96e>
/home/palatrauss/optee_with_ftpm_ta/optee_os/lib/libutils/ext/snprintk.c:481
    1776:	f8d7 20d0 	ldr.w	r2, [r7, #208]	; 0xd0
    177a:	f102 0304 	add.w	r3, r2, #4
    177e:	f8c7 30d0 	str.w	r3, [r7, #208]	; 0xd0
    1782:	6813      	ldr	r3, [r2, #0]
    1784:	f04f 0200 	mov.w	r2, #0
    1788:	469a      	mov	sl, r3
    178a:	4693      	mov	fp, r2
    178c:	e051      	b.n	1832 <kprintf+0xa12>
/home/palatrauss/optee_with_ftpm_ta/optee_os/lib/libutils/ext/snprintk.c:481 (discriminator 5)
    178e:	6cfb      	ldr	r3, [r7, #76]	; 0x4c
    1790:	f403 7300 	and.w	r3, r3, #512	; 0x200
    1794:	2b00      	cmp	r3, #0
    1796:	d00b      	beq.n	17b0 <kprintf+0x990>
/home/palatrauss/optee_with_ftpm_ta/optee_os/lib/libutils/ext/snprintk.c:481
    1798:	f8d7 20d0 	ldr.w	r2, [r7, #208]	; 0xd0
    179c:	f102 0304 	add.w	r3, r2, #4
    17a0:	f8c7 30d0 	str.w	r3, [r7, #208]	; 0xd0
    17a4:	6813      	ldr	r3, [r2, #0]
    17a6:	f04f 0200 	mov.w	r2, #0
    17aa:	469a      	mov	sl, r3
    17ac:	4693      	mov	fp, r2
    17ae:	e040      	b.n	1832 <kprintf+0xa12>
/home/palatrauss/optee_with_ftpm_ta/optee_os/lib/libutils/ext/snprintk.c:481 (discriminator 8)
    17b0:	6cfb      	ldr	r3, [r7, #76]	; 0x4c
    17b2:	f003 0320 	and.w	r3, r3, #32
    17b6:	2b00      	cmp	r3, #0
    17b8:	d00c      	beq.n	17d4 <kprintf+0x9b4>
/home/palatrauss/optee_with_ftpm_ta/optee_os/lib/libutils/ext/snprintk.c:481
    17ba:	f8d7 30d0 	ldr.w	r3, [r7, #208]	; 0xd0
    17be:	f103 0307 	add.w	r3, r3, #7
    17c2:	f023 0207 	bic.w	r2, r3, #7
    17c6:	f102 0308 	add.w	r3, r2, #8
    17ca:	f8c7 30d0 	str.w	r3, [r7, #208]	; 0xd0
    17ce:	e9d2 ab00 	ldrd	sl, fp, [r2]
    17d2:	e02e      	b.n	1832 <kprintf+0xa12>
/home/palatrauss/optee_with_ftpm_ta/optee_os/lib/libutils/ext/snprintk.c:481 (discriminator 11)
    17d4:	6cfb      	ldr	r3, [r7, #76]	; 0x4c
    17d6:	f003 0310 	and.w	r3, r3, #16
    17da:	2b00      	cmp	r3, #0
    17dc:	d00b      	beq.n	17f6 <kprintf+0x9d6>
/home/palatrauss/optee_with_ftpm_ta/optee_os/lib/libutils/ext/snprintk.c:481
    17de:	f8d7 20d0 	ldr.w	r2, [r7, #208]	; 0xd0
    17e2:	f102 0304 	add.w	r3, r2, #4
    17e6:	f8c7 30d0 	str.w	r3, [r7, #208]	; 0xd0
    17ea:	6813      	ldr	r3, [r2, #0]
    17ec:	f04f 0200 	mov.w	r2, #0
    17f0:	469a      	mov	sl, r3
    17f2:	4693      	mov	fp, r2
    17f4:	e01d      	b.n	1832 <kprintf+0xa12>
/home/palatrauss/optee_with_ftpm_ta/optee_os/lib/libutils/ext/snprintk.c:481 (discriminator 14)
    17f6:	6cfb      	ldr	r3, [r7, #76]	; 0x4c
    17f8:	f003 0340 	and.w	r3, r3, #64	; 0x40
    17fc:	2b00      	cmp	r3, #0
    17fe:	d00d      	beq.n	181c <kprintf+0x9fc>
/home/palatrauss/optee_with_ftpm_ta/optee_os/lib/libutils/ext/snprintk.c:481
    1800:	f8d7 20d0 	ldr.w	r2, [r7, #208]	; 0xd0
    1804:	f102 0304 	add.w	r3, r2, #4
    1808:	f8c7 30d0 	str.w	r3, [r7, #208]	; 0xd0
    180c:	6813      	ldr	r3, [r2, #0]
    180e:	b29b      	uxth	r3, r3
    1810:	b29b      	uxth	r3, r3
    1812:	f04f 0200 	mov.w	r2, #0
    1816:	469a      	mov	sl, r3
    1818:	4693      	mov	fp, r2
    181a:	e00a      	b.n	1832 <kprintf+0xa12>
    181c:	f8d7 20d0 	ldr.w	r2, [r7, #208]	; 0xd0
    1820:	f102 0304 	add.w	r3, r2, #4
    1824:	f8c7 30d0 	str.w	r3, [r7, #208]	; 0xd0
    1828:	6813      	ldr	r3, [r2, #0]
    182a:	f04f 0200 	mov.w	r2, #0
    182e:	469a      	mov	sl, r3
    1830:	4693      	mov	fp, r2
/home/palatrauss/optee_with_ftpm_ta/optee_os/lib/libutils/ext/snprintk.c:481 (discriminator 24)
    1832:	e9c7 ab1e 	strd	sl, fp, [r7, #120]	; 0x78
/home/palatrauss/optee_with_ftpm_ta/optee_os/lib/libutils/ext/snprintk.c:482 (discriminator 24)
    1836:	f04f 0302 	mov.w	r3, #2
    183a:	65fb      	str	r3, [r7, #92]	; 0x5c
/home/palatrauss/optee_with_ftpm_ta/optee_os/lib/libutils/ext/snprintk.c:484 (discriminator 24)
    183c:	6cfb      	ldr	r3, [r7, #76]	; 0x4c
    183e:	f003 0301 	and.w	r3, r3, #1
    1842:	2b00      	cmp	r3, #0
    1844:	d008      	beq.n	1858 <kprintf+0xa38>
/home/palatrauss/optee_with_ftpm_ta/optee_os/lib/libutils/ext/snprintk.c:484 (discriminator 1)
    1846:	e9d7 231e 	ldrd	r2, r3, [r7, #120]	; 0x78
    184a:	4313      	orrs	r3, r2
    184c:	d004      	beq.n	1858 <kprintf+0xa38>
/home/palatrauss/optee_with_ftpm_ta/optee_os/lib/libutils/ext/snprintk.c:485
    184e:	6cfb      	ldr	r3, [r7, #76]	; 0x4c
    1850:	f043 0302 	orr.w	r3, r3, #2
    1854:	64fb      	str	r3, [r7, #76]	; 0x4c
    1856:	e000      	b.n	185a <kprintf+0xa3a>
/home/palatrauss/optee_with_ftpm_ta/optee_os/lib/libutils/ext/snprintk.c:488
    1858:	bf00      	nop
    185a:	f04f 0300 	mov.w	r3, #0
    185e:	f887 303b 	strb.w	r3, [r7, #59]	; 0x3b
/home/palatrauss/optee_with_ftpm_ta/optee_os/lib/libutils/ext/snprintk.c:494
    1862:	6dbb      	ldr	r3, [r7, #88]	; 0x58
    1864:	663b      	str	r3, [r7, #96]	; 0x60
    1866:	6e3b      	ldr	r3, [r7, #96]	; 0x60
    1868:	2b00      	cmp	r3, #0
    186a:	db03      	blt.n	1874 <kprintf+0xa54>
/home/palatrauss/optee_with_ftpm_ta/optee_os/lib/libutils/ext/snprintk.c:495
    186c:	6cfb      	ldr	r3, [r7, #76]	; 0x4c
    186e:	f423 6380 	bic.w	r3, r3, #1024	; 0x400
    1872:	64fb      	str	r3, [r7, #76]	; 0x4c
/home/palatrauss/optee_with_ftpm_ta/optee_os/lib/libutils/ext/snprintk.c:502
    1874:	f107 0384 	add.w	r3, r7, #132	; 0x84
    1878:	f103 0325 	add.w	r3, r3, #37	; 0x25
    187c:	64bb      	str	r3, [r7, #72]	; 0x48
/home/palatrauss/optee_with_ftpm_ta/optee_os/lib/libutils/ext/snprintk.c:503
    187e:	e9d7 231e 	ldrd	r2, r3, [r7, #120]	; 0x78
    1882:	4313      	orrs	r3, r2
    1884:	d103      	bne.n	188e <kprintf+0xa6e>
/home/palatrauss/optee_with_ftpm_ta/optee_os/lib/libutils/ext/snprintk.c:503 (discriminator 1)
    1886:	6dbb      	ldr	r3, [r7, #88]	; 0x58
    1888:	2b00      	cmp	r3, #0
    188a:	f000 809c 	beq.w	19c6 <kprintf+0xba6>
    188e:	6dfb      	ldr	r3, [r7, #92]	; 0x5c
    1890:	2b02      	cmp	r3, #2
    1892:	d06e      	beq.n	1972 <kprintf+0xb52>
    1894:	6dfb      	ldr	r3, [r7, #92]	; 0x5c
    1896:	2b02      	cmp	r3, #2
    1898:	f200 808a 	bhi.w	19b0 <kprintf+0xb90>
    189c:	6dfb      	ldr	r3, [r7, #92]	; 0x5c
    189e:	2b00      	cmp	r3, #0
    18a0:	d004      	beq.n	18ac <kprintf+0xa8c>
    18a2:	6dfb      	ldr	r3, [r7, #92]	; 0x5c
    18a4:	2b01      	cmp	r3, #1
    18a6:	d051      	beq.n	194c <kprintf+0xb2c>
    18a8:	e082      	b.n	19b0 <kprintf+0xb90>
/home/palatrauss/optee_with_ftpm_ta/optee_os/lib/libutils/ext/snprintk.c:510
    18aa:	bf00      	nop
/home/palatrauss/optee_with_ftpm_ta/optee_os/lib/libutils/ext/snprintk.c:512 (discriminator 1)
    18ac:	f897 3078 	ldrb.w	r3, [r7, #120]	; 0x78
    18b0:	f003 0307 	and.w	r3, r3, #7
    18b4:	b2da      	uxtb	r2, r3
    18b6:	6cbb      	ldr	r3, [r7, #72]	; 0x48
    18b8:	f103 33ff 	add.w	r3, r3, #4294967295	; 0xffffffff
    18bc:	64bb      	str	r3, [r7, #72]	; 0x48
    18be:	f102 0330 	add.w	r3, r2, #48	; 0x30
    18c2:	b2db      	uxtb	r3, r3
    18c4:	6cba      	ldr	r2, [r7, #72]	; 0x48
    18c6:	7013      	strb	r3, [r2, #0]
/home/palatrauss/optee_with_ftpm_ta/optee_os/lib/libutils/ext/snprintk.c:513 (discriminator 1)
    18c8:	e9d7 231e 	ldrd	r2, r3, [r7, #120]	; 0x78
    18cc:	f04f 0000 	mov.w	r0, #0
    18d0:	f04f 0100 	mov.w	r1, #0
    18d4:	ea4f 00d2 	mov.w	r0, r2, lsr #3
    18d8:	ea40 7043 	orr.w	r0, r0, r3, lsl #29
    18dc:	ea4f 01d3 	mov.w	r1, r3, lsr #3
    18e0:	e9c7 011e 	strd	r0, r1, [r7, #120]	; 0x78
/home/palatrauss/optee_with_ftpm_ta/optee_os/lib/libutils/ext/snprintk.c:514 (discriminator 1)
    18e4:	e9d7 231e 	ldrd	r2, r3, [r7, #120]	; 0x78
    18e8:	4313      	orrs	r3, r2
    18ea:	d1de      	bne.n	18aa <kprintf+0xa8a>
/home/palatrauss/optee_with_ftpm_ta/optee_os/lib/libutils/ext/snprintk.c:516
    18ec:	6cfb      	ldr	r3, [r7, #76]	; 0x4c
    18ee:	f003 0301 	and.w	r3, r3, #1
    18f2:	2b00      	cmp	r3, #0
    18f4:	d066      	beq.n	19c4 <kprintf+0xba4>
/home/palatrauss/optee_with_ftpm_ta/optee_os/lib/libutils/ext/snprintk.c:516 (discriminator 1)
    18f6:	6cbb      	ldr	r3, [r7, #72]	; 0x48
    18f8:	781b      	ldrb	r3, [r3, #0]
    18fa:	2b30      	cmp	r3, #48	; 0x30
    18fc:	d062      	beq.n	19c4 <kprintf+0xba4>
/home/palatrauss/optee_with_ftpm_ta/optee_os/lib/libutils/ext/snprintk.c:517
    18fe:	6cbb      	ldr	r3, [r7, #72]	; 0x48
    1900:	f103 33ff 	add.w	r3, r3, #4294967295	; 0xffffffff
    1904:	64bb      	str	r3, [r7, #72]	; 0x48
    1906:	6cba      	ldr	r2, [r7, #72]	; 0x48
    1908:	f04f 0330 	mov.w	r3, #48	; 0x30
    190c:	7013      	strb	r3, [r2, #0]
/home/palatrauss/optee_with_ftpm_ta/optee_os/lib/libutils/ext/snprintk.c:518
    190e:	e059      	b.n	19c4 <kprintf+0xba4>
/home/palatrauss/optee_with_ftpm_ta/optee_os/lib/libutils/ext/snprintk.c:523
    1910:	e9d7 011e 	ldrd	r0, r1, [r7, #120]	; 0x78
    1914:	f04f 020a 	mov.w	r2, #10
    1918:	f04f 0300 	mov.w	r3, #0
    191c:	f000 e9d0 	blx	1cc0 <__aeabi_uldivmod>
    1920:	b2d2      	uxtb	r2, r2
    1922:	6cbb      	ldr	r3, [r7, #72]	; 0x48
    1924:	f103 33ff 	add.w	r3, r3, #4294967295	; 0xffffffff
    1928:	64bb      	str	r3, [r7, #72]	; 0x48
    192a:	f102 0330 	add.w	r3, r2, #48	; 0x30
    192e:	b2db      	uxtb	r3, r3
    1930:	6cba      	ldr	r2, [r7, #72]	; 0x48
    1932:	7013      	strb	r3, [r2, #0]
/home/palatrauss/optee_with_ftpm_ta/optee_os/lib/libutils/ext/snprintk.c:524
    1934:	e9d7 011e 	ldrd	r0, r1, [r7, #120]	; 0x78
    1938:	f04f 020a 	mov.w	r2, #10
    193c:	f04f 0300 	mov.w	r3, #0
    1940:	f000 e9be 	blx	1cc0 <__aeabi_uldivmod>
    1944:	4602      	mov	r2, r0
    1946:	460b      	mov	r3, r1
    1948:	e9c7 231e 	strd	r2, r3, [r7, #120]	; 0x78
/home/palatrauss/optee_with_ftpm_ta/optee_os/lib/libutils/ext/snprintk.c:522
    194c:	e9d7 231e 	ldrd	r2, r3, [r7, #120]	; 0x78
    1950:	2a0a      	cmp	r2, #10
    1952:	f173 0300 	sbcs.w	r3, r3, #0
    1956:	d2db      	bcs.n	1910 <kprintf+0xaf0>
/home/palatrauss/optee_with_ftpm_ta/optee_os/lib/libutils/ext/snprintk.c:526
    1958:	f897 2078 	ldrb.w	r2, [r7, #120]	; 0x78
    195c:	6cbb      	ldr	r3, [r7, #72]	; 0x48
    195e:	f103 33ff 	add.w	r3, r3, #4294967295	; 0xffffffff
    1962:	64bb      	str	r3, [r7, #72]	; 0x48
    1964:	f102 0330 	add.w	r3, r2, #48	; 0x30
    1968:	b2db      	uxtb	r3, r3
    196a:	6cba      	ldr	r2, [r7, #72]	; 0x48
    196c:	7013      	strb	r3, [r2, #0]
/home/palatrauss/optee_with_ftpm_ta/optee_os/lib/libutils/ext/snprintk.c:527
    196e:	e02a      	b.n	19c6 <kprintf+0xba6>
/home/palatrauss/optee_with_ftpm_ta/optee_os/lib/libutils/ext/snprintk.c:529
    1970:	bf00      	nop
/home/palatrauss/optee_with_ftpm_ta/optee_os/lib/libutils/ext/snprintk.c:531 (discriminator 1)
    1972:	6fbb      	ldr	r3, [r7, #120]	; 0x78
    1974:	f003 020f 	and.w	r2, r3, #15
    1978:	6efb      	ldr	r3, [r7, #108]	; 0x6c
    197a:	441a      	add	r2, r3
    197c:	6cbb      	ldr	r3, [r7, #72]	; 0x48
    197e:	f103 33ff 	add.w	r3, r3, #4294967295	; 0xffffffff
    1982:	64bb      	str	r3, [r7, #72]	; 0x48
    1984:	7813      	ldrb	r3, [r2, #0]
    1986:	6cba      	ldr	r2, [r7, #72]	; 0x48
    1988:	7013      	strb	r3, [r2, #0]
/home/palatrauss/optee_with_ftpm_ta/optee_os/lib/libutils/ext/snprintk.c:532 (discriminator 1)
    198a:	e9d7 231e 	ldrd	r2, r3, [r7, #120]	; 0x78
    198e:	f04f 0000 	mov.w	r0, #0
    1992:	f04f 0100 	mov.w	r1, #0
    1996:	ea4f 1012 	mov.w	r0, r2, lsr #4
    199a:	ea40 7003 	orr.w	r0, r0, r3, lsl #28
    199e:	ea4f 1113 	mov.w	r1, r3, lsr #4
    19a2:	e9c7 011e 	strd	r0, r1, [r7, #120]	; 0x78
/home/palatrauss/optee_with_ftpm_ta/optee_os/lib/libutils/ext/snprintk.c:533 (discriminator 1)
    19a6:	e9d7 231e 	ldrd	r2, r3, [r7, #120]	; 0x78
    19aa:	4313      	orrs	r3, r2
    19ac:	d1e0      	bne.n	1970 <kprintf+0xb50>
/home/palatrauss/optee_with_ftpm_ta/optee_os/lib/libutils/ext/snprintk.c:534
    19ae:	e00a      	b.n	19c6 <kprintf+0xba6>
/home/palatrauss/optee_with_ftpm_ta/optee_os/lib/libutils/ext/snprintk.c:538
    19b0:	4b20      	ldr	r3, [pc, #128]	; (1a34 <kprintf+0xc14>)
    19b2:	447b      	add	r3, pc
    19b4:	64bb      	str	r3, [r7, #72]	; 0x48
/home/palatrauss/optee_with_ftpm_ta/optee_os/lib/libutils/ext/snprintk.c:539
    19b6:	6cb8      	ldr	r0, [r7, #72]	; 0x48
    19b8:	f018 f984 	bl	19cc4 <strlen>
    19bc:	4603      	mov	r3, r0
    19be:	66bb      	str	r3, [r7, #104]	; 0x68
/home/palatrauss/optee_with_ftpm_ta/optee_os/lib/libutils/ext/snprintk.c:540
    19c0:	bf00      	nop
/home/palatrauss/optee_with_ftpm_ta/optee_os/lib/libutils/ext/snprintk.c:545
    19c2:	e01c      	b.n	19fe <kprintf+0xbde>
/home/palatrauss/optee_with_ftpm_ta/optee_os/lib/libutils/ext/snprintk.c:518
    19c4:	bf00      	nop
/home/palatrauss/optee_with_ftpm_ta/optee_os/lib/libutils/ext/snprintk.c:543
    19c6:	f107 0284 	add.w	r2, r7, #132	; 0x84
    19ca:	f102 0225 	add.w	r2, r2, #37	; 0x25
    19ce:	6cbb      	ldr	r3, [r7, #72]	; 0x48
    19d0:	eba2 0303 	sub.w	r3, r2, r3
    19d4:	66bb      	str	r3, [r7, #104]	; 0x68
/home/palatrauss/optee_with_ftpm_ta/optee_os/lib/libutils/ext/snprintk.c:545
    19d6:	e012      	b.n	19fe <kprintf+0xbde>
/home/palatrauss/optee_with_ftpm_ta/optee_os/lib/libutils/ext/snprintk.c:547
    19d8:	6c3b      	ldr	r3, [r7, #64]	; 0x40
    19da:	2b00      	cmp	r3, #0
    19dc:	f000 813b 	beq.w	1c56 <kprintf+0xe36>
/home/palatrauss/optee_with_ftpm_ta/optee_os/lib/libutils/ext/snprintk.c:550
    19e0:	f107 0384 	add.w	r3, r7, #132	; 0x84
    19e4:	64bb      	str	r3, [r7, #72]	; 0x48
/home/palatrauss/optee_with_ftpm_ta/optee_os/lib/libutils/ext/snprintk.c:551
    19e6:	6c3b      	ldr	r3, [r7, #64]	; 0x40
    19e8:	b2db      	uxtb	r3, r3
    19ea:	6cba      	ldr	r2, [r7, #72]	; 0x48
    19ec:	7013      	strb	r3, [r2, #0]
/home/palatrauss/optee_with_ftpm_ta/optee_os/lib/libutils/ext/snprintk.c:552
    19ee:	f04f 0301 	mov.w	r3, #1
    19f2:	66bb      	str	r3, [r7, #104]	; 0x68
/home/palatrauss/optee_with_ftpm_ta/optee_os/lib/libutils/ext/snprintk.c:553
    19f4:	f04f 0300 	mov.w	r3, #0
    19f8:	f887 303b 	strb.w	r3, [r7, #59]	; 0x3b
/home/palatrauss/optee_with_ftpm_ta/optee_os/lib/libutils/ext/snprintk.c:554
    19fc:	bf00      	nop
/home/palatrauss/optee_with_ftpm_ta/optee_os/lib/libutils/ext/snprintk.c:571
    19fe:	6eba      	ldr	r2, [r7, #104]	; 0x68
    1a00:	6e3b      	ldr	r3, [r7, #96]	; 0x60
    1a02:	4293      	cmp	r3, r2
    1a04:	bfb8      	it	lt
    1a06:	4613      	movlt	r3, r2
    1a08:	667b      	str	r3, [r7, #100]	; 0x64
/home/palatrauss/optee_with_ftpm_ta/optee_os/lib/libutils/ext/snprintk.c:572
    1a0a:	f897 303b 	ldrb.w	r3, [r7, #59]	; 0x3b
    1a0e:	2b00      	cmp	r3, #0
    1a10:	d012      	beq.n	1a38 <kprintf+0xc18>
/home/palatrauss/optee_with_ftpm_ta/optee_os/lib/libutils/ext/snprintk.c:573
    1a12:	6e7b      	ldr	r3, [r7, #100]	; 0x64
    1a14:	f103 0301 	add.w	r3, r3, #1
    1a18:	667b      	str	r3, [r7, #100]	; 0x64
    1a1a:	e016      	b.n	1a4a <kprintf+0xc2a>
    1a1c:	0001d244 	.word	0x0001d244
    1a20:	0000000c 	.word	0x0000000c
    1a24:	00018fa0 	.word	0x00018fa0
    1a28:	00018fce 	.word	0x00018fce
    1a2c:	00018e34 	.word	0x00018e34
    1a30:	00018e18 	.word	0x00018e18
    1a34:	00018c0e 	.word	0x00018c0e
/home/palatrauss/optee_with_ftpm_ta/optee_os/lib/libutils/ext/snprintk.c:574
    1a38:	6cfb      	ldr	r3, [r7, #76]	; 0x4c
    1a3a:	f003 0302 	and.w	r3, r3, #2
    1a3e:	2b00      	cmp	r3, #0
    1a40:	d003      	beq.n	1a4a <kprintf+0xc2a>
/home/palatrauss/optee_with_ftpm_ta/optee_os/lib/libutils/ext/snprintk.c:575
    1a42:	6e7b      	ldr	r3, [r7, #100]	; 0x64
    1a44:	f103 0302 	add.w	r3, r3, #2
    1a48:	667b      	str	r3, [r7, #100]	; 0x64
/home/palatrauss/optee_with_ftpm_ta/optee_os/lib/libutils/ext/snprintk.c:578
    1a4a:	6e7a      	ldr	r2, [r7, #100]	; 0x64
    1a4c:	6d7b      	ldr	r3, [r7, #84]	; 0x54
    1a4e:	429a      	cmp	r2, r3
    1a50:	bfb8      	it	lt
    1a52:	461a      	movlt	r2, r3
    1a54:	6d3b      	ldr	r3, [r7, #80]	; 0x50
    1a56:	4413      	add	r3, r2
    1a58:	653b      	str	r3, [r7, #80]	; 0x50
/home/palatrauss/optee_with_ftpm_ta/optee_os/lib/libutils/ext/snprintk.c:581
    1a5a:	6cfa      	ldr	r2, [r7, #76]	; 0x4c
    1a5c:	f240 4304 	movw	r3, #1028	; 0x404
    1a60:	ea03 0302 	and.w	r3, r3, r2
    1a64:	2b00      	cmp	r3, #0
    1a66:	d11f      	bne.n	1aa8 <kprintf+0xc88>
/home/palatrauss/optee_with_ftpm_ta/optee_os/lib/libutils/ext/snprintk.c:582
    1a68:	6d7a      	ldr	r2, [r7, #84]	; 0x54
    1a6a:	6e7b      	ldr	r3, [r7, #100]	; 0x64
    1a6c:	eba2 0303 	sub.w	r3, r2, r3
    1a70:	647b      	str	r3, [r7, #68]	; 0x44
/home/palatrauss/optee_with_ftpm_ta/optee_os/lib/libutils/ext/snprintk.c:583
    1a72:	e013      	b.n	1a9c <kprintf+0xc7c>
/home/palatrauss/optee_with_ftpm_ta/optee_os/lib/libutils/ext/snprintk.c:584
    1a74:	6b3b      	ldr	r3, [r7, #48]	; 0x30
    1a76:	2b08      	cmp	r3, #8
    1a78:	d110      	bne.n	1a9c <kprintf+0xc7c>
/home/palatrauss/optee_with_ftpm_ta/optee_os/lib/libutils/ext/snprintk.c:584 (discriminator 1)
    1a7a:	6abb      	ldr	r3, [r7, #40]	; 0x28
    1a7c:	2b00      	cmp	r3, #0
    1a7e:	d00d      	beq.n	1a9c <kprintf+0xc7c>
/home/palatrauss/optee_with_ftpm_ta/optee_os/lib/libutils/ext/snprintk.c:584 (discriminator 2)
    1a80:	6afb      	ldr	r3, [r7, #44]	; 0x2c
    1a82:	2b00      	cmp	r3, #0
    1a84:	d003      	beq.n	1a8e <kprintf+0xc6e>
/home/palatrauss/optee_with_ftpm_ta/optee_os/lib/libutils/ext/snprintk.c:584 (discriminator 4)
    1a86:	6aba      	ldr	r2, [r7, #40]	; 0x28
    1a88:	6f3b      	ldr	r3, [r7, #112]	; 0x70
    1a8a:	429a      	cmp	r2, r3
    1a8c:	d206      	bcs.n	1a9c <kprintf+0xc7c>
/home/palatrauss/optee_with_ftpm_ta/optee_os/lib/libutils/ext/snprintk.c:584 (discriminator 5)
    1a8e:	6aba      	ldr	r2, [r7, #40]	; 0x28
    1a90:	f102 0301 	add.w	r3, r2, #1
    1a94:	62bb      	str	r3, [r7, #40]	; 0x28
    1a96:	f04f 0320 	mov.w	r3, #32
    1a9a:	7013      	strb	r3, [r2, #0]
/home/palatrauss/optee_with_ftpm_ta/optee_os/lib/libutils/ext/snprintk.c:583
    1a9c:	6c7a      	ldr	r2, [r7, #68]	; 0x44
    1a9e:	f102 33ff 	add.w	r3, r2, #4294967295	; 0xffffffff
    1aa2:	647b      	str	r3, [r7, #68]	; 0x44
    1aa4:	2a00      	cmp	r2, #0
    1aa6:	dce5      	bgt.n	1a74 <kprintf+0xc54>
/home/palatrauss/optee_with_ftpm_ta/optee_os/lib/libutils/ext/snprintk.c:588
    1aa8:	f897 303b 	ldrb.w	r3, [r7, #59]	; 0x3b
    1aac:	2b00      	cmp	r3, #0
    1aae:	d014      	beq.n	1ada <kprintf+0xcba>
/home/palatrauss/optee_with_ftpm_ta/optee_os/lib/libutils/ext/snprintk.c:589
    1ab0:	6b3b      	ldr	r3, [r7, #48]	; 0x30
    1ab2:	2b08      	cmp	r3, #8
    1ab4:	d13e      	bne.n	1b34 <kprintf+0xd14>
/home/palatrauss/optee_with_ftpm_ta/optee_os/lib/libutils/ext/snprintk.c:589 (discriminator 1)
    1ab6:	6abb      	ldr	r3, [r7, #40]	; 0x28
    1ab8:	2b00      	cmp	r3, #0
    1aba:	d03b      	beq.n	1b34 <kprintf+0xd14>
/home/palatrauss/optee_with_ftpm_ta/optee_os/lib/libutils/ext/snprintk.c:589 (discriminator 2)
    1abc:	6afb      	ldr	r3, [r7, #44]	; 0x2c
    1abe:	2b00      	cmp	r3, #0
    1ac0:	d003      	beq.n	1aca <kprintf+0xcaa>
/home/palatrauss/optee_with_ftpm_ta/optee_os/lib/libutils/ext/snprintk.c:589 (discriminator 4)
    1ac2:	6aba      	ldr	r2, [r7, #40]	; 0x28
    1ac4:	6f3b      	ldr	r3, [r7, #112]	; 0x70
    1ac6:	429a      	cmp	r2, r3
    1ac8:	d234      	bcs.n	1b34 <kprintf+0xd14>
/home/palatrauss/optee_with_ftpm_ta/optee_os/lib/libutils/ext/snprintk.c:589 (discriminator 5)
    1aca:	6aba      	ldr	r2, [r7, #40]	; 0x28
    1acc:	f102 0301 	add.w	r3, r2, #1
    1ad0:	62bb      	str	r3, [r7, #40]	; 0x28
    1ad2:	f897 303b 	ldrb.w	r3, [r7, #59]	; 0x3b
    1ad6:	7013      	strb	r3, [r2, #0]
    1ad8:	e02c      	b.n	1b34 <kprintf+0xd14>
/home/palatrauss/optee_with_ftpm_ta/optee_os/lib/libutils/ext/snprintk.c:590
    1ada:	6cfb      	ldr	r3, [r7, #76]	; 0x4c
    1adc:	f003 0302 	and.w	r3, r3, #2
    1ae0:	2b00      	cmp	r3, #0
    1ae2:	d027      	beq.n	1b34 <kprintf+0xd14>
/home/palatrauss/optee_with_ftpm_ta/optee_os/lib/libutils/ext/snprintk.c:591
    1ae4:	6b3b      	ldr	r3, [r7, #48]	; 0x30
    1ae6:	2b08      	cmp	r3, #8
    1ae8:	d110      	bne.n	1b0c <kprintf+0xcec>
/home/palatrauss/optee_with_ftpm_ta/optee_os/lib/libutils/ext/snprintk.c:591 (discriminator 1)
    1aea:	6abb      	ldr	r3, [r7, #40]	; 0x28
    1aec:	2b00      	cmp	r3, #0
    1aee:	d00d      	beq.n	1b0c <kprintf+0xcec>
/home/palatrauss/optee_with_ftpm_ta/optee_os/lib/libutils/ext/snprintk.c:591 (discriminator 2)
    1af0:	6afb      	ldr	r3, [r7, #44]	; 0x2c
    1af2:	2b00      	cmp	r3, #0
    1af4:	d003      	beq.n	1afe <kprintf+0xcde>
/home/palatrauss/optee_with_ftpm_ta/optee_os/lib/libutils/ext/snprintk.c:591 (discriminator 4)
    1af6:	6aba      	ldr	r2, [r7, #40]	; 0x28
    1af8:	6f3b      	ldr	r3, [r7, #112]	; 0x70
    1afa:	429a      	cmp	r2, r3
    1afc:	d206      	bcs.n	1b0c <kprintf+0xcec>
/home/palatrauss/optee_with_ftpm_ta/optee_os/lib/libutils/ext/snprintk.c:591 (discriminator 5)
    1afe:	6aba      	ldr	r2, [r7, #40]	; 0x28
    1b00:	f102 0301 	add.w	r3, r2, #1
    1b04:	62bb      	str	r3, [r7, #40]	; 0x28
    1b06:	f04f 0330 	mov.w	r3, #48	; 0x30
    1b0a:	7013      	strb	r3, [r2, #0]
/home/palatrauss/optee_with_ftpm_ta/optee_os/lib/libutils/ext/snprintk.c:592
    1b0c:	6b3b      	ldr	r3, [r7, #48]	; 0x30
    1b0e:	2b08      	cmp	r3, #8
    1b10:	d110      	bne.n	1b34 <kprintf+0xd14>
/home/palatrauss/optee_with_ftpm_ta/optee_os/lib/libutils/ext/snprintk.c:592 (discriminator 1)
    1b12:	6abb      	ldr	r3, [r7, #40]	; 0x28
    1b14:	2b00      	cmp	r3, #0
    1b16:	d00d      	beq.n	1b34 <kprintf+0xd14>
/home/palatrauss/optee_with_ftpm_ta/optee_os/lib/libutils/ext/snprintk.c:592 (discriminator 2)
    1b18:	6afb      	ldr	r3, [r7, #44]	; 0x2c
    1b1a:	2b00      	cmp	r3, #0
    1b1c:	d003      	beq.n	1b26 <kprintf+0xd06>
/home/palatrauss/optee_with_ftpm_ta/optee_os/lib/libutils/ext/snprintk.c:592 (discriminator 4)
    1b1e:	6aba      	ldr	r2, [r7, #40]	; 0x28
    1b20:	6f3b      	ldr	r3, [r7, #112]	; 0x70
    1b22:	429a      	cmp	r2, r3
    1b24:	d206      	bcs.n	1b34 <kprintf+0xd14>
/home/palatrauss/optee_with_ftpm_ta/optee_os/lib/libutils/ext/snprintk.c:592 (discriminator 5)
    1b26:	6aba      	ldr	r2, [r7, #40]	; 0x28
    1b28:	f102 0301 	add.w	r3, r2, #1
    1b2c:	62bb      	str	r3, [r7, #40]	; 0x28
    1b2e:	6c3b      	ldr	r3, [r7, #64]	; 0x40
    1b30:	b2db      	uxtb	r3, r3
    1b32:	7013      	strb	r3, [r2, #0]
/home/palatrauss/optee_with_ftpm_ta/optee_os/lib/libutils/ext/snprintk.c:596
    1b34:	6cfa      	ldr	r2, [r7, #76]	; 0x4c
    1b36:	f240 4304 	movw	r3, #1028	; 0x404
    1b3a:	ea03 0302 	and.w	r3, r3, r2
    1b3e:	f5b3 6f80 	cmp.w	r3, #1024	; 0x400
    1b42:	d11f      	bne.n	1b84 <kprintf+0xd64>
/home/palatrauss/optee_with_ftpm_ta/optee_os/lib/libutils/ext/snprintk.c:597
    1b44:	6d7a      	ldr	r2, [r7, #84]	; 0x54
    1b46:	6e7b      	ldr	r3, [r7, #100]	; 0x64
    1b48:	eba2 0303 	sub.w	r3, r2, r3
    1b4c:	647b      	str	r3, [r7, #68]	; 0x44
/home/palatrauss/optee_with_ftpm_ta/optee_os/lib/libutils/ext/snprintk.c:598
    1b4e:	e013      	b.n	1b78 <kprintf+0xd58>
/home/palatrauss/optee_with_ftpm_ta/optee_os/lib/libutils/ext/snprintk.c:599
    1b50:	6b3b      	ldr	r3, [r7, #48]	; 0x30
    1b52:	2b08      	cmp	r3, #8
    1b54:	d110      	bne.n	1b78 <kprintf+0xd58>
/home/palatrauss/optee_with_ftpm_ta/optee_os/lib/libutils/ext/snprintk.c:599 (discriminator 1)
    1b56:	6abb      	ldr	r3, [r7, #40]	; 0x28
    1b58:	2b00      	cmp	r3, #0
    1b5a:	d00d      	beq.n	1b78 <kprintf+0xd58>
/home/palatrauss/optee_with_ftpm_ta/optee_os/lib/libutils/ext/snprintk.c:599 (discriminator 2)
    1b5c:	6afb      	ldr	r3, [r7, #44]	; 0x2c
    1b5e:	2b00      	cmp	r3, #0
    1b60:	d003      	beq.n	1b6a <kprintf+0xd4a>
/home/palatrauss/optee_with_ftpm_ta/optee_os/lib/libutils/ext/snprintk.c:599 (discriminator 4)
    1b62:	6aba      	ldr	r2, [r7, #40]	; 0x28
    1b64:	6f3b      	ldr	r3, [r7, #112]	; 0x70
    1b66:	429a      	cmp	r2, r3
    1b68:	d206      	bcs.n	1b78 <kprintf+0xd58>
/home/palatrauss/optee_with_ftpm_ta/optee_os/lib/libutils/ext/snprintk.c:599 (discriminator 5)
    1b6a:	6aba      	ldr	r2, [r7, #40]	; 0x28
    1b6c:	f102 0301 	add.w	r3, r2, #1
    1b70:	62bb      	str	r3, [r7, #40]	; 0x28
    1b72:	f04f 0330 	mov.w	r3, #48	; 0x30
    1b76:	7013      	strb	r3, [r2, #0]
/home/palatrauss/optee_with_ftpm_ta/optee_os/lib/libutils/ext/snprintk.c:598
    1b78:	6c7a      	ldr	r2, [r7, #68]	; 0x44
    1b7a:	f102 33ff 	add.w	r3, r2, #4294967295	; 0xffffffff
    1b7e:	647b      	str	r3, [r7, #68]	; 0x44
    1b80:	2a00      	cmp	r2, #0
    1b82:	dce5      	bgt.n	1b50 <kprintf+0xd30>
/home/palatrauss/optee_with_ftpm_ta/optee_os/lib/libutils/ext/snprintk.c:603
    1b84:	6e3a      	ldr	r2, [r7, #96]	; 0x60
    1b86:	6ebb      	ldr	r3, [r7, #104]	; 0x68
    1b88:	eba2 0303 	sub.w	r3, r2, r3
    1b8c:	647b      	str	r3, [r7, #68]	; 0x44
/home/palatrauss/optee_with_ftpm_ta/optee_os/lib/libutils/ext/snprintk.c:604
    1b8e:	e013      	b.n	1bb8 <kprintf+0xd98>
/home/palatrauss/optee_with_ftpm_ta/optee_os/lib/libutils/ext/snprintk.c:605
    1b90:	6b3b      	ldr	r3, [r7, #48]	; 0x30
    1b92:	2b08      	cmp	r3, #8
    1b94:	d110      	bne.n	1bb8 <kprintf+0xd98>
/home/palatrauss/optee_with_ftpm_ta/optee_os/lib/libutils/ext/snprintk.c:605 (discriminator 1)
    1b96:	6abb      	ldr	r3, [r7, #40]	; 0x28
    1b98:	2b00      	cmp	r3, #0
    1b9a:	d00d      	beq.n	1bb8 <kprintf+0xd98>
/home/palatrauss/optee_with_ftpm_ta/optee_os/lib/libutils/ext/snprintk.c:605 (discriminator 2)
    1b9c:	6afb      	ldr	r3, [r7, #44]	; 0x2c
    1b9e:	2b00      	cmp	r3, #0
    1ba0:	d003      	beq.n	1baa <kprintf+0xd8a>
/home/palatrauss/optee_with_ftpm_ta/optee_os/lib/libutils/ext/snprintk.c:605 (discriminator 4)
    1ba2:	6aba      	ldr	r2, [r7, #40]	; 0x28
    1ba4:	6f3b      	ldr	r3, [r7, #112]	; 0x70
    1ba6:	429a      	cmp	r2, r3
    1ba8:	d206      	bcs.n	1bb8 <kprintf+0xd98>
/home/palatrauss/optee_with_ftpm_ta/optee_os/lib/libutils/ext/snprintk.c:605 (discriminator 5)
    1baa:	6aba      	ldr	r2, [r7, #40]	; 0x28
    1bac:	f102 0301 	add.w	r3, r2, #1
    1bb0:	62bb      	str	r3, [r7, #40]	; 0x28
    1bb2:	f04f 0330 	mov.w	r3, #48	; 0x30
    1bb6:	7013      	strb	r3, [r2, #0]
/home/palatrauss/optee_with_ftpm_ta/optee_os/lib/libutils/ext/snprintk.c:604
    1bb8:	6c7a      	ldr	r2, [r7, #68]	; 0x44
    1bba:	f102 33ff 	add.w	r3, r2, #4294967295	; 0xffffffff
    1bbe:	647b      	str	r3, [r7, #68]	; 0x44
    1bc0:	2a00      	cmp	r2, #0
    1bc2:	dce5      	bgt.n	1b90 <kprintf+0xd70>
/home/palatrauss/optee_with_ftpm_ta/optee_os/lib/libutils/ext/snprintk.c:608
    1bc4:	e017      	b.n	1bf6 <kprintf+0xdd6>
/home/palatrauss/optee_with_ftpm_ta/optee_os/lib/libutils/ext/snprintk.c:609
    1bc6:	6b3b      	ldr	r3, [r7, #48]	; 0x30
    1bc8:	2b08      	cmp	r3, #8
    1bca:	d110      	bne.n	1bee <kprintf+0xdce>
/home/palatrauss/optee_with_ftpm_ta/optee_os/lib/libutils/ext/snprintk.c:609 (discriminator 1)
    1bcc:	6abb      	ldr	r3, [r7, #40]	; 0x28
    1bce:	2b00      	cmp	r3, #0
    1bd0:	d00d      	beq.n	1bee <kprintf+0xdce>
/home/palatrauss/optee_with_ftpm_ta/optee_os/lib/libutils/ext/snprintk.c:609 (discriminator 2)
    1bd2:	6afb      	ldr	r3, [r7, #44]	; 0x2c
    1bd4:	2b00      	cmp	r3, #0
    1bd6:	d003      	beq.n	1be0 <kprintf+0xdc0>
/home/palatrauss/optee_with_ftpm_ta/optee_os/lib/libutils/ext/snprintk.c:609 (discriminator 4)
    1bd8:	6aba      	ldr	r2, [r7, #40]	; 0x28
    1bda:	6f3b      	ldr	r3, [r7, #112]	; 0x70
    1bdc:	429a      	cmp	r2, r3
    1bde:	d206      	bcs.n	1bee <kprintf+0xdce>
/home/palatrauss/optee_with_ftpm_ta/optee_os/lib/libutils/ext/snprintk.c:609 (discriminator 5)
    1be0:	6aba      	ldr	r2, [r7, #40]	; 0x28
    1be2:	f102 0301 	add.w	r3, r2, #1
    1be6:	62bb      	str	r3, [r7, #40]	; 0x28
    1be8:	6cbb      	ldr	r3, [r7, #72]	; 0x48
    1bea:	781b      	ldrb	r3, [r3, #0]
    1bec:	7013      	strb	r3, [r2, #0]
/home/palatrauss/optee_with_ftpm_ta/optee_os/lib/libutils/ext/snprintk.c:608
    1bee:	6cbb      	ldr	r3, [r7, #72]	; 0x48
    1bf0:	f103 0301 	add.w	r3, r3, #1
    1bf4:	64bb      	str	r3, [r7, #72]	; 0x48
/home/palatrauss/optee_with_ftpm_ta/optee_os/lib/libutils/ext/snprintk.c:608 (discriminator 1)
    1bf6:	6eba      	ldr	r2, [r7, #104]	; 0x68
    1bf8:	f102 33ff 	add.w	r3, r2, #4294967295	; 0xffffffff
    1bfc:	66bb      	str	r3, [r7, #104]	; 0x68
    1bfe:	2a00      	cmp	r2, #0
    1c00:	d1e1      	bne.n	1bc6 <kprintf+0xda6>
/home/palatrauss/optee_with_ftpm_ta/optee_os/lib/libutils/ext/snprintk.c:611
    1c02:	6cfb      	ldr	r3, [r7, #76]	; 0x4c
    1c04:	f003 0304 	and.w	r3, r3, #4
    1c08:	2b00      	cmp	r3, #0
    1c0a:	f43f a95a 	beq.w	ec2 <kprintf+0xa2>
/home/palatrauss/optee_with_ftpm_ta/optee_os/lib/libutils/ext/snprintk.c:612
    1c0e:	6d7a      	ldr	r2, [r7, #84]	; 0x54
    1c10:	6e7b      	ldr	r3, [r7, #100]	; 0x64
    1c12:	eba2 0303 	sub.w	r3, r2, r3
    1c16:	647b      	str	r3, [r7, #68]	; 0x44
/home/palatrauss/optee_with_ftpm_ta/optee_os/lib/libutils/ext/snprintk.c:613
    1c18:	e013      	b.n	1c42 <kprintf+0xe22>
/home/palatrauss/optee_with_ftpm_ta/optee_os/lib/libutils/ext/snprintk.c:614
    1c1a:	6b3b      	ldr	r3, [r7, #48]	; 0x30
    1c1c:	2b08      	cmp	r3, #8
    1c1e:	d110      	bne.n	1c42 <kprintf+0xe22>
/home/palatrauss/optee_with_ftpm_ta/optee_os/lib/libutils/ext/snprintk.c:614 (discriminator 1)
    1c20:	6abb      	ldr	r3, [r7, #40]	; 0x28
    1c22:	2b00      	cmp	r3, #0
    1c24:	d00d      	beq.n	1c42 <kprintf+0xe22>
/home/palatrauss/optee_with_ftpm_ta/optee_os/lib/libutils/ext/snprintk.c:614 (discriminator 2)
    1c26:	6afb      	ldr	r3, [r7, #44]	; 0x2c
    1c28:	2b00      	cmp	r3, #0
    1c2a:	d003      	beq.n	1c34 <kprintf+0xe14>
/home/palatrauss/optee_with_ftpm_ta/optee_os/lib/libutils/ext/snprintk.c:614 (discriminator 4)
    1c2c:	6aba      	ldr	r2, [r7, #40]	; 0x28
    1c2e:	6f3b      	ldr	r3, [r7, #112]	; 0x70
    1c30:	429a      	cmp	r2, r3
    1c32:	d206      	bcs.n	1c42 <kprintf+0xe22>
/home/palatrauss/optee_with_ftpm_ta/optee_os/lib/libutils/ext/snprintk.c:614 (discriminator 5)
    1c34:	6aba      	ldr	r2, [r7, #40]	; 0x28
    1c36:	f102 0301 	add.w	r3, r2, #1
    1c3a:	62bb      	str	r3, [r7, #40]	; 0x28
    1c3c:	f04f 0320 	mov.w	r3, #32
    1c40:	7013      	strb	r3, [r2, #0]
/home/palatrauss/optee_with_ftpm_ta/optee_os/lib/libutils/ext/snprintk.c:613
    1c42:	6c7a      	ldr	r2, [r7, #68]	; 0x44
    1c44:	f102 33ff 	add.w	r3, r2, #4294967295	; 0xffffffff
    1c48:	647b      	str	r3, [r7, #68]	; 0x44
    1c4a:	2a00      	cmp	r2, #0
    1c4c:	dce5      	bgt.n	1c1a <kprintf+0xdfa>
/home/palatrauss/optee_with_ftpm_ta/optee_os/lib/libutils/ext/snprintk.c:281
    1c4e:	f7ff b938 	b.w	ec2 <kprintf+0xa2>
/home/palatrauss/optee_with_ftpm_ta/optee_os/lib/libutils/ext/snprintk.c:286
    1c52:	bf00      	nop
    1c54:	e000      	b.n	1c58 <kprintf+0xe38>
/home/palatrauss/optee_with_ftpm_ta/optee_os/lib/libutils/ext/snprintk.c:548
    1c56:	bf00      	nop
/home/palatrauss/optee_with_ftpm_ta/optee_os/lib/libutils/ext/snprintk.c:619
    1c58:	6b3b      	ldr	r3, [r7, #48]	; 0x30
    1c5a:	2b08      	cmp	r3, #8
    1c5c:	d105      	bne.n	1c6a <kprintf+0xe4a>
/home/palatrauss/optee_with_ftpm_ta/optee_os/lib/libutils/ext/snprintk.c:619 (discriminator 1)
    1c5e:	6afb      	ldr	r3, [r7, #44]	; 0x2c
    1c60:	2b00      	cmp	r3, #0
    1c62:	d002      	beq.n	1c6a <kprintf+0xe4a>
/home/palatrauss/optee_with_ftpm_ta/optee_os/lib/libutils/ext/snprintk.c:620
    1c64:	6afb      	ldr	r3, [r7, #44]	; 0x2c
    1c66:	6aba      	ldr	r2, [r7, #40]	; 0x28
    1c68:	601a      	str	r2, [r3, #0]
/home/palatrauss/optee_with_ftpm_ta/optee_os/lib/libutils/ext/snprintk.c:621
    1c6a:	6d3b      	ldr	r3, [r7, #80]	; 0x50
/home/palatrauss/optee_with_ftpm_ta/optee_os/lib/libutils/ext/snprintk.c:244
    1c6c:	490c      	ldr	r1, [pc, #48]	; (1ca0 <kprintf+0xe80>)
    1c6e:	4479      	add	r1, pc
/home/palatrauss/optee_with_ftpm_ta/optee_os/lib/libutils/ext/snprintk.c:622
    1c70:	4a0c      	ldr	r2, [pc, #48]	; (1ca4 <kprintf+0xe84>)
    1c72:	588a      	ldr	r2, [r1, r2]
    1c74:	6811      	ldr	r1, [r2, #0]
    1c76:	f8d7 20ac 	ldr.w	r2, [r7, #172]	; 0xac
    1c7a:	4051      	eors	r1, r2
    1c7c:	f04f 0200 	mov.w	r2, #0
    1c80:	d001      	beq.n	1c86 <kprintf+0xe66>
    1c82:	f7fe fc25 	bl	4d0 <__stack_chk_fail>
    1c86:	4618      	mov	r0, r3
    1c88:	f107 07b0 	add.w	r7, r7, #176	; 0xb0
    1c8c:	46bd      	mov	sp, r7
    1c8e:	e9dd 4500 	ldrd	r4, r5, [sp]
    1c92:	e9dd 7802 	ldrd	r7, r8, [sp, #8]
    1c96:	e9dd 9a04 	ldrd	r9, sl, [sp, #16]
    1c9a:	b006      	add	sp, #24
    1c9c:	e8bd 8800 	ldmia.w	sp!, {fp, pc}
    1ca0:	0001c416 	.word	0x0001c416
    1ca4:	0000000c 	.word	0x0000000c

00001ca8 <__aeabi_ldivmod>:
__aeabi_ldivmod():
/home/palatrauss/optee_with_ftpm_ta/optee_os/lib/libutils/isoc/arch/arm/arm32_aeabi_ldivmod_a32.S:14
    1ca8:	e92d5000 	push	{ip, lr}
/home/palatrauss/optee_with_ftpm_ta/optee_os/lib/libutils/isoc/arch/arm/arm32_aeabi_ldivmod_a32.S:16
    1cac:	e92d000f 	push	{r0, r1, r2, r3}
/home/palatrauss/optee_with_ftpm_ta/optee_os/lib/libutils/isoc/arch/arm/arm32_aeabi_ldivmod_a32.S:18
    1cb0:	e1a0000d 	mov	r0, sp
/home/palatrauss/optee_with_ftpm_ta/optee_os/lib/libutils/isoc/arch/arm/arm32_aeabi_ldivmod_a32.S:19
    1cb4:	fa000096 	blx	1f14 <__l_divmod>
/home/palatrauss/optee_with_ftpm_ta/optee_os/lib/libutils/isoc/arch/arm/arm32_aeabi_ldivmod_a32.S:20
    1cb8:	e8bd000f 	pop	{r0, r1, r2, r3}
/home/palatrauss/optee_with_ftpm_ta/optee_os/lib/libutils/isoc/arch/arm/arm32_aeabi_ldivmod_a32.S:21
    1cbc:	e8bd9000 	pop	{ip, pc}

00001cc0 <__aeabi_uldivmod>:
__aeabi_uldivmod():
/home/palatrauss/optee_with_ftpm_ta/optee_os/lib/libutils/isoc/arch/arm/arm32_aeabi_ldivmod_a32.S:29
    1cc0:	e92d5000 	push	{ip, lr}
/home/palatrauss/optee_with_ftpm_ta/optee_os/lib/libutils/isoc/arch/arm/arm32_aeabi_ldivmod_a32.S:31
    1cc4:	e92d000f 	push	{r0, r1, r2, r3}
/home/palatrauss/optee_with_ftpm_ta/optee_os/lib/libutils/isoc/arch/arm/arm32_aeabi_ldivmod_a32.S:33
    1cc8:	e1a0000d 	mov	r0, sp
/home/palatrauss/optee_with_ftpm_ta/optee_os/lib/libutils/isoc/arch/arm/arm32_aeabi_ldivmod_a32.S:34
    1ccc:	fb00006a 	blx	1e7e <__ul_divmod>
/home/palatrauss/optee_with_ftpm_ta/optee_os/lib/libutils/isoc/arch/arm/arm32_aeabi_ldivmod_a32.S:35
    1cd0:	e8bd000f 	pop	{r0, r1, r2, r3}
/home/palatrauss/optee_with_ftpm_ta/optee_os/lib/libutils/isoc/arch/arm/arm32_aeabi_ldivmod_a32.S:36
    1cd4:	e8bd9000 	pop	{ip, pc}

00001cd8 <division_lqr>:
division_lqr():
/home/palatrauss/optee_with_ftpm_ta/optee_os/lib/libutils/isoc/arch/arm/arm32_aeabi_ldivmod.c:20
    1cd8:	f84d 4d1c 	str.w	r4, [sp, #-28]!
    1cdc:	e9cd 5701 	strd	r5, r7, [sp, #4]
    1ce0:	e9cd 8903 	strd	r8, r9, [sp, #12]
    1ce4:	e9cd ab05 	strd	sl, fp, [sp, #20]
    1ce8:	b08d      	sub	sp, #52	; 0x34
    1cea:	af00      	add	r7, sp, #0
    1cec:	e9c7 0106 	strd	r0, r1, [r7, #24]
    1cf0:	e9c7 2304 	strd	r2, r3, [r7, #16]
/home/palatrauss/optee_with_ftpm_ta/optee_os/lib/libutils/isoc/arch/arm/arm32_aeabi_ldivmod.c:21
    1cf4:	f04f 0201 	mov.w	r2, #1
    1cf8:	f04f 0300 	mov.w	r3, #0
    1cfc:	e9c7 2308 	strd	r2, r3, [r7, #32]
    1d00:	efc0 0010 	vmov.i32	d16, #0	; 0x00000000
    1d04:	edc7 0b0a 	vstr	d16, [r7, #40]	; 0x28
/home/palatrauss/optee_with_ftpm_ta/optee_os/lib/libutils/isoc/arch/arm/arm32_aeabi_ldivmod.c:22
    1d08:	e9d7 2304 	ldrd	r2, r3, [r7, #16]
    1d0c:	4313      	orrs	r3, r2
    1d0e:	d11b      	bne.n	1d48 <division_lqr+0x70>
/home/palatrauss/optee_with_ftpm_ta/optee_os/lib/libutils/isoc/arch/arm/arm32_aeabi_ldivmod.c:23
    1d10:	6d3b      	ldr	r3, [r7, #80]	; 0x50
    1d12:	ffc7 0e1f 	vmov.i8	d16, #255	; 0xff
    1d16:	edc3 0b02 	vstr	d16, [r3, #8]
/home/palatrauss/optee_with_ftpm_ta/optee_os/lib/libutils/isoc/arch/arm/arm32_aeabi_ldivmod.c:24
    1d1a:	e065      	b.n	1de8 <division_lqr+0x110>
/home/palatrauss/optee_with_ftpm_ta/optee_os/lib/libutils/isoc/arch/arm/arm32_aeabi_ldivmod.c:28
    1d1c:	e9d7 2308 	ldrd	r2, r3, [r7, #32]
    1d20:	1891      	adds	r1, r2, r2
    1d22:	60b9      	str	r1, [r7, #8]
    1d24:	eb43 0303 	adc.w	r3, r3, r3
    1d28:	60fb      	str	r3, [r7, #12]
    1d2a:	e9d7 2302 	ldrd	r2, r3, [r7, #8]
    1d2e:	e9c7 2308 	strd	r2, r3, [r7, #32]
/home/palatrauss/optee_with_ftpm_ta/optee_os/lib/libutils/isoc/arch/arm/arm32_aeabi_ldivmod.c:29
    1d32:	e9d7 2304 	ldrd	r2, r3, [r7, #16]
    1d36:	1891      	adds	r1, r2, r2
    1d38:	6039      	str	r1, [r7, #0]
    1d3a:	eb43 0303 	adc.w	r3, r3, r3
    1d3e:	607b      	str	r3, [r7, #4]
    1d40:	e9d7 2300 	ldrd	r2, r3, [r7]
    1d44:	e9c7 2304 	strd	r2, r3, [r7, #16]
/home/palatrauss/optee_with_ftpm_ta/optee_os/lib/libutils/isoc/arch/arm/arm32_aeabi_ldivmod.c:27
    1d48:	e9d7 2304 	ldrd	r2, r3, [r7, #16]
    1d4c:	2b00      	cmp	r3, #0
    1d4e:	dae5      	bge.n	1d1c <division_lqr+0x44>
/home/palatrauss/optee_with_ftpm_ta/optee_os/lib/libutils/isoc/arch/arm/arm32_aeabi_ldivmod.c:32
    1d50:	e03c      	b.n	1dcc <division_lqr+0xf4>
/home/palatrauss/optee_with_ftpm_ta/optee_os/lib/libutils/isoc/arch/arm/arm32_aeabi_ldivmod.c:33
    1d52:	e9d7 230a 	ldrd	r2, r3, [r7, #40]	; 0x28
    1d56:	1894      	adds	r4, r2, r2
    1d58:	eb43 0503 	adc.w	r5, r3, r3
    1d5c:	e9c7 450a 	strd	r4, r5, [r7, #40]	; 0x28
/home/palatrauss/optee_with_ftpm_ta/optee_os/lib/libutils/isoc/arch/arm/arm32_aeabi_ldivmod.c:34
    1d60:	e9d7 0106 	ldrd	r0, r1, [r7, #24]
    1d64:	e9d7 2304 	ldrd	r2, r3, [r7, #16]
    1d68:	4290      	cmp	r0, r2
    1d6a:	eb71 0303 	sbcs.w	r3, r1, r3
    1d6e:	d311      	bcc.n	1d94 <division_lqr+0xbc>
/home/palatrauss/optee_with_ftpm_ta/optee_os/lib/libutils/isoc/arch/arm/arm32_aeabi_ldivmod.c:35
    1d70:	e9d7 0106 	ldrd	r0, r1, [r7, #24]
    1d74:	e9d7 2304 	ldrd	r2, r3, [r7, #16]
    1d78:	ebb0 0802 	subs.w	r8, r0, r2
    1d7c:	eb61 0903 	sbc.w	r9, r1, r3
    1d80:	e9c7 8906 	strd	r8, r9, [r7, #24]
/home/palatrauss/optee_with_ftpm_ta/optee_os/lib/libutils/isoc/arch/arm/arm32_aeabi_ldivmod.c:36
    1d84:	e9d7 230a 	ldrd	r2, r3, [r7, #40]	; 0x28
    1d88:	f112 0a01 	adds.w	sl, r2, #1
    1d8c:	f143 0b00 	adc.w	fp, r3, #0
    1d90:	e9c7 ab0a 	strd	sl, fp, [r7, #40]	; 0x28
/home/palatrauss/optee_with_ftpm_ta/optee_os/lib/libutils/isoc/arch/arm/arm32_aeabi_ldivmod.c:38
    1d94:	e9d7 0104 	ldrd	r0, r1, [r7, #16]
    1d98:	f04f 0200 	mov.w	r2, #0
    1d9c:	f04f 0300 	mov.w	r3, #0
    1da0:	ea4f 0250 	mov.w	r2, r0, lsr #1
    1da4:	ea42 72c1 	orr.w	r2, r2, r1, lsl #31
    1da8:	ea4f 0351 	mov.w	r3, r1, lsr #1
    1dac:	e9c7 2304 	strd	r2, r3, [r7, #16]
/home/palatrauss/optee_with_ftpm_ta/optee_os/lib/libutils/isoc/arch/arm/arm32_aeabi_ldivmod.c:39
    1db0:	e9d7 0108 	ldrd	r0, r1, [r7, #32]
    1db4:	f04f 0200 	mov.w	r2, #0
    1db8:	f04f 0300 	mov.w	r3, #0
    1dbc:	ea4f 0250 	mov.w	r2, r0, lsr #1
    1dc0:	ea42 72c1 	orr.w	r2, r2, r1, lsl #31
    1dc4:	ea4f 0351 	mov.w	r3, r1, lsr #1
    1dc8:	e9c7 2308 	strd	r2, r3, [r7, #32]
/home/palatrauss/optee_with_ftpm_ta/optee_os/lib/libutils/isoc/arch/arm/arm32_aeabi_ldivmod.c:32
    1dcc:	e9d7 2308 	ldrd	r2, r3, [r7, #32]
    1dd0:	4313      	orrs	r3, r2
    1dd2:	d1be      	bne.n	1d52 <division_lqr+0x7a>
/home/palatrauss/optee_with_ftpm_ta/optee_os/lib/libutils/isoc/arch/arm/arm32_aeabi_ldivmod.c:41
    1dd4:	6d39      	ldr	r1, [r7, #80]	; 0x50
    1dd6:	e9d7 2306 	ldrd	r2, r3, [r7, #24]
    1dda:	e9c1 2302 	strd	r2, r3, [r1, #8]
/home/palatrauss/optee_with_ftpm_ta/optee_os/lib/libutils/isoc/arch/arm/arm32_aeabi_ldivmod.c:42
    1dde:	6d39      	ldr	r1, [r7, #80]	; 0x50
    1de0:	e9d7 230a 	ldrd	r2, r3, [r7, #40]	; 0x28
    1de4:	e9c1 2300 	strd	r2, r3, [r1]
/home/palatrauss/optee_with_ftpm_ta/optee_os/lib/libutils/isoc/arch/arm/arm32_aeabi_ldivmod.c:43
    1de8:	f107 0734 	add.w	r7, r7, #52	; 0x34
    1dec:	46bd      	mov	sp, r7
    1dee:	e9dd 4500 	ldrd	r4, r5, [sp]
    1df2:	e9dd 7802 	ldrd	r7, r8, [sp, #8]
    1df6:	e9dd 9a04 	ldrd	r9, sl, [sp, #16]
    1dfa:	b006      	add	sp, #24
    1dfc:	f85d bb04 	ldr.w	fp, [sp], #4
    1e00:	4770      	bx	lr

00001e02 <ul_div_qr>:
ul_div_qr():
/home/palatrauss/optee_with_ftpm_ta/optee_os/lib/libutils/isoc/arch/arm/arm32_aeabi_ldivmod.c:47
    1e02:	e96d 4506 	strd	r4, r5, [sp, #-24]!
    1e06:	e9cd 7802 	strd	r7, r8, [sp, #8]
    1e0a:	e9cd 9e04 	strd	r9, lr, [sp, #16]
    1e0e:	b086      	sub	sp, #24
    1e10:	af02      	add	r7, sp, #8
    1e12:	e9c7 0102 	strd	r0, r1, [r7, #8]
    1e16:	e9c7 2300 	strd	r2, r3, [r7]
/home/palatrauss/optee_with_ftpm_ta/optee_os/lib/libutils/isoc/arch/arm/arm32_aeabi_ldivmod.c:49
    1e1a:	6abb      	ldr	r3, [r7, #40]	; 0x28
    1e1c:	9300      	str	r3, [sp, #0]
    1e1e:	e9d7 2300 	ldrd	r2, r3, [r7]
    1e22:	e9d7 0102 	ldrd	r0, r1, [r7, #8]
    1e26:	f7ff ff57 	bl	1cd8 <division_lqr>
/home/palatrauss/optee_with_ftpm_ta/optee_os/lib/libutils/isoc/arch/arm/arm32_aeabi_ldivmod.c:52
    1e2a:	6abb      	ldr	r3, [r7, #40]	; 0x28
    1e2c:	691b      	ldr	r3, [r3, #16]
    1e2e:	2b00      	cmp	r3, #0
    1e30:	d00b      	beq.n	1e4a <ul_div_qr+0x48>
/home/palatrauss/optee_with_ftpm_ta/optee_os/lib/libutils/isoc/arch/arm/arm32_aeabi_ldivmod.c:53
    1e32:	6abb      	ldr	r3, [r7, #40]	; 0x28
    1e34:	e9d3 2300 	ldrd	r2, r3, [r3]
    1e38:	f04f 0100 	mov.w	r1, #0
    1e3c:	f1d2 0800 	rsbs	r8, r2, #0
    1e40:	eb61 0903 	sbc.w	r9, r1, r3
    1e44:	6abb      	ldr	r3, [r7, #40]	; 0x28
    1e46:	e9c3 8900 	strd	r8, r9, [r3]
/home/palatrauss/optee_with_ftpm_ta/optee_os/lib/libutils/isoc/arch/arm/arm32_aeabi_ldivmod.c:54
    1e4a:	6abb      	ldr	r3, [r7, #40]	; 0x28
    1e4c:	695b      	ldr	r3, [r3, #20]
    1e4e:	2b00      	cmp	r3, #0
    1e50:	d00a      	beq.n	1e68 <ul_div_qr+0x66>
/home/palatrauss/optee_with_ftpm_ta/optee_os/lib/libutils/isoc/arch/arm/arm32_aeabi_ldivmod.c:55
    1e52:	6abb      	ldr	r3, [r7, #40]	; 0x28
    1e54:	e9d3 2302 	ldrd	r2, r3, [r3, #8]
    1e58:	f04f 0100 	mov.w	r1, #0
    1e5c:	4254      	negs	r4, r2
    1e5e:	eb61 0503 	sbc.w	r5, r1, r3
    1e62:	6abb      	ldr	r3, [r7, #40]	; 0x28
    1e64:	e9c3 4502 	strd	r4, r5, [r3, #8]
/home/palatrauss/optee_with_ftpm_ta/optee_os/lib/libutils/isoc/arch/arm/arm32_aeabi_ldivmod.c:56
    1e68:	bf00      	nop
    1e6a:	f107 0710 	add.w	r7, r7, #16
    1e6e:	46bd      	mov	sp, r7
    1e70:	e9dd 4500 	ldrd	r4, r5, [sp]
    1e74:	e9dd 7802 	ldrd	r7, r8, [sp, #8]
    1e78:	b004      	add	sp, #16
    1e7a:	e8bd 8200 	ldmia.w	sp!, {r9, pc}

00001e7e <__ul_divmod>:
__ul_divmod():
/home/palatrauss/optee_with_ftpm_ta/optee_os/lib/libutils/isoc/arch/arm/arm32_aeabi_ldivmod.c:66
    1e7e:	e96d 7e02 	strd	r7, lr, [sp, #-8]!
    1e82:	b090      	sub	sp, #64	; 0x40
    1e84:	af02      	add	r7, sp, #8
    1e86:	6078      	str	r0, [r7, #4]
    1e88:	4a1f      	ldr	r2, [pc, #124]	; (1f08 <__ul_divmod+0x8a>)
    1e8a:	447a      	add	r2, pc
    1e8c:	4b1f      	ldr	r3, [pc, #124]	; (1f0c <__ul_divmod+0x8e>)
    1e8e:	58d3      	ldr	r3, [r2, r3]
    1e90:	681b      	ldr	r3, [r3, #0]
    1e92:	637b      	str	r3, [r7, #52]	; 0x34
    1e94:	f04f 0300 	mov.w	r3, #0
/home/palatrauss/optee_with_ftpm_ta/optee_os/lib/libutils/isoc/arch/arm/arm32_aeabi_ldivmod.c:67
    1e98:	687b      	ldr	r3, [r7, #4]
    1e9a:	e9d3 2300 	ldrd	r2, r3, [r3]
    1e9e:	e9c7 2302 	strd	r2, r3, [r7, #8]
/home/palatrauss/optee_with_ftpm_ta/optee_os/lib/libutils/isoc/arch/arm/arm32_aeabi_ldivmod.c:68
    1ea2:	687b      	ldr	r3, [r7, #4]
    1ea4:	e9d3 2302 	ldrd	r2, r3, [r3, #8]
    1ea8:	e9c7 2304 	strd	r2, r3, [r7, #16]
/home/palatrauss/optee_with_ftpm_ta/optee_os/lib/libutils/isoc/arch/arm/arm32_aeabi_ldivmod.c:69
    1eac:	f107 0318 	add.w	r3, r7, #24
    1eb0:	efc0 0010 	vmov.i32	d16, #0	; 0x00000000
    1eb4:	edc3 0b00 	vstr	d16, [r3]
    1eb8:	edc3 0b02 	vstr	d16, [r3, #8]
    1ebc:	edc3 0b04 	vstr	d16, [r3, #16]
/home/palatrauss/optee_with_ftpm_ta/optee_os/lib/libutils/isoc/arch/arm/arm32_aeabi_ldivmod.c:71
    1ec0:	f107 0318 	add.w	r3, r7, #24
    1ec4:	9300      	str	r3, [sp, #0]
    1ec6:	e9d7 2304 	ldrd	r2, r3, [r7, #16]
    1eca:	e9d7 0102 	ldrd	r0, r1, [r7, #8]
    1ece:	f7ff ff98 	bl	1e02 <ul_div_qr>
/home/palatrauss/optee_with_ftpm_ta/optee_os/lib/libutils/isoc/arch/arm/arm32_aeabi_ldivmod.c:73
    1ed2:	e9d7 2306 	ldrd	r2, r3, [r7, #24]
    1ed6:	6879      	ldr	r1, [r7, #4]
    1ed8:	e9c1 2300 	strd	r2, r3, [r1]
/home/palatrauss/optee_with_ftpm_ta/optee_os/lib/libutils/isoc/arch/arm/arm32_aeabi_ldivmod.c:74
    1edc:	e9d7 2308 	ldrd	r2, r3, [r7, #32]
    1ee0:	6879      	ldr	r1, [r7, #4]
    1ee2:	e9c1 2302 	strd	r2, r3, [r1, #8]
/home/palatrauss/optee_with_ftpm_ta/optee_os/lib/libutils/isoc/arch/arm/arm32_aeabi_ldivmod.c:75
    1ee6:	bf00      	nop
/home/palatrauss/optee_with_ftpm_ta/optee_os/lib/libutils/isoc/arch/arm/arm32_aeabi_ldivmod.c:66
    1ee8:	4a09      	ldr	r2, [pc, #36]	; (1f10 <__ul_divmod+0x92>)
    1eea:	447a      	add	r2, pc
/home/palatrauss/optee_with_ftpm_ta/optee_os/lib/libutils/isoc/arch/arm/arm32_aeabi_ldivmod.c:75
    1eec:	4b07      	ldr	r3, [pc, #28]	; (1f0c <__ul_divmod+0x8e>)
    1eee:	58d3      	ldr	r3, [r2, r3]
    1ef0:	681a      	ldr	r2, [r3, #0]
    1ef2:	6b7b      	ldr	r3, [r7, #52]	; 0x34
    1ef4:	405a      	eors	r2, r3
    1ef6:	f04f 0300 	mov.w	r3, #0
    1efa:	d001      	beq.n	1f00 <__ul_divmod+0x82>
    1efc:	f7fe fae8 	bl	4d0 <__stack_chk_fail>
    1f00:	f107 0738 	add.w	r7, r7, #56	; 0x38
    1f04:	46bd      	mov	sp, r7
    1f06:	bd80      	pop	{r7, pc}
    1f08:	0001c1fa 	.word	0x0001c1fa
    1f0c:	0000000c 	.word	0x0000000c
    1f10:	0001c19a 	.word	0x0001c19a

00001f14 <__l_divmod>:
__l_divmod():
/home/palatrauss/optee_with_ftpm_ta/optee_os/lib/libutils/isoc/arch/arm/arm32_aeabi_ldivmod.c:85
    1f14:	e96d 4506 	strd	r4, r5, [sp, #-24]!
    1f18:	e9cd 7802 	strd	r7, r8, [sp, #8]
    1f1c:	e9cd 9e04 	strd	r9, lr, [sp, #16]
    1f20:	b090      	sub	sp, #64	; 0x40
    1f22:	af02      	add	r7, sp, #8
    1f24:	6078      	str	r0, [r7, #4]
    1f26:	4a3d      	ldr	r2, [pc, #244]	; (201c <__l_divmod+0x108>)
    1f28:	447a      	add	r2, pc
    1f2a:	4b3d      	ldr	r3, [pc, #244]	; (2020 <__l_divmod+0x10c>)
    1f2c:	58d3      	ldr	r3, [r2, r3]
    1f2e:	681b      	ldr	r3, [r3, #0]
    1f30:	637b      	str	r3, [r7, #52]	; 0x34
    1f32:	f04f 0300 	mov.w	r3, #0
/home/palatrauss/optee_with_ftpm_ta/optee_os/lib/libutils/isoc/arch/arm/arm32_aeabi_ldivmod.c:86
    1f36:	687b      	ldr	r3, [r7, #4]
    1f38:	e9d3 2300 	ldrd	r2, r3, [r3]
    1f3c:	e9c7 2302 	strd	r2, r3, [r7, #8]
/home/palatrauss/optee_with_ftpm_ta/optee_os/lib/libutils/isoc/arch/arm/arm32_aeabi_ldivmod.c:87
    1f40:	687b      	ldr	r3, [r7, #4]
    1f42:	e9d3 2302 	ldrd	r2, r3, [r3, #8]
    1f46:	e9c7 2304 	strd	r2, r3, [r7, #16]
/home/palatrauss/optee_with_ftpm_ta/optee_os/lib/libutils/isoc/arch/arm/arm32_aeabi_ldivmod.c:88
    1f4a:	f107 0318 	add.w	r3, r7, #24
    1f4e:	efc0 0010 	vmov.i32	d16, #0	; 0x00000000
    1f52:	edc3 0b00 	vstr	d16, [r3]
    1f56:	edc3 0b02 	vstr	d16, [r3, #8]
    1f5a:	edc3 0b04 	vstr	d16, [r3, #16]
/home/palatrauss/optee_with_ftpm_ta/optee_os/lib/libutils/isoc/arch/arm/arm32_aeabi_ldivmod.c:90
    1f5e:	e9d7 2302 	ldrd	r2, r3, [r7, #8]
    1f62:	2b00      	cmp	r3, #0
    1f64:	da05      	bge.n	1f72 <__l_divmod+0x5e>
/home/palatrauss/optee_with_ftpm_ta/optee_os/lib/libutils/isoc/arch/arm/arm32_aeabi_ldivmod.c:90 (discriminator 1)
    1f66:	e9d7 2304 	ldrd	r2, r3, [r7, #16]
    1f6a:	2a01      	cmp	r2, #1
    1f6c:	f173 0300 	sbcs.w	r3, r3, #0
    1f70:	da09      	bge.n	1f86 <__l_divmod+0x72>
/home/palatrauss/optee_with_ftpm_ta/optee_os/lib/libutils/isoc/arch/arm/arm32_aeabi_ldivmod.c:90 (discriminator 3)
    1f72:	e9d7 2302 	ldrd	r2, r3, [r7, #8]
    1f76:	2a01      	cmp	r2, #1
    1f78:	f173 0300 	sbcs.w	r3, r3, #0
    1f7c:	db06      	blt.n	1f8c <__l_divmod+0x78>
/home/palatrauss/optee_with_ftpm_ta/optee_os/lib/libutils/isoc/arch/arm/arm32_aeabi_ldivmod.c:91
    1f7e:	e9d7 2304 	ldrd	r2, r3, [r7, #16]
    1f82:	2b00      	cmp	r3, #0
    1f84:	da02      	bge.n	1f8c <__l_divmod+0x78>
/home/palatrauss/optee_with_ftpm_ta/optee_os/lib/libutils/isoc/arch/arm/arm32_aeabi_ldivmod.c:92
    1f86:	f04f 0301 	mov.w	r3, #1
    1f8a:	62bb      	str	r3, [r7, #40]	; 0x28
/home/palatrauss/optee_with_ftpm_ta/optee_os/lib/libutils/isoc/arch/arm/arm32_aeabi_ldivmod.c:93
    1f8c:	e9d7 2302 	ldrd	r2, r3, [r7, #8]
    1f90:	2b00      	cmp	r3, #0
    1f92:	da0c      	bge.n	1fae <__l_divmod+0x9a>
/home/palatrauss/optee_with_ftpm_ta/optee_os/lib/libutils/isoc/arch/arm/arm32_aeabi_ldivmod.c:94
    1f94:	e9d7 2302 	ldrd	r2, r3, [r7, #8]
    1f98:	f04f 0100 	mov.w	r1, #0
    1f9c:	f1d2 0800 	rsbs	r8, r2, #0
    1fa0:	eb61 0903 	sbc.w	r9, r1, r3
    1fa4:	e9c7 8902 	strd	r8, r9, [r7, #8]
/home/palatrauss/optee_with_ftpm_ta/optee_os/lib/libutils/isoc/arch/arm/arm32_aeabi_ldivmod.c:95
    1fa8:	f04f 0301 	mov.w	r3, #1
    1fac:	62fb      	str	r3, [r7, #44]	; 0x2c
/home/palatrauss/optee_with_ftpm_ta/optee_os/lib/libutils/isoc/arch/arm/arm32_aeabi_ldivmod.c:97
    1fae:	e9d7 2304 	ldrd	r2, r3, [r7, #16]
    1fb2:	2b00      	cmp	r3, #0
    1fb4:	da08      	bge.n	1fc8 <__l_divmod+0xb4>
/home/palatrauss/optee_with_ftpm_ta/optee_os/lib/libutils/isoc/arch/arm/arm32_aeabi_ldivmod.c:98
    1fb6:	e9d7 2304 	ldrd	r2, r3, [r7, #16]
    1fba:	f04f 0100 	mov.w	r1, #0
    1fbe:	4254      	negs	r4, r2
    1fc0:	eb61 0503 	sbc.w	r5, r1, r3
    1fc4:	e9c7 4504 	strd	r4, r5, [r7, #16]
/home/palatrauss/optee_with_ftpm_ta/optee_os/lib/libutils/isoc/arch/arm/arm32_aeabi_ldivmod.c:100
    1fc8:	e9d7 0102 	ldrd	r0, r1, [r7, #8]
    1fcc:	e9d7 2304 	ldrd	r2, r3, [r7, #16]
    1fd0:	f107 0418 	add.w	r4, r7, #24
    1fd4:	9400      	str	r4, [sp, #0]
    1fd6:	f7ff ff14 	bl	1e02 <ul_div_qr>
/home/palatrauss/optee_with_ftpm_ta/optee_os/lib/libutils/isoc/arch/arm/arm32_aeabi_ldivmod.c:102
    1fda:	e9d7 2306 	ldrd	r2, r3, [r7, #24]
    1fde:	6879      	ldr	r1, [r7, #4]
    1fe0:	e9c1 2300 	strd	r2, r3, [r1]
/home/palatrauss/optee_with_ftpm_ta/optee_os/lib/libutils/isoc/arch/arm/arm32_aeabi_ldivmod.c:103
    1fe4:	e9d7 2308 	ldrd	r2, r3, [r7, #32]
    1fe8:	6879      	ldr	r1, [r7, #4]
    1fea:	e9c1 2302 	strd	r2, r3, [r1, #8]
/home/palatrauss/optee_with_ftpm_ta/optee_os/lib/libutils/isoc/arch/arm/arm32_aeabi_ldivmod.c:104
    1fee:	bf00      	nop
/home/palatrauss/optee_with_ftpm_ta/optee_os/lib/libutils/isoc/arch/arm/arm32_aeabi_ldivmod.c:85
    1ff0:	4a0c      	ldr	r2, [pc, #48]	; (2024 <__l_divmod+0x110>)
    1ff2:	447a      	add	r2, pc
/home/palatrauss/optee_with_ftpm_ta/optee_os/lib/libutils/isoc/arch/arm/arm32_aeabi_ldivmod.c:104
    1ff4:	4b0a      	ldr	r3, [pc, #40]	; (2020 <__l_divmod+0x10c>)
    1ff6:	58d3      	ldr	r3, [r2, r3]
    1ff8:	681a      	ldr	r2, [r3, #0]
    1ffa:	6b7b      	ldr	r3, [r7, #52]	; 0x34
    1ffc:	405a      	eors	r2, r3
    1ffe:	f04f 0300 	mov.w	r3, #0
    2002:	d001      	beq.n	2008 <__l_divmod+0xf4>
    2004:	f7fe fa64 	bl	4d0 <__stack_chk_fail>
    2008:	f107 0738 	add.w	r7, r7, #56	; 0x38
    200c:	46bd      	mov	sp, r7
    200e:	e9dd 4500 	ldrd	r4, r5, [sp]
    2012:	e9dd 7802 	ldrd	r7, r8, [sp, #8]
    2016:	b004      	add	sp, #16
    2018:	e8bd 8200 	ldmia.w	sp!, {r9, pc}
    201c:	0001c15c 	.word	0x0001c15c
    2020:	0000000c 	.word	0x0000000c
    2024:	0001c092 	.word	0x0001c092

00002028 <trace_ext_puts>:
trace_ext_puts():
/home/palatrauss/optee_with_ftpm_ta/optee_os/lib/libutee/trace_ext.c:22
    2028:	e96d 7e02 	strd	r7, lr, [sp, #-8]!
    202c:	b082      	sub	sp, #8
    202e:	af00      	add	r7, sp, #0
    2030:	6078      	str	r0, [r7, #4]
/home/palatrauss/optee_with_ftpm_ta/optee_os/lib/libutee/trace_ext.c:26
    2032:	6878      	ldr	r0, [r7, #4]
    2034:	f017 fe46 	bl	19cc4 <strlen>
    2038:	4603      	mov	r3, r0
    203a:	4619      	mov	r1, r3
    203c:	6878      	ldr	r0, [r7, #4]
    203e:	f00a ecfa 	blx	ca34 <_utee_log>
/home/palatrauss/optee_with_ftpm_ta/optee_os/lib/libutee/trace_ext.c:28
    2042:	bf00      	nop
    2044:	f107 0708 	add.w	r7, r7, #8
    2048:	46bd      	mov	sp, r7
    204a:	bd80      	pop	{r7, pc}

0000204c <trace_ext_get_thread_id>:
trace_ext_get_thread_id():
/home/palatrauss/optee_with_ftpm_ta/optee_os/lib/libutee/trace_ext.c:31
    204c:	f84d 7d04 	str.w	r7, [sp, #-4]!
    2050:	af00      	add	r7, sp, #0
/home/palatrauss/optee_with_ftpm_ta/optee_os/lib/libutee/trace_ext.c:32
    2052:	f04f 33ff 	mov.w	r3, #4294967295	; 0xffffffff
/home/palatrauss/optee_with_ftpm_ta/optee_os/lib/libutee/trace_ext.c:33
    2056:	4618      	mov	r0, r3
    2058:	46bd      	mov	sp, r7
    205a:	f85d 7b04 	ldr.w	r7, [sp], #4
    205e:	4770      	bx	lr

00002060 <printf>:
printf():
/home/palatrauss/optee_with_ftpm_ta/optee_os/lib/libutee/trace_ext.c:41
    2060:	b40f      	push	{r0, r1, r2, r3}
    2062:	f84d 4d0c 	str.w	r4, [sp, #-12]!
    2066:	e9cd 7e01 	strd	r7, lr, [sp, #4]
    206a:	b0c7      	sub	sp, #284	; 0x11c
    206c:	af00      	add	r7, sp, #0
    206e:	f507 738c 	add.w	r3, r7, #280	; 0x118
    2072:	f5a3 738a 	sub.w	r3, r3, #276	; 0x114
    2076:	f8d7 2128 	ldr.w	r2, [r7, #296]	; 0x128
    207a:	601a      	str	r2, [r3, #0]
    207c:	4a2d      	ldr	r2, [pc, #180]	; (2134 <printf+0xd4>)
    207e:	447a      	add	r2, pc
    2080:	4b2d      	ldr	r3, [pc, #180]	; (2138 <printf+0xd8>)
    2082:	58d3      	ldr	r3, [r2, r3]
    2084:	681b      	ldr	r3, [r3, #0]
    2086:	f8c7 3114 	str.w	r3, [r7, #276]	; 0x114
    208a:	f04f 0300 	mov.w	r3, #0
/home/palatrauss/optee_with_ftpm_ta/optee_os/lib/libutee/trace_ext.c:46
    208e:	f7fe fa5d 	bl	54c <trace_get_level>
    2092:	4603      	mov	r3, r0
    2094:	2b00      	cmp	r3, #0
    2096:	dc02      	bgt.n	209e <printf+0x3e>
/home/palatrauss/optee_with_ftpm_ta/optee_os/lib/libutee/trace_ext.c:47
    2098:	f04f 0300 	mov.w	r3, #0
    209c:	e032      	b.n	2104 <printf+0xa4>
/home/palatrauss/optee_with_ftpm_ta/optee_os/lib/libutee/trace_ext.c:49
    209e:	f507 7296 	add.w	r2, r7, #300	; 0x12c
    20a2:	f507 738c 	add.w	r3, r7, #280	; 0x118
    20a6:	f5a3 7386 	sub.w	r3, r3, #268	; 0x10c
    20aa:	601a      	str	r2, [r3, #0]
/home/palatrauss/optee_with_ftpm_ta/optee_os/lib/libutee/trace_ext.c:50
    20ac:	f507 738c 	add.w	r3, r7, #280	; 0x118
    20b0:	f5a3 7484 	sub.w	r4, r3, #264	; 0x108
    20b4:	f507 738c 	add.w	r3, r7, #280	; 0x118
    20b8:	f5a3 7386 	sub.w	r3, r3, #268	; 0x10c
    20bc:	f507 728c 	add.w	r2, r7, #280	; 0x118
    20c0:	f5a2 728a 	sub.w	r2, r2, #276	; 0x114
    20c4:	f107 0014 	add.w	r0, r7, #20
    20c8:	681b      	ldr	r3, [r3, #0]
    20ca:	6812      	ldr	r2, [r2, #0]
    20cc:	f44f 7180 	mov.w	r1, #256	; 0x100
    20d0:	f017 f9ce 	bl	19470 <vsnprintf>
    20d4:	6020      	str	r0, [r4, #0]
/home/palatrauss/optee_with_ftpm_ta/optee_os/lib/libutee/trace_ext.c:53
    20d6:	f507 738c 	add.w	r3, r7, #280	; 0x118
    20da:	f5a3 7384 	sub.w	r3, r3, #264	; 0x108
    20de:	681b      	ldr	r3, [r3, #0]
    20e0:	2b00      	cmp	r3, #0
    20e2:	da05      	bge.n	20f0 <printf+0x90>
/home/palatrauss/optee_with_ftpm_ta/optee_os/lib/libutee/trace_ext.c:54
    20e4:	f507 738c 	add.w	r3, r7, #280	; 0x118
    20e8:	f5a3 7384 	sub.w	r3, r3, #264	; 0x108
    20ec:	681b      	ldr	r3, [r3, #0]
    20ee:	e009      	b.n	2104 <printf+0xa4>
/home/palatrauss/optee_with_ftpm_ta/optee_os/lib/libutee/trace_ext.c:56
    20f0:	f107 0314 	add.w	r3, r7, #20
    20f4:	4618      	mov	r0, r3
    20f6:	f7ff ff97 	bl	2028 <trace_ext_puts>
/home/palatrauss/optee_with_ftpm_ta/optee_os/lib/libutee/trace_ext.c:58
    20fa:	f507 738c 	add.w	r3, r7, #280	; 0x118
    20fe:	f5a3 7384 	sub.w	r3, r3, #264	; 0x108
    2102:	681b      	ldr	r3, [r3, #0]
/home/palatrauss/optee_with_ftpm_ta/optee_os/lib/libutee/trace_ext.c:41 (discriminator 1)
    2104:	490d      	ldr	r1, [pc, #52]	; (213c <printf+0xdc>)
    2106:	4479      	add	r1, pc
/home/palatrauss/optee_with_ftpm_ta/optee_os/lib/libutee/trace_ext.c:59 (discriminator 1)
    2108:	4a0b      	ldr	r2, [pc, #44]	; (2138 <printf+0xd8>)
    210a:	588a      	ldr	r2, [r1, r2]
    210c:	6811      	ldr	r1, [r2, #0]
    210e:	f8d7 2114 	ldr.w	r2, [r7, #276]	; 0x114
    2112:	4051      	eors	r1, r2
    2114:	f04f 0200 	mov.w	r2, #0
    2118:	d001      	beq.n	211e <printf+0xbe>
/home/palatrauss/optee_with_ftpm_ta/optee_os/lib/libutee/trace_ext.c:59
    211a:	f7fe f9d9 	bl	4d0 <__stack_chk_fail>
    211e:	4618      	mov	r0, r3
    2120:	f507 778e 	add.w	r7, r7, #284	; 0x11c
    2124:	46bd      	mov	sp, r7
    2126:	e9dd 4700 	ldrd	r4, r7, [sp]
    212a:	b002      	add	sp, #8
    212c:	f85d eb04 	ldr.w	lr, [sp], #4
    2130:	b004      	add	sp, #16
    2132:	4770      	bx	lr
    2134:	0001c006 	.word	0x0001c006
    2138:	0000000c 	.word	0x0000000c
    213c:	0001bf7e 	.word	0x0001bf7e

00002140 <puts>:
puts():
/home/palatrauss/optee_with_ftpm_ta/optee_os/lib/libutee/trace_ext.c:62
    2140:	e96d 7e02 	strd	r7, lr, [sp, #-8]!
    2144:	b082      	sub	sp, #8
    2146:	af00      	add	r7, sp, #0
    2148:	6078      	str	r0, [r7, #4]
/home/palatrauss/optee_with_ftpm_ta/optee_os/lib/libutee/trace_ext.c:63
    214a:	f7fe f9ff 	bl	54c <trace_get_level>
    214e:	4603      	mov	r3, r0
    2150:	2b00      	cmp	r3, #0
    2152:	dd07      	ble.n	2164 <puts+0x24>
/home/palatrauss/optee_with_ftpm_ta/optee_os/lib/libutee/trace_ext.c:64
    2154:	6878      	ldr	r0, [r7, #4]
    2156:	f7ff ff67 	bl	2028 <trace_ext_puts>
/home/palatrauss/optee_with_ftpm_ta/optee_os/lib/libutee/trace_ext.c:65
    215a:	4b06      	ldr	r3, [pc, #24]	; (2174 <puts+0x34>)
    215c:	447b      	add	r3, pc
    215e:	4618      	mov	r0, r3
    2160:	f7ff ff62 	bl	2028 <trace_ext_puts>
/home/palatrauss/optee_with_ftpm_ta/optee_os/lib/libutee/trace_ext.c:67
    2164:	f04f 0301 	mov.w	r3, #1
/home/palatrauss/optee_with_ftpm_ta/optee_os/lib/libutee/trace_ext.c:68
    2168:	4618      	mov	r0, r3
    216a:	f107 0708 	add.w	r7, r7, #8
    216e:	46bd      	mov	sp, r7
    2170:	bd80      	pop	{r7, pc}
    2172:	bf00      	nop
    2174:	00018480 	.word	0x00018480

00002178 <putchar>:
putchar():
/home/palatrauss/optee_with_ftpm_ta/optee_os/lib/libutee/trace_ext.c:71
    2178:	e96d 7e02 	strd	r7, lr, [sp, #-8]!
    217c:	b084      	sub	sp, #16
    217e:	af00      	add	r7, sp, #0
    2180:	6078      	str	r0, [r7, #4]
    2182:	4a15      	ldr	r2, [pc, #84]	; (21d8 <putchar+0x60>)
    2184:	447a      	add	r2, pc
    2186:	4b15      	ldr	r3, [pc, #84]	; (21dc <putchar+0x64>)
    2188:	58d3      	ldr	r3, [r2, r3]
    218a:	681b      	ldr	r3, [r3, #0]
    218c:	60fb      	str	r3, [r7, #12]
    218e:	f04f 0300 	mov.w	r3, #0
/home/palatrauss/optee_with_ftpm_ta/optee_os/lib/libutee/trace_ext.c:72
    2192:	687b      	ldr	r3, [r7, #4]
    2194:	b2db      	uxtb	r3, r3
    2196:	723b      	strb	r3, [r7, #8]
    2198:	f04f 0300 	mov.w	r3, #0
    219c:	727b      	strb	r3, [r7, #9]
/home/palatrauss/optee_with_ftpm_ta/optee_os/lib/libutee/trace_ext.c:74
    219e:	f7fe f9d5 	bl	54c <trace_get_level>
    21a2:	4603      	mov	r3, r0
    21a4:	2b00      	cmp	r3, #0
    21a6:	dd04      	ble.n	21b2 <putchar+0x3a>
/home/palatrauss/optee_with_ftpm_ta/optee_os/lib/libutee/trace_ext.c:75
    21a8:	f107 0308 	add.w	r3, r7, #8
    21ac:	4618      	mov	r0, r3
    21ae:	f7ff ff3b 	bl	2028 <trace_ext_puts>
/home/palatrauss/optee_with_ftpm_ta/optee_os/lib/libutee/trace_ext.c:81
    21b2:	687b      	ldr	r3, [r7, #4]
    21b4:	b2db      	uxtb	r3, r3
/home/palatrauss/optee_with_ftpm_ta/optee_os/lib/libutee/trace_ext.c:71
    21b6:	490a      	ldr	r1, [pc, #40]	; (21e0 <putchar+0x68>)
    21b8:	4479      	add	r1, pc
/home/palatrauss/optee_with_ftpm_ta/optee_os/lib/libutee/trace_ext.c:82
    21ba:	4a08      	ldr	r2, [pc, #32]	; (21dc <putchar+0x64>)
    21bc:	588a      	ldr	r2, [r1, r2]
    21be:	6811      	ldr	r1, [r2, #0]
    21c0:	68fa      	ldr	r2, [r7, #12]
    21c2:	4051      	eors	r1, r2
    21c4:	f04f 0200 	mov.w	r2, #0
    21c8:	d001      	beq.n	21ce <putchar+0x56>
    21ca:	f7fe f981 	bl	4d0 <__stack_chk_fail>
    21ce:	4618      	mov	r0, r3
    21d0:	f107 0710 	add.w	r7, r7, #16
    21d4:	46bd      	mov	sp, r7
    21d6:	bd80      	pop	{r7, pc}
    21d8:	0001bf00 	.word	0x0001bf00
    21dc:	0000000c 	.word	0x0000000c
    21e0:	0001becc 	.word	0x0001becc

000021e4 <copy_param>:
copy_param():
/home/palatrauss/optee_with_ftpm_ta/optee_os/lib/libutee/tee_api.c:38
    21e4:	f84d 4d1c 	str.w	r4, [sp, #-28]!
    21e8:	e9cd 5701 	strd	r5, r7, [sp, #4]
    21ec:	e9cd 8903 	strd	r8, r9, [sp, #12]
    21f0:	e9cd ab05 	strd	sl, fp, [sp, #20]
    21f4:	b08f      	sub	sp, #60	; 0x3c
    21f6:	af00      	add	r7, sp, #0
    21f8:	61f8      	str	r0, [r7, #28]
    21fa:	61b9      	str	r1, [r7, #24]
    21fc:	617a      	str	r2, [r7, #20]
/home/palatrauss/optee_with_ftpm_ta/optee_os/lib/libutee/tee_api.c:39
    21fe:	f04f 0300 	mov.w	r3, #0
    2202:	627b      	str	r3, [r7, #36]	; 0x24
/home/palatrauss/optee_with_ftpm_ta/optee_os/lib/libutee/tee_api.c:40
    2204:	efc0 0010 	vmov.i32	d16, #0	; 0x00000000
    2208:	edc7 0b0a 	vstr	d16, [r7, #40]	; 0x28
/home/palatrauss/optee_with_ftpm_ta/optee_os/lib/libutee/tee_api.c:41
    220c:	efc0 0010 	vmov.i32	d16, #0	; 0x00000000
    2210:	edc7 0b0c 	vstr	d16, [r7, #48]	; 0x30
/home/palatrauss/optee_with_ftpm_ta/optee_os/lib/libutee/tee_api.c:43
    2214:	69bb      	ldr	r3, [r7, #24]
    2216:	f04f 0200 	mov.w	r2, #0
    221a:	60bb      	str	r3, [r7, #8]
    221c:	60fa      	str	r2, [r7, #12]
    221e:	69fb      	ldr	r3, [r7, #28]
    2220:	e9d7 1202 	ldrd	r1, r2, [r7, #8]
    2224:	e9c3 1200 	strd	r1, r2, [r3]
/home/palatrauss/optee_with_ftpm_ta/optee_os/lib/libutee/tee_api.c:44
    2228:	f04f 0300 	mov.w	r3, #0
    222c:	627b      	str	r3, [r7, #36]	; 0x24
    222e:	e070      	b.n	2312 <copy_param+0x12e>
/home/palatrauss/optee_with_ftpm_ta/optee_os/lib/libutee/tee_api.c:45
    2230:	69fb      	ldr	r3, [r7, #28]
    2232:	e9d3 2300 	ldrd	r2, r3, [r3]
    2236:	6a7b      	ldr	r3, [r7, #36]	; 0x24
    2238:	ea4f 0383 	mov.w	r3, r3, lsl #2
    223c:	fa22 f303 	lsr.w	r3, r2, r3
    2240:	f003 030f 	and.w	r3, r3, #15
    2244:	2b07      	cmp	r3, #7
    2246:	d83a      	bhi.n	22be <copy_param+0xda>
    2248:	2b05      	cmp	r3, #5
    224a:	d21c      	bcs.n	2286 <copy_param+0xa2>
    224c:	2b01      	cmp	r3, #1
    224e:	d001      	beq.n	2254 <copy_param+0x70>
    2250:	2b03      	cmp	r3, #3
    2252:	d134      	bne.n	22be <copy_param+0xda>
/home/palatrauss/optee_with_ftpm_ta/optee_os/lib/libutee/tee_api.c:48
    2254:	6a7b      	ldr	r3, [r7, #36]	; 0x24
    2256:	ea4f 03c3 	mov.w	r3, r3, lsl #3
    225a:	697a      	ldr	r2, [r7, #20]
    225c:	4413      	add	r3, r2
    225e:	681b      	ldr	r3, [r3, #0]
    2260:	f04f 0200 	mov.w	r2, #0
    2264:	461c      	mov	r4, r3
    2266:	4615      	mov	r5, r2
    2268:	e9c7 450a 	strd	r4, r5, [r7, #40]	; 0x28
/home/palatrauss/optee_with_ftpm_ta/optee_os/lib/libutee/tee_api.c:49
    226c:	6a7b      	ldr	r3, [r7, #36]	; 0x24
    226e:	ea4f 03c3 	mov.w	r3, r3, lsl #3
    2272:	697a      	ldr	r2, [r7, #20]
    2274:	4413      	add	r3, r2
    2276:	685b      	ldr	r3, [r3, #4]
    2278:	f04f 0200 	mov.w	r2, #0
    227c:	4698      	mov	r8, r3
    227e:	4691      	mov	r9, r2
    2280:	e9c7 890c 	strd	r8, r9, [r7, #48]	; 0x30
/home/palatrauss/optee_with_ftpm_ta/optee_os/lib/libutee/tee_api.c:50
    2284:	e023      	b.n	22ce <copy_param+0xea>
/home/palatrauss/optee_with_ftpm_ta/optee_os/lib/libutee/tee_api.c:54
    2286:	6a7b      	ldr	r3, [r7, #36]	; 0x24
    2288:	ea4f 03c3 	mov.w	r3, r3, lsl #3
    228c:	697a      	ldr	r2, [r7, #20]
    228e:	4413      	add	r3, r2
    2290:	681b      	ldr	r3, [r3, #0]
    2292:	461a      	mov	r2, r3
    2294:	f04f 0300 	mov.w	r3, #0
    2298:	4692      	mov	sl, r2
    229a:	469b      	mov	fp, r3
    229c:	e9c7 ab0a 	strd	sl, fp, [r7, #40]	; 0x28
/home/palatrauss/optee_with_ftpm_ta/optee_os/lib/libutee/tee_api.c:55
    22a0:	6a7b      	ldr	r3, [r7, #36]	; 0x24
    22a2:	ea4f 03c3 	mov.w	r3, r3, lsl #3
    22a6:	697a      	ldr	r2, [r7, #20]
    22a8:	4413      	add	r3, r2
    22aa:	685b      	ldr	r3, [r3, #4]
    22ac:	f04f 0200 	mov.w	r2, #0
    22b0:	603b      	str	r3, [r7, #0]
    22b2:	607a      	str	r2, [r7, #4]
    22b4:	e9d7 2300 	ldrd	r2, r3, [r7]
    22b8:	e9c7 230c 	strd	r2, r3, [r7, #48]	; 0x30
/home/palatrauss/optee_with_ftpm_ta/optee_os/lib/libutee/tee_api.c:56
    22bc:	e007      	b.n	22ce <copy_param+0xea>
/home/palatrauss/optee_with_ftpm_ta/optee_os/lib/libutee/tee_api.c:58
    22be:	efc0 0010 	vmov.i32	d16, #0	; 0x00000000
    22c2:	edc7 0b0a 	vstr	d16, [r7, #40]	; 0x28
/home/palatrauss/optee_with_ftpm_ta/optee_os/lib/libutee/tee_api.c:59
    22c6:	efc0 0010 	vmov.i32	d16, #0	; 0x00000000
    22ca:	edc7 0b0c 	vstr	d16, [r7, #48]	; 0x30
/home/palatrauss/optee_with_ftpm_ta/optee_os/lib/libutee/tee_api.c:61 (discriminator 2)
    22ce:	6a7b      	ldr	r3, [r7, #36]	; 0x24
    22d0:	ea4f 0343 	mov.w	r3, r3, lsl #1
    22d4:	69fa      	ldr	r2, [r7, #28]
    22d6:	f103 0301 	add.w	r3, r3, #1
    22da:	ea4f 03c3 	mov.w	r3, r3, lsl #3
    22de:	eb02 0103 	add.w	r1, r2, r3
    22e2:	e9d7 230a 	ldrd	r2, r3, [r7, #40]	; 0x28
    22e6:	e9c1 2300 	strd	r2, r3, [r1]
/home/palatrauss/optee_with_ftpm_ta/optee_os/lib/libutee/tee_api.c:62 (discriminator 2)
    22ea:	6a7b      	ldr	r3, [r7, #36]	; 0x24
    22ec:	ea4f 0343 	mov.w	r3, r3, lsl #1
    22f0:	f103 0301 	add.w	r3, r3, #1
    22f4:	69fa      	ldr	r2, [r7, #28]
    22f6:	f103 0301 	add.w	r3, r3, #1
    22fa:	ea4f 03c3 	mov.w	r3, r3, lsl #3
    22fe:	eb02 0103 	add.w	r1, r2, r3
    2302:	e9d7 230c 	ldrd	r2, r3, [r7, #48]	; 0x30
    2306:	e9c1 2300 	strd	r2, r3, [r1]
/home/palatrauss/optee_with_ftpm_ta/optee_os/lib/libutee/tee_api.c:44 (discriminator 2)
    230a:	6a7b      	ldr	r3, [r7, #36]	; 0x24
    230c:	f103 0301 	add.w	r3, r3, #1
    2310:	627b      	str	r3, [r7, #36]	; 0x24
/home/palatrauss/optee_with_ftpm_ta/optee_os/lib/libutee/tee_api.c:44 (discriminator 1)
    2312:	6a7b      	ldr	r3, [r7, #36]	; 0x24
    2314:	2b03      	cmp	r3, #3
    2316:	d98b      	bls.n	2230 <copy_param+0x4c>
/home/palatrauss/optee_with_ftpm_ta/optee_os/lib/libutee/tee_api.c:64
    2318:	bf00      	nop
    231a:	bf00      	nop
    231c:	f107 073c 	add.w	r7, r7, #60	; 0x3c
    2320:	46bd      	mov	sp, r7
    2322:	e9dd 4500 	ldrd	r4, r5, [sp]
    2326:	e9dd 7802 	ldrd	r7, r8, [sp, #8]
    232a:	e9dd 9a04 	ldrd	r9, sl, [sp, #16]
    232e:	b006      	add	sp, #24
    2330:	f85d bb04 	ldr.w	fp, [sp], #4
    2334:	4770      	bx	lr

00002336 <copy_gp11_param>:
copy_gp11_param():
/home/palatrauss/optee_with_ftpm_ta/optee_os/lib/libutee/tee_api.c:68
    2336:	f84d 4d1c 	str.w	r4, [sp, #-28]!
    233a:	e9cd 5701 	strd	r5, r7, [sp, #4]
    233e:	e9cd 8903 	strd	r8, r9, [sp, #12]
    2342:	e9cd ab05 	strd	sl, fp, [sp, #20]
    2346:	b08f      	sub	sp, #60	; 0x3c
    2348:	af00      	add	r7, sp, #0
    234a:	61f8      	str	r0, [r7, #28]
    234c:	61b9      	str	r1, [r7, #24]
    234e:	617a      	str	r2, [r7, #20]
/home/palatrauss/optee_with_ftpm_ta/optee_os/lib/libutee/tee_api.c:69
    2350:	f04f 0300 	mov.w	r3, #0
    2354:	627b      	str	r3, [r7, #36]	; 0x24
/home/palatrauss/optee_with_ftpm_ta/optee_os/lib/libutee/tee_api.c:70
    2356:	efc0 0010 	vmov.i32	d16, #0	; 0x00000000
    235a:	edc7 0b0a 	vstr	d16, [r7, #40]	; 0x28
/home/palatrauss/optee_with_ftpm_ta/optee_os/lib/libutee/tee_api.c:71
    235e:	efc0 0010 	vmov.i32	d16, #0	; 0x00000000
    2362:	edc7 0b0c 	vstr	d16, [r7, #48]	; 0x30
/home/palatrauss/optee_with_ftpm_ta/optee_os/lib/libutee/tee_api.c:73
    2366:	69bb      	ldr	r3, [r7, #24]
    2368:	f04f 0200 	mov.w	r2, #0
    236c:	60bb      	str	r3, [r7, #8]
    236e:	60fa      	str	r2, [r7, #12]
    2370:	69fb      	ldr	r3, [r7, #28]
    2372:	e9d7 1202 	ldrd	r1, r2, [r7, #8]
    2376:	e9c3 1200 	strd	r1, r2, [r3]
/home/palatrauss/optee_with_ftpm_ta/optee_os/lib/libutee/tee_api.c:74
    237a:	f04f 0300 	mov.w	r3, #0
    237e:	627b      	str	r3, [r7, #36]	; 0x24
    2380:	e070      	b.n	2464 <copy_gp11_param+0x12e>
/home/palatrauss/optee_with_ftpm_ta/optee_os/lib/libutee/tee_api.c:75
    2382:	69fb      	ldr	r3, [r7, #28]
    2384:	e9d3 2300 	ldrd	r2, r3, [r3]
    2388:	6a7b      	ldr	r3, [r7, #36]	; 0x24
    238a:	ea4f 0383 	mov.w	r3, r3, lsl #2
    238e:	fa22 f303 	lsr.w	r3, r2, r3
    2392:	f003 030f 	and.w	r3, r3, #15
    2396:	2b07      	cmp	r3, #7
    2398:	d83a      	bhi.n	2410 <copy_gp11_param+0xda>
    239a:	2b05      	cmp	r3, #5
    239c:	d21c      	bcs.n	23d8 <copy_gp11_param+0xa2>
    239e:	2b01      	cmp	r3, #1
    23a0:	d001      	beq.n	23a6 <copy_gp11_param+0x70>
    23a2:	2b03      	cmp	r3, #3
    23a4:	d134      	bne.n	2410 <copy_gp11_param+0xda>
/home/palatrauss/optee_with_ftpm_ta/optee_os/lib/libutee/tee_api.c:78
    23a6:	6a7b      	ldr	r3, [r7, #36]	; 0x24
    23a8:	ea4f 03c3 	mov.w	r3, r3, lsl #3
    23ac:	697a      	ldr	r2, [r7, #20]
    23ae:	4413      	add	r3, r2
    23b0:	681b      	ldr	r3, [r3, #0]
    23b2:	f04f 0200 	mov.w	r2, #0
    23b6:	461c      	mov	r4, r3
    23b8:	4615      	mov	r5, r2
    23ba:	e9c7 450a 	strd	r4, r5, [r7, #40]	; 0x28
/home/palatrauss/optee_with_ftpm_ta/optee_os/lib/libutee/tee_api.c:79
    23be:	6a7b      	ldr	r3, [r7, #36]	; 0x24
    23c0:	ea4f 03c3 	mov.w	r3, r3, lsl #3
    23c4:	697a      	ldr	r2, [r7, #20]
    23c6:	4413      	add	r3, r2
    23c8:	685b      	ldr	r3, [r3, #4]
    23ca:	f04f 0200 	mov.w	r2, #0
    23ce:	4698      	mov	r8, r3
    23d0:	4691      	mov	r9, r2
    23d2:	e9c7 890c 	strd	r8, r9, [r7, #48]	; 0x30
/home/palatrauss/optee_with_ftpm_ta/optee_os/lib/libutee/tee_api.c:80
    23d6:	e023      	b.n	2420 <copy_gp11_param+0xea>
/home/palatrauss/optee_with_ftpm_ta/optee_os/lib/libutee/tee_api.c:84
    23d8:	6a7b      	ldr	r3, [r7, #36]	; 0x24
    23da:	ea4f 03c3 	mov.w	r3, r3, lsl #3
    23de:	697a      	ldr	r2, [r7, #20]
    23e0:	4413      	add	r3, r2
    23e2:	681b      	ldr	r3, [r3, #0]
    23e4:	461a      	mov	r2, r3
    23e6:	f04f 0300 	mov.w	r3, #0
    23ea:	4692      	mov	sl, r2
    23ec:	469b      	mov	fp, r3
    23ee:	e9c7 ab0a 	strd	sl, fp, [r7, #40]	; 0x28
/home/palatrauss/optee_with_ftpm_ta/optee_os/lib/libutee/tee_api.c:85
    23f2:	6a7b      	ldr	r3, [r7, #36]	; 0x24
    23f4:	ea4f 03c3 	mov.w	r3, r3, lsl #3
    23f8:	697a      	ldr	r2, [r7, #20]
    23fa:	4413      	add	r3, r2
    23fc:	685b      	ldr	r3, [r3, #4]
    23fe:	f04f 0200 	mov.w	r2, #0
    2402:	603b      	str	r3, [r7, #0]
    2404:	607a      	str	r2, [r7, #4]
    2406:	e9d7 2300 	ldrd	r2, r3, [r7]
    240a:	e9c7 230c 	strd	r2, r3, [r7, #48]	; 0x30
/home/palatrauss/optee_with_ftpm_ta/optee_os/lib/libutee/tee_api.c:86
    240e:	e007      	b.n	2420 <copy_gp11_param+0xea>
/home/palatrauss/optee_with_ftpm_ta/optee_os/lib/libutee/tee_api.c:88
    2410:	efc0 0010 	vmov.i32	d16, #0	; 0x00000000
    2414:	edc7 0b0a 	vstr	d16, [r7, #40]	; 0x28
/home/palatrauss/optee_with_ftpm_ta/optee_os/lib/libutee/tee_api.c:89
    2418:	efc0 0010 	vmov.i32	d16, #0	; 0x00000000
    241c:	edc7 0b0c 	vstr	d16, [r7, #48]	; 0x30
/home/palatrauss/optee_with_ftpm_ta/optee_os/lib/libutee/tee_api.c:91 (discriminator 2)
    2420:	6a7b      	ldr	r3, [r7, #36]	; 0x24
    2422:	ea4f 0343 	mov.w	r3, r3, lsl #1
    2426:	69fa      	ldr	r2, [r7, #28]
    2428:	f103 0301 	add.w	r3, r3, #1
    242c:	ea4f 03c3 	mov.w	r3, r3, lsl #3
    2430:	eb02 0103 	add.w	r1, r2, r3
    2434:	e9d7 230a 	ldrd	r2, r3, [r7, #40]	; 0x28
    2438:	e9c1 2300 	strd	r2, r3, [r1]
/home/palatrauss/optee_with_ftpm_ta/optee_os/lib/libutee/tee_api.c:92 (discriminator 2)
    243c:	6a7b      	ldr	r3, [r7, #36]	; 0x24
    243e:	ea4f 0343 	mov.w	r3, r3, lsl #1
    2442:	f103 0301 	add.w	r3, r3, #1
    2446:	69fa      	ldr	r2, [r7, #28]
    2448:	f103 0301 	add.w	r3, r3, #1
    244c:	ea4f 03c3 	mov.w	r3, r3, lsl #3
    2450:	eb02 0103 	add.w	r1, r2, r3
    2454:	e9d7 230c 	ldrd	r2, r3, [r7, #48]	; 0x30
    2458:	e9c1 2300 	strd	r2, r3, [r1]
/home/palatrauss/optee_with_ftpm_ta/optee_os/lib/libutee/tee_api.c:74 (discriminator 2)
    245c:	6a7b      	ldr	r3, [r7, #36]	; 0x24
    245e:	f103 0301 	add.w	r3, r3, #1
    2462:	627b      	str	r3, [r7, #36]	; 0x24
/home/palatrauss/optee_with_ftpm_ta/optee_os/lib/libutee/tee_api.c:74 (discriminator 1)
    2464:	6a7b      	ldr	r3, [r7, #36]	; 0x24
    2466:	2b03      	cmp	r3, #3
    2468:	d98b      	bls.n	2382 <copy_gp11_param+0x4c>
/home/palatrauss/optee_with_ftpm_ta/optee_os/lib/libutee/tee_api.c:94
    246a:	bf00      	nop
    246c:	bf00      	nop
    246e:	f107 073c 	add.w	r7, r7, #60	; 0x3c
    2472:	46bd      	mov	sp, r7
    2474:	e9dd 4500 	ldrd	r4, r5, [sp]
    2478:	e9dd 7802 	ldrd	r7, r8, [sp, #8]
    247c:	e9dd 9a04 	ldrd	r9, sl, [sp, #16]
    2480:	b006      	add	sp, #24
    2482:	f85d bb04 	ldr.w	fp, [sp], #4
    2486:	4770      	bx	lr

00002488 <map_tmp_param>:
map_tmp_param():
/home/palatrauss/optee_with_ftpm_ta/optee_os/lib/libutee/tee_api.c:98
    2488:	e96d 4504 	strd	r4, r5, [sp, #-16]!
    248c:	e9cd 7e02 	strd	r7, lr, [sp, #8]
    2490:	b08e      	sub	sp, #56	; 0x38
    2492:	af00      	add	r7, sp, #0
    2494:	60f8      	str	r0, [r7, #12]
    2496:	60b9      	str	r1, [r7, #8]
    2498:	607a      	str	r2, [r7, #4]
    249a:	603b      	str	r3, [r7, #0]
    249c:	4a9f      	ldr	r2, [pc, #636]	; (271c <map_tmp_param+0x294>)
    249e:	447a      	add	r2, pc
    24a0:	4b9f      	ldr	r3, [pc, #636]	; (2720 <map_tmp_param+0x298>)
    24a2:	58d3      	ldr	r3, [r2, r3]
    24a4:	681b      	ldr	r3, [r3, #0]
    24a6:	637b      	str	r3, [r7, #52]	; 0x34
    24a8:	f04f 0300 	mov.w	r3, #0
/home/palatrauss/optee_with_ftpm_ta/optee_os/lib/libutee/tee_api.c:99
    24ac:	f04f 0300 	mov.w	r3, #0
    24b0:	617b      	str	r3, [r7, #20]
/home/palatrauss/optee_with_ftpm_ta/optee_os/lib/libutee/tee_api.c:100
    24b2:	f04f 0300 	mov.w	r3, #0
    24b6:	61bb      	str	r3, [r7, #24]
/home/palatrauss/optee_with_ftpm_ta/optee_os/lib/libutee/tee_api.c:101
    24b8:	f04f 0300 	mov.w	r3, #0
    24bc:	61fb      	str	r3, [r7, #28]
/home/palatrauss/optee_with_ftpm_ta/optee_os/lib/libutee/tee_api.c:102
    24be:	f04f 0308 	mov.w	r3, #8
    24c2:	623b      	str	r3, [r7, #32]
/home/palatrauss/optee_with_ftpm_ta/optee_os/lib/libutee/tee_api.c:103
    24c4:	f04f 0300 	mov.w	r3, #0
    24c8:	633b      	str	r3, [r7, #48]	; 0x30
/home/palatrauss/optee_with_ftpm_ta/optee_os/lib/libutee/tee_api.c:104
    24ca:	f04f 0300 	mov.w	r3, #0
    24ce:	627b      	str	r3, [r7, #36]	; 0x24
/home/palatrauss/optee_with_ftpm_ta/optee_os/lib/libutee/tee_api.c:105
    24d0:	f04f 0300 	mov.w	r3, #0
    24d4:	62bb      	str	r3, [r7, #40]	; 0x28
/home/palatrauss/optee_with_ftpm_ta/optee_os/lib/libutee/tee_api.c:106
    24d6:	f04f 0301 	mov.w	r3, #1
    24da:	62fb      	str	r3, [r7, #44]	; 0x2c
/home/palatrauss/optee_with_ftpm_ta/optee_os/lib/libutee/tee_api.c:114
    24dc:	68bb      	ldr	r3, [r7, #8]
    24de:	f04f 0200 	mov.w	r2, #0
    24e2:	601a      	str	r2, [r3, #0]
/home/palatrauss/optee_with_ftpm_ta/optee_os/lib/libutee/tee_api.c:115
    24e4:	687b      	ldr	r3, [r7, #4]
    24e6:	f04f 0200 	mov.w	r2, #0
    24ea:	601a      	str	r2, [r3, #0]
/home/palatrauss/optee_with_ftpm_ta/optee_os/lib/libutee/tee_api.c:116
    24ec:	f04f 0300 	mov.w	r3, #0
    24f0:	617b      	str	r3, [r7, #20]
    24f2:	e05b      	b.n	25ac <map_tmp_param+0x124>
/home/palatrauss/optee_with_ftpm_ta/optee_os/lib/libutee/tee_api.c:117
    24f4:	697b      	ldr	r3, [r7, #20]
    24f6:	ea4f 0383 	mov.w	r3, r3, lsl #2
    24fa:	683a      	ldr	r2, [r7, #0]
    24fc:	4413      	add	r3, r2
    24fe:	f04f 0200 	mov.w	r2, #0
    2502:	601a      	str	r2, [r3, #0]
/home/palatrauss/optee_with_ftpm_ta/optee_os/lib/libutee/tee_api.c:118
    2504:	68fb      	ldr	r3, [r7, #12]
    2506:	e9d3 2300 	ldrd	r2, r3, [r3]
    250a:	697b      	ldr	r3, [r7, #20]
    250c:	ea4f 0383 	mov.w	r3, r3, lsl #2
    2510:	fa22 f303 	lsr.w	r3, r2, r3
    2514:	f003 030f 	and.w	r3, r3, #15
    2518:	f1a3 0305 	sub.w	r3, r3, #5
    251c:	2b02      	cmp	r3, #2
    251e:	d83e      	bhi.n	259e <map_tmp_param+0x116>
/home/palatrauss/optee_with_ftpm_ta/optee_os/lib/libutee/tee_api.c:122
    2520:	697b      	ldr	r3, [r7, #20]
    2522:	ea4f 0343 	mov.w	r3, r3, lsl #1
    2526:	68fa      	ldr	r2, [r7, #12]
    2528:	f103 0301 	add.w	r3, r3, #1
    252c:	ea4f 03c3 	mov.w	r3, r3, lsl #3
    2530:	4413      	add	r3, r2
    2532:	e9d3 2300 	ldrd	r2, r3, [r3]
    2536:	4613      	mov	r3, r2
    2538:	627b      	str	r3, [r7, #36]	; 0x24
/home/palatrauss/optee_with_ftpm_ta/optee_os/lib/libutee/tee_api.c:123
    253a:	697b      	ldr	r3, [r7, #20]
    253c:	ea4f 0343 	mov.w	r3, r3, lsl #1
    2540:	f103 0301 	add.w	r3, r3, #1
    2544:	68fa      	ldr	r2, [r7, #12]
    2546:	f103 0301 	add.w	r3, r3, #1
    254a:	ea4f 03c3 	mov.w	r3, r3, lsl #3
    254e:	4413      	add	r3, r2
    2550:	e9d3 2300 	ldrd	r2, r3, [r3]
    2554:	4613      	mov	r3, r2
    2556:	62bb      	str	r3, [r7, #40]	; 0x28
/home/palatrauss/optee_with_ftpm_ta/optee_os/lib/libutee/tee_api.c:133
    2558:	6a7b      	ldr	r3, [r7, #36]	; 0x24
    255a:	2b00      	cmp	r3, #0
    255c:	d021      	beq.n	25a2 <map_tmp_param+0x11a>
/home/palatrauss/optee_with_ftpm_ta/optee_os/lib/libutee/tee_api.c:133 (discriminator 1)
    255e:	6abb      	ldr	r3, [r7, #40]	; 0x28
    2560:	2b00      	cmp	r3, #0
    2562:	d01e      	beq.n	25a2 <map_tmp_param+0x11a>
/home/palatrauss/optee_with_ftpm_ta/optee_os/lib/libutee/tee_api.c:134 (discriminator 2)
    2564:	6aba      	ldr	r2, [r7, #40]	; 0x28
    2566:	6a79      	ldr	r1, [r7, #36]	; 0x24
    2568:	6af8      	ldr	r0, [r7, #44]	; 0x2c
    256a:	f000 fe8f 	bl	328c <TEE_CheckMemoryAccessRights>
    256e:	4603      	mov	r3, r0
/home/palatrauss/optee_with_ftpm_ta/optee_os/lib/libutee/tee_api.c:133 (discriminator 2)
    2570:	2b00      	cmp	r3, #0
    2572:	d116      	bne.n	25a2 <map_tmp_param+0x11a>
/home/palatrauss/optee_with_ftpm_ta/optee_os/lib/libutee/tee_api.c:135
    2574:	f107 0230 	add.w	r2, r7, #48	; 0x30
    2578:	697b      	ldr	r3, [r7, #20]
    257a:	4413      	add	r3, r2
    257c:	f04f 0201 	mov.w	r2, #1
    2580:	701a      	strb	r2, [r3, #0]
/home/palatrauss/optee_with_ftpm_ta/optee_os/lib/libutee/tee_api.c:136
    2582:	6a3a      	ldr	r2, [r7, #32]
    2584:	6abb      	ldr	r3, [r7, #40]	; 0x28
    2586:	4413      	add	r3, r2
    2588:	f103 32ff 	add.w	r2, r3, #4294967295	; 0xffffffff
    258c:	6a3b      	ldr	r3, [r7, #32]
    258e:	f1c3 0300 	rsb	r3, r3, #0
    2592:	ea03 0302 	and.w	r3, r3, r2
    2596:	69fa      	ldr	r2, [r7, #28]
    2598:	4413      	add	r3, r2
    259a:	61fb      	str	r3, [r7, #28]
/home/palatrauss/optee_with_ftpm_ta/optee_os/lib/libutee/tee_api.c:138
    259c:	e001      	b.n	25a2 <map_tmp_param+0x11a>
/home/palatrauss/optee_with_ftpm_ta/optee_os/lib/libutee/tee_api.c:140
    259e:	bf00      	nop
    25a0:	e000      	b.n	25a4 <map_tmp_param+0x11c>
/home/palatrauss/optee_with_ftpm_ta/optee_os/lib/libutee/tee_api.c:138
    25a2:	bf00      	nop
/home/palatrauss/optee_with_ftpm_ta/optee_os/lib/libutee/tee_api.c:116 (discriminator 2)
    25a4:	697b      	ldr	r3, [r7, #20]
    25a6:	f103 0301 	add.w	r3, r3, #1
    25aa:	617b      	str	r3, [r7, #20]
/home/palatrauss/optee_with_ftpm_ta/optee_os/lib/libutee/tee_api.c:116 (discriminator 1)
    25ac:	697b      	ldr	r3, [r7, #20]
    25ae:	2b03      	cmp	r3, #3
    25b0:	d9a0      	bls.n	24f4 <map_tmp_param+0x6c>
/home/palatrauss/optee_with_ftpm_ta/optee_os/lib/libutee/tee_api.c:144
    25b2:	69fb      	ldr	r3, [r7, #28]
    25b4:	2b00      	cmp	r3, #0
    25b6:	d013      	beq.n	25e0 <map_tmp_param+0x158>
/home/palatrauss/optee_with_ftpm_ta/optee_os/lib/libutee/tee_api.c:145
    25b8:	f04f 0104 	mov.w	r1, #4
    25bc:	69f8      	ldr	r0, [r7, #28]
    25be:	f009 f945 	bl	b84c <tee_map_zi>
    25c2:	61b8      	str	r0, [r7, #24]
/home/palatrauss/optee_with_ftpm_ta/optee_os/lib/libutee/tee_api.c:146
    25c4:	69bb      	ldr	r3, [r7, #24]
    25c6:	2b00      	cmp	r3, #0
    25c8:	d104      	bne.n	25d4 <map_tmp_param+0x14c>
/home/palatrauss/optee_with_ftpm_ta/optee_os/lib/libutee/tee_api.c:147
    25ca:	f04f 030c 	mov.w	r3, #12
    25ce:	f6cf 73ff 	movt	r3, #65535	; 0xffff
    25d2:	e08e      	b.n	26f2 <map_tmp_param+0x26a>
/home/palatrauss/optee_with_ftpm_ta/optee_os/lib/libutee/tee_api.c:148
    25d4:	68bb      	ldr	r3, [r7, #8]
    25d6:	69ba      	ldr	r2, [r7, #24]
    25d8:	601a      	str	r2, [r3, #0]
/home/palatrauss/optee_with_ftpm_ta/optee_os/lib/libutee/tee_api.c:149
    25da:	687b      	ldr	r3, [r7, #4]
    25dc:	69fa      	ldr	r2, [r7, #28]
    25de:	601a      	str	r2, [r3, #0]
/home/palatrauss/optee_with_ftpm_ta/optee_os/lib/libutee/tee_api.c:152
    25e0:	f04f 0300 	mov.w	r3, #0
    25e4:	617b      	str	r3, [r7, #20]
    25e6:	e07e      	b.n	26e6 <map_tmp_param+0x25e>
/home/palatrauss/optee_with_ftpm_ta/optee_os/lib/libutee/tee_api.c:153
    25e8:	68fb      	ldr	r3, [r7, #12]
    25ea:	e9d3 2300 	ldrd	r2, r3, [r3]
    25ee:	697b      	ldr	r3, [r7, #20]
    25f0:	ea4f 0383 	mov.w	r3, r3, lsl #2
    25f4:	fa22 f303 	lsr.w	r3, r2, r3
    25f8:	f003 030f 	and.w	r3, r3, #15
    25fc:	f1a3 0305 	sub.w	r3, r3, #5
    2600:	2b02      	cmp	r3, #2
    2602:	d867      	bhi.n	26d4 <map_tmp_param+0x24c>
/home/palatrauss/optee_with_ftpm_ta/optee_os/lib/libutee/tee_api.c:157
    2604:	f107 0230 	add.w	r2, r7, #48	; 0x30
    2608:	697b      	ldr	r3, [r7, #20]
    260a:	4413      	add	r3, r2
    260c:	781b      	ldrb	r3, [r3, #0]
    260e:	f083 0301 	eor.w	r3, r3, #1
    2612:	b2db      	uxtb	r3, r3
    2614:	2b00      	cmp	r3, #0
    2616:	d15f      	bne.n	26d8 <map_tmp_param+0x250>
/home/palatrauss/optee_with_ftpm_ta/optee_os/lib/libutee/tee_api.c:159
    2618:	697b      	ldr	r3, [r7, #20]
    261a:	ea4f 0343 	mov.w	r3, r3, lsl #1
    261e:	f103 0301 	add.w	r3, r3, #1
    2622:	68fa      	ldr	r2, [r7, #12]
    2624:	f103 0301 	add.w	r3, r3, #1
    2628:	ea4f 03c3 	mov.w	r3, r3, lsl #3
    262c:	4413      	add	r3, r2
    262e:	e9d3 2300 	ldrd	r2, r3, [r3]
    2632:	4613      	mov	r3, r2
    2634:	62bb      	str	r3, [r7, #40]	; 0x28
/home/palatrauss/optee_with_ftpm_ta/optee_os/lib/libutee/tee_api.c:160
    2636:	697b      	ldr	r3, [r7, #20]
    2638:	ea4f 0343 	mov.w	r3, r3, lsl #1
    263c:	68fa      	ldr	r2, [r7, #12]
    263e:	f103 0301 	add.w	r3, r3, #1
    2642:	ea4f 03c3 	mov.w	r3, r3, lsl #3
    2646:	4413      	add	r3, r2
    2648:	e9d3 2300 	ldrd	r2, r3, [r3]
    264c:	4613      	mov	r3, r2
    264e:	627b      	str	r3, [r7, #36]	; 0x24
/home/palatrauss/optee_with_ftpm_ta/optee_os/lib/libutee/tee_api.c:161
    2650:	697b      	ldr	r3, [r7, #20]
    2652:	ea4f 0383 	mov.w	r3, r3, lsl #2
    2656:	683a      	ldr	r2, [r7, #0]
    2658:	4413      	add	r3, r2
