
out/5dbac793-f574-4871-8ad3-04331ec17f24.elf:     file format elf32-littlearm
out/5dbac793-f574-4871-8ad3-04331ec17f24.elf
architecture: armv7, flags 0x00000150:
HAS_SYMS, DYNAMIC, D_PAGED
start address 0x00000958

Program Header:
0x70000001 off    0x0001e470 vaddr 0x0001d470 paddr 0x0001d470 align 2**2
         filesz 0x000010d8 memsz 0x000010d8 flags r--
    LOAD off    0x00001000 vaddr 0x00000000 paddr 0x00000000 align 2**12
         filesz 0x0001e620 memsz 0x0001e620 flags r-x
    LOAD off    0x00020000 vaddr 0x0001f000 paddr 0x0001f000 align 2**12
         filesz 0x00000434 memsz 0x0000bca8 flags rw-
 DYNAMIC off    0x00020000 vaddr 0x0001f000 paddr 0x0001f000 align 2**2
         filesz 0x00000088 memsz 0x00000088 flags rw-
   STACK off    0x00000000 vaddr 0x00000000 paddr 0x00000000 align 2**4
         filesz 0x00000000 memsz 0x00000000 flags rw-

Dynamic Section:
  HASH                 0x0001e5f0
  GNU_HASH             0x0001bc54
  STRTAB               0x0001e5b8
  SYMTAB               0x0001e548
  STRSZ                0x00000036
  SYMENT               0x00000010
  DEBUG                0x00000000
  REL                  0x0001f0f8
  RELSZ                0x000001f0
  RELENT               0x00000008
  FLAGS_1              0x08000000
  RELCOUNT             0x00000025
private flags = 0x5000400: [Version5 EABI] [hard-float ABI]

Sections:
Idx Name          Size      VMA       LMA       File off  Algn
  0 .text         0001a70a  00000000  00000000  00001000  2**2
                  CONTENTS, ALLOC, LOAD, READONLY, CODE
  1 .rodata       00001545  0001a70c  0001a70c  0001b70c  2**2
                  CONTENTS, ALLOC, LOAD, READONLY, DATA
  2 .gnu.hash     00000030  0001bc54  0001bc54  0001cc54  2**2
                  CONTENTS, ALLOC, LOAD, READONLY, DATA
  3 .ta_head      00000020  0001bc88  0001bc88  0001cc88  2**3
                  CONTENTS, ALLOC, LOAD, READONLY, DATA
  4 .ARM.extab    000017c8  0001bca8  0001bca8  0001cca8  2**2
                  CONTENTS, ALLOC, LOAD, READONLY, DATA
  5 .ARM.exidx    000010d8  0001d470  0001d470  0001e470  2**2
                  CONTENTS, ALLOC, LOAD, READONLY, DATA
  6 .dynsym       00000070  0001e548  0001e548  0001f548  2**2
                  CONTENTS, ALLOC, LOAD, READONLY, DATA
  7 .dynstr       00000036  0001e5b8  0001e5b8  0001f5b8  2**0
                  CONTENTS, ALLOC, LOAD, READONLY, DATA
  8 .hash         00000030  0001e5f0  0001e5f0  0001f5f0  2**2
                  CONTENTS, ALLOC, LOAD, READONLY, DATA
  9 .dynamic      00000088  0001f000  0001f000  00020000  2**2
                  CONTENTS, ALLOC, LOAD, DATA
 10 .got          00000070  0001f088  0001f088  00020088  2**2
                  CONTENTS, ALLOC, LOAD, DATA
 11 .rel.got      000000c8  0001f220  0001f220  00020220  2**2
                  CONTENTS, ALLOC, LOAD, READONLY, DATA
 12 .data         0000014c  0001f2e8  0001f2e8  000202e8  2**2
                  CONTENTS, ALLOC, LOAD, DATA
 13 .bss          0000b874  0001f434  0001f434  00020434  2**2
                  ALLOC
 14 .debug_info   0001401c  00000000  00000000  00020434  2**0
                  CONTENTS, READONLY, DEBUGGING, OCTETS
 15 .debug_abbrev 00003cb8  00000000  00000000  00034450  2**0
                  CONTENTS, READONLY, DEBUGGING, OCTETS
 16 .debug_aranges 000006a8  00000000  00000000  00038108  2**3
                  CONTENTS, READONLY, DEBUGGING, OCTETS
 17 .debug_macro  00031973  00000000  00000000  000387b0  2**0
                  CONTENTS, READONLY, DEBUGGING, OCTETS
 18 .debug_line   0000dd2a  00000000  00000000  0006a123  2**0
                  CONTENTS, READONLY, DEBUGGING, OCTETS
 19 .debug_str    0001e409  00000000  00000000  00077e4d  2**0
                  CONTENTS, READONLY, DEBUGGING, OCTETS
 20 .comment      00000033  00000000  00000000  00096256  2**0
                  CONTENTS, READONLY
 21 .ARM.attributes 00000033  00000000  00000000  00096289  2**0
                  CONTENTS, READONLY
 22 .debug_frame  000055ec  00000000  00000000  000962bc  2**2
                  CONTENTS, READONLY, DEBUGGING, OCTETS
 23 .rel.dyn      00000128  0001f0f8  0001f0f8  000200f8  2**2
                  CONTENTS, ALLOC, LOAD, READONLY, DATA
 24 .debug_line_str 0000015a  00000000  00000000  0009b8a8  2**0
                  CONTENTS, READONLY, DEBUGGING, OCTETS
 25 .debug_rnglists 000001aa  00000000  00000000  0009ba02  2**0
                  CONTENTS, READONLY, DEBUGGING, OCTETS
SYMBOL TABLE:
00000000 l    d  .text	00000000 .text
0001a70c l    d  .rodata	00000000 .rodata
0001bc54 l    d  .gnu.hash	00000000 .gnu.hash
0001bc88 l    d  .ta_head	00000000 .ta_head
0001bca8 l    d  .ARM.extab	00000000 .ARM.extab
0001d470 l    d  .ARM.exidx	00000000 .ARM.exidx
0001e548 l    d  .dynsym	00000000 .dynsym
0001e5b8 l    d  .dynstr	00000000 .dynstr
0001e5f0 l    d  .hash	00000000 .hash
0001f000 l    d  .dynamic	00000000 .dynamic
0001f088 l    d  .got	00000000 .got
0001f220 l    d  .rel.got	00000000 .rel.got
0001f2e8 l    d  .data	00000000 .data
0001f434 l    d  .bss	00000000 .bss
00000000 l    d  .debug_info	00000000 .debug_info
00000000 l    d  .debug_abbrev	00000000 .debug_abbrev
00000000 l    d  .debug_aranges	00000000 .debug_aranges
00000000 l    d  .debug_macro	00000000 .debug_macro
00000000 l    d  .debug_line	00000000 .debug_line
00000000 l    d  .debug_str	00000000 .debug_str
00000000 l    d  .comment	00000000 .comment
00000000 l    d  .ARM.attributes	00000000 .ARM.attributes
00000000 l    d  .debug_frame	00000000 .debug_frame
0001f0f8 l    d  .rel.dyn	00000000 .rel.dyn
00000000 l    d  .debug_line_str	00000000 .debug_line_str
00000000 l    d  .debug_rnglists	00000000 .debug_rnglists
00000000 l    df *ABS*	00000000 aes_ta.c
00000000 l     F .text	00000094 ta2tee_algo_id
0001a8ec l     O .rodata	0000000f __func__.9
00000094 l     F .text	0000005c ta2tee_key_size
0001a8fc l     O .rodata	00000010 __func__.8
000000f0 l     F .text	0000006c ta2tee_mode_id
0001a90c l     O .rodata	0000000f __func__.7
0000015c l     F .text	000002a0 alloc_resources
0001a91c l     O .rodata	00000010 __func__.6
000003fc l     F .text	00000188 set_aes_key
0001a92c l     O .rodata	0000000c __func__.5
00000584 l     F .text	00000078 reset_aes_iv
0001a938 l     O .rodata	0000000d __func__.4
000005fc l     F .text	000000ec cipher_buffer
0001a948 l     O .rodata	0000000e __func__.3
0001a958 l     O .rodata	00000020 __func__.2
0001a978 l     O .rodata	0000001a __func__.1
0001a994 l     O .rodata	00000022 __func__.0
00000000 l    df *ABS*	00000000 user_ta_header.c
0001a9c4 l     O .rodata	00000001 __compound_literal.0
0001a9c5 l     O .rodata	00000001 __compound_literal.1
0001a9c6 l     O .rodata	00000001 __compound_literal.2
0001a9c8 l     O .rodata	00000004 __compound_literal.3
0001a9cc l     O .rodata	00000004 __compound_literal.4
0001a9d0 l     O .rodata	00000004 __compound_literal.5
0001a9d4 l     O .rodata	00000001 __compound_literal.6
0001a9d8 l     O .rodata	00000004 __compound_literal.7
00027435 l     O .bss	00000001 stack_canary_inited.0
00000000 l    df *ABS*	00000000 ta_entry_a32.o
00000000 l    df *ABS*	00000000 stack_check.c
00000000 l    df *ABS*	00000000 trace.c
000009fc l     F .text	00000054 trace_level_to_string
0001ab5c l     O .rodata	00000005 lvl_strs.0
00000a50 l     F .text	00000060 print_thread_id
00000ab0 l     F .text	0000001e print_core_id
00000ace l     F .text	0000001e print_guest_id
00000000 l    df *ABS*	00000000 snprintk.c
0001ab64 l     O .rodata	00000011 hexdigits
0001ab78 l     O .rodata	00000011 HEXDIGITS
000012ac l     F .text	00000e88 kprintf
0000120c l     F .text	000000a0 uuid2str
00000000 l    df *ABS*	00000000 arm32_aeabi_ldivmod_a32.o
00000000 l    df *ABS*	00000000 arm32_aeabi_ldivmod.c
00002164 l     F .text	0000012a division_lqr
0000228e l     F .text	0000007c ul_div_qr
00000000 l    df *ABS*	00000000 trace_ext.c
00000000 l    df *ABS*	00000000 tee_api.c
00027440 l     O .bss	00000004 tee_api_instance_data
00002670 l     F .text	00000152 copy_param
000027c2 l     F .text	00000152 copy_gp11_param
00002914 l     F .text	000002a0 map_tmp_param
00002bb4 l     F .text	00000110 update_out_param
00002cc4 l     F .text	00000116 update_out_gp11_param
00002dda l     F .text	0000006a bufs_intersect
00002e44 l     F .text	000000d4 check_mem_access_rights_params
00002f18 l     F .text	00000050 buf_overlaps_no_share_heap
00002f68 l     F .text	000000bc check_invoke_param
0001ac00 l     O .rodata	0000000b __func__.0
00003b88 l     F .text	00000020 addr_is_in_no_share_heap
00000000 l    df *ABS*	00000000 tee_api_objects.c
00000000 l    df *ABS*	00000000 tee_api_operations.c
00005e98 l     F .text	00000020 _assert_trap
00005eb8 l     F .text	000000aa __tee_alg_get_class
00005f62 l     F .text	00000184 __tee_alg_get_main_alg
000060e6 l     F .text	00000036 __tee_alg_get_key_type
0000611c l     F .text	000002f8 __tee_alg_get_digest_size
000076fc l     F .text	0000005e reset_operation_state
00007956 l     F .text	00000272 set_operation_key2
00007d9e l     F .text	00000048 init_hash_operation
0001ac48 l     O .rodata	00000012 __func__.0
00008354 l     F .text	0000037c tee_buffer_update
0000935e l     F .text	0000015a ae_update_helper
00000000 l    df *ABS*	00000000 tee_api_panic.c
0000b882 l     F .text	00000024 check_res
0000b8a6 l     F .text	00000040 check_access
00000000 l    df *ABS*	00000000 tee_system_pta.c
0000bb78 l     F .text	00000064 reg_pair_to_64
0000bbdc l     F .text	0000002e high32_from_64
0000bc0a l     F .text	0000001c low32_from_64
0000bc26 l     F .text	00000036 reg_pair_from_64
0000bc5c l     F .text	0000007c invoke_system_pta
00027444 l     O .bss	00000004 sess.3
0001ad1c l     O .rodata	00000010 uuid.2
0001ad2c l     O .rodata	0000000a __func__.1
0001ad38 l     O .rodata	00000017 __func__.0
00000000 l    df *ABS*	00000000 user_ta_entry.c
0000bf8c l     F .text	00000018 memtag_init_ops
0000bfa4 l     F .text	00000010 __utee_gprof_init
0000bfb4 l     F .text	00000010 __utee_gprof_fini
0001f374 l     O .data	00000008 ta_sessions
0002747c l     O .bss	00000001 init_done
0001f37c l     O .data	00000008 __phdr_info_head
00027480 l     O .bss	00000004 _num_mod_init
0000bfc4 l     F .text	000000cc _init_iterate_phdr_cb
0001ada4 l     O .rodata	00000016 __func__.0
0000c090 l     F .text	000000fc _get_fn_array
0000c308 l     F .text	000000a8 _fini_iterate_phdr_cb
0000c3d0 l     F .text	00000074 get_memtag_implementation
0000c444 l     F .text	000000c0 init_instance
0000c504 l     F .text	00000018 uninit_instance
0000c51c l     F .text	00000058 ta_header_save_params
0000c574 l     F .text	00000044 ta_header_get_session
0000c5b8 l     F .text	000000c0 ta_header_add_session
0000c678 l     F .text	000000d4 ta_header_remove_session
0000c74c l     F .text	00000182 to_utee_params
0000c8ce l     F .text	000000e2 from_utee_params
0000c9b0 l     F .text	000000c4 entry_open_session
0000ca74 l     F .text	00000040 entry_close_session
0000cab4 l     F .text	000000a4 entry_invoke_command
00000000 l    df *ABS*	00000000 user_ta_entry_compat.c
0000cbcc l     F .text	000000c4 to_gp11_param
0000cc90 l     F .text	000000c4 from_gp11_param
00000000 l    df *ABS*	00000000 utee_syscalls_a32.o
00000000 l    df *ABS*	00000000 abort.c
00000000 l    df *ABS*	00000000 assert.c
00000000 l    df *ABS*	00000000 tee_api_arith_mpi.c
0000d3c4 l     F .text	00000030 api_panic
0000d3f4 l     F .text	00000030 mpi_panic
00027484 l     O .bss	00003800 data.18
0001aec4 l     O .rodata	00000012 __func__.17
0000d48c l     F .text	00000090 copy_mpi_to_bigint
0000d51c l     F .text	000000a0 get_mpi
0001aed8 l     O .rodata	00000008 __func__.16
0001aee0 l     O .rodata	0000000f __func__.15
0001aef0 l     O .rodata	0000001f __func__.14
0001af10 l     O .rodata	00000019 __func__.13
0001af2c l     O .rodata	00000015 __func__.12
0000df44 l     F .text	00000130 bigint_binary
0001af44 l     O .rodata	0000000e __func__.11
0000e074 l     F .text	000001bc bigint_binary_mod
0001af54 l     O .rodata	00000012 __func__.10
0001af68 l     O .rodata	0000000e __func__.9
0001af78 l     O .rodata	0000000e __func__.8
0001af88 l     O .rodata	0000000e __func__.7
0001af98 l     O .rodata	00000011 __func__.6
0001afac l     O .rodata	00000018 __func__.5
0000e9c0 l     F .text	0000002a mpi_is_odd
0000e9ea l     F .text	00000032 mpi_is_even
0001afc4 l     O .rodata	00000011 __func__.4
0000ec0c l     F .text	00000764 mpi_egcd
0001afd8 l     O .rodata	00000009 __func__.3
0001afe4 l     O .rodata	0000001d __func__.2
0000f638 l     F .text	00000030 rng_read
0001b004 l     O .rodata	00000019 __func__.1
0001b020 l     O .rodata	00000015 __func__.0
00000000 l    df *ABS*	00000000 tee_api_property.c
0001b038 l     O .rodata	00000004 __compound_literal.0
0001b03c l     O .rodata	00000004 __compound_literal.1
0001b040 l     O .rodata	00000004 __compound_literal.2
0001b044 l     O .rodata	00000004 __compound_literal.3
0000fa54 l     F .text	00000090 propset_get
0000fae4 l     F .text	00000174 propget_get_ext_prop
0000fc58 l     F .text	00000040 is_propset_pseudo_handle
0000fc98 l     F .text	000001dc propget_get_property
00000000 l    df *ABS*	00000000 tcb.c
00010a70 l     F .text	00000020 _assert_trap
0002ac84 l     O .bss	00000004 _tcb
0002ac88 l     O .bss	00000004 _tls_size
0001b170 l     O .rodata	00000010 __func__.1
0001b180 l     O .rodata	00000010 __func__.0
00000000 l    df *ABS*	00000000 bignum.c
00010ed8 l     F .text	00000030 mbedtls_ct_compiler_opaque
00010f08 l     F .text	00000040 mbedtls_ct_bool
00010f48 l     F .text	0000003a mbedtls_ct_if
00010f82 l     F .text	00000040 mbedtls_ct_uint_ne
00010fc2 l     F .text	00000024 mbedtls_ct_uint_if
00010fe6 l     F .text	00000022 mbedtls_ct_size_if_else_0
00011008 l     F .text	00000022 mbedtls_ct_uint_if_else_0
0001102a l     F .text	00000022 mbedtls_ct_mpi_uint_if_else_0
0001104c l     F .text	00000024 mbedtls_ct_uint_eq
00011070 l     F .text	00000022 mbedtls_ct_bool_ne
00011092 l     F .text	00000022 mbedtls_ct_bool_and
000110b4 l     F .text	00000022 mbedtls_ct_bool_or
000110d6 l     F .text	0000001e mbedtls_ct_bool_not
000110f4 l     F .text	00000042 mbedtls_ct_mpi_sign_if
000113cc l     F .text	0000003a mpi_init
0001177c l     F .text	00000066 mbedtls_mpi_resize_clear
00011954 l     F .text	00000028 mpi_sint_abs
00011bc6 l     F .text	00000082 mpi_get_digit
00011e60 l     F .text	00000108 mpi_write_hlp
000128fc l     F .text	000000b6 add_sub_mpi
00012d80 l     F .text	000000d6 mbedtls_int_div_int
000137c8 l     F .text	0000007c mpi_select
0001b1a4 l     O .rodata	000000a7 small_prime_gaps
00014868 l     F .text	000000d0 mpi_check_small_factors
00014938 l     F .text	000002f4 mpi_miller_rabin
0001b24c l     O .rodata	00000024 gcd_pairs
00000000 l    df *ABS*	00000000 bignum_core.c
00015554 l     F .text	00000044 mbedtls_bswap32
00015598 l     F .text	00000030 mbedtls_ct_compiler_opaque
000155c8 l     F .text	00000040 mbedtls_ct_bool
00015608 l     F .text	0000003a mbedtls_ct_if
00015642 l     F .text	0000005e mbedtls_ct_uint_lt
000156a0 l     F .text	00000040 mbedtls_ct_uint_ne
000156e0 l     F .text	00000024 mbedtls_ct_mpi_uint_if
00015704 l     F .text	00000022 mbedtls_ct_mpi_uint_if_else_0
00015726 l     F .text	00000024 mbedtls_ct_uint_eq
0001574a l     F .text	00000024 mbedtls_ct_uint_ge
0001576e l     F .text	00000022 mbedtls_ct_bool_and
00015790 l     F .text	00000022 mbedtls_ct_bool_or
000157b2 l     F .text	0000001e mbedtls_ct_bool_not
00015856 l     F .text	0000001e mpi_bigendian_to_host
00016e6e l     F .text	00000056 mbedtls_mpi_core_ct_uint_table_lookup
0001704a l     F .text	00000028 exp_mod_get_window_size
000170c6 l     F .text	000000b6 exp_mod_precompute_window
00000000 l    df *ABS*	00000000 constant_time.c
00017458 l     F .text	00000030 mbedtls_ct_compiler_opaque
00017488 l     F .text	00000040 mbedtls_ct_bool
000174c8 l     F .text	0000003a mbedtls_ct_if
00017502 l     F .text	0000005e mbedtls_ct_uint_lt
00017560 l     F .text	00000040 mbedtls_ct_uint_ne
000175a0 l     F .text	00000024 mbedtls_ct_uint_if
000175c4 l     F .text	00000022 mbedtls_ct_uint_if_else_0
000175e6 l     F .text	00000024 mbedtls_ct_uint_eq
0001760a l     F .text	00000020 mbedtls_ct_uint_gt
0001762a l     F .text	00000024 mbedtls_ct_uint_ge
0001764e l     F .text	00000022 mbedtls_ct_bool_and
00000000 l    df *ABS*	00000000 platform_util.c
0001f3b4 l     O .data	00000004 memset_func
00000000 l    df *ABS*	00000000 bget_malloc.c
00017a08 l     F .text	00000020 _assert_trap
00017a28 l     F .text	00000024 memset_unchecked
00017a4c l     F .text	00000024 memcpy_unchecked
00017a70 l     F .text	00000090 buf_get_pos
0001badc l     O .rodata	00000005 __func__.9
0001bae4 l     O .rodata	00000006 __func__.8
0001baec l     O .rodata	00000006 __func__.7
0001baf4 l     O .rodata	00000005 __func__.6
0001bafc l     O .rodata	00000006 __func__.5
0001bb04 l     O .rodata	00000007 __func__.4
0002ac94 l     O .bss	00000004 bchain
0002ac98 l     O .bss	00000004 bp
0001f3b8 l     O .data	00000004 next
0002ac9c l     O .bss	00000004 mymalloc
0002aca0 l     O .bss	00000004 myfree
0001f3bc l     O .data	0000001c mypoolset
000184a0 l     F .text	0000004c myrand
000184ec l     F .text	00000024 mysrand
00018510 l     F .text	00000098 stats
000185a8 l     F .text	0000003e blimit
0001bb0c l     O .rodata	0000000f __func__.3
000189ec l     F .text	0000001c malloc_lock
00018a08 l     F .text	0000001a malloc_unlock
0001f3d8 l     O .data	0000005c malloc_ctx
00018a22 l     F .text	0000001a print_oom
00018a3c l     F .text	00000058 bget_buf_size
0001bb1c l     O .rodata	0000000e __func__.2
00018a94 l     F .text	0000002c maybe_tag_buf
00018ac0 l     F .text	00000026 maybe_untag_buf
00018ae6 l     F .text	0000001a strip_tag
00018b00 l     F .text	0000001a tag_asan_free
00018b1a l     F .text	00000086 raw_malloc_return_hook
00018ba0 l     F .text	00000044 gen_malloc_reset_stats
00018c00 l     F .text	0000002e gen_malloc_get_stats
00018c54 l     F .text	00000018 raw_malloc_validate_pools
00018c6c l     F .text	0000002c bpool_foreach_iterator_init
00018c98 l     F .text	000000d0 bpool_foreach_pool
0001bb2c l     O .rodata	00000013 __func__.1
00018d68 l     F .text	000000ac bpool_foreach
000191f0 l     F .text	0000004c free_helper
00019290 l     F .text	0000002e realloc_unlocked
0001939c l     F .text	00000026 get_payload_start_size
000193fe l     F .text	00000032 gen_malloc_add_pool
00019430 l     F .text	0000003e gen_malloc_buffer_is_within_alloced
0001946e l     F .text	0000003e gen_malloc_buffer_overlaps_heap
0001bb40 l     O .rodata	00000014 __func__.0
00000000 l    df *ABS*	00000000 snprintf.c
00000000 l    df *ABS*	00000000 mempool.c
0001992c l     F .text	00000020 _assert_trap
0001994c l     F .text	00000094 init_mpool
0001bbe0 l     O .rodata	0000000b __func__.2
000199e0 l     F .text	00000018 get_pool
000199f8 l     F .text	00000018 put_pool
0001bbec l     O .rodata	00000013 __func__.1
0001bc00 l     O .rodata	0000000e __func__.0
00000000 l    df *ABS*	00000000 base64.c
0001bc10 l     O .rodata	00000041 base64_table
00019da4 l     F .text	0000006c get_idx
00000000 l    df *ABS*	00000000 aeabi_unwind.c
00000000 l    df *ABS*	00000000 memchr.c
00000000 l    df *ABS*	00000000 strlen.c
00000000 l    df *ABS*	00000000 memcpy.c
00000000 l    df *ABS*	00000000 memmove.c
00000000 l    df *ABS*	00000000 memset.c
00000000 l    df *ABS*	00000000 strcmp.c
00000000 l    df *ABS*	00000000 strlcpy.c
00000000 l    df *ABS*	00000000 consttime_memcmp.c
00000000 l    df *ABS*	00000000 
0001f000 l     O *ABS*	00000000 _DYNAMIC
0001f088 l     O *ABS*	00000000 _GLOBAL_OFFSET_TABLE_
00002604 g     F .text	0000006c putchar
0000d6f0 g     F .text	00000028 __GP11_TEE_BigIntConvertFromOctetString
00004a34 g     F .text	000001b8 TEE_PopulateTransientObject
0001615e g     F .text	000000b0 mbedtls_mpi_core_add_if
00009226 g     F .text	00000030 __GP11_TEE_AEInit
0000f818 g     F .text	00000024 TEE_BigIntConvertToFMM
0000e764 g     F .text	00000024 TEE_BigIntSquareMod
0000dafc g     F .text	000001ec TEE_BigIntShiftRight
000194ee g     F .text	00000136 raw_malloc_add_pool
0000be88 g     F .text	00000104 tee_invoke_supp_plugin
00016ec4 g     F .text	000000a6 mbedtls_mpi_core_fill_random
000114fc g     F .text	00000118 mbedtls_mpi_grow
000023a0 g     F .text	00000114 __l_divmod
00007de6 g     F .text	0000005c TEE_DigestUpdate
000107b2 g     F .text	0000013e __GP11_TEE_GetPropertyName
00003ba8 g     F .text	000000d8 TEE_Realloc
00015e4a g     F .text	00000152 mbedtls_mpi_core_shift_r
00007bc8 g     F .text	00000042 TEE_SetOperationKey2
00008f58 g     F .text	0000008c __GP11_TEE_MACComputeFinal
0000bb44 g     F .text	00000034 __utee_check_inout_annotation
00018f1a g     F .text	00000036 raw_free
000176e8 g     F .text	000000a8 mbedtls_ct_memcmp_partial
000024ec g     F .text	000000e0 printf
0000df14 g     F .text	00000030 TEE_BigIntAbs
000088e4 g     F .text	0000008c __GP11_TEE_CipherUpdate
00004da4 g     F .text	00000048 TEE_InitRefAttribute
0000cec0 g     F .text	00000014 _utee_log
000032e4 g     F .text	0000017c TEE_InvokeTACommand
00004e7c g     F .text	00000048 __GP11_TEE_InitValueAttribute
0000b8e6 g     F .text	0000005a __utee_check_outbuf_annotation
00015d6a g     F .text	000000e0 mbedtls_mpi_core_write_be
00011424 g     F .text	0000003c mbedtls_mpi_init_mempool
0000d15c g     F .text	00000014 _utee_cryp_random_number_generate
00012284 g     F .text	0000002c mbedtls_mpi_write_binary
00009678 g     F .text	00000280 TEE_AEEncryptFinal
00001104 g     F .text	0000002e vsnprintk
00012a90 g     F .text	00000090 mbedtls_mpi_sub_int
0000a2c8 g     F .text	00000208 __GP11_TEE_AsymmetricDecrypt
0001a2cc g     F .text	0000013e memmove
00019888 g     F .text	00000074 snprintf
0000da8c g     F .text	00000070 TEE_BigIntCmpS32
00003834 g     F .text	00000024 __GP11_TEE_MemMove
0001f370 g     O .data	00000004 __stack_chk_guard
00004e34 g     F .text	00000048 TEE_InitValueAttribute
00011614 g     F .text	00000168 mbedtls_mpi_shrink
0001a00c g     F .text	00000010 __aeabi_unwind_cpp_pr0
000038c4 g     F .text	00000022 __GP11_TEE_MemFill
0000e230 g     F .text	00000034 TEE_BigIntAdd
0000d0bc g     F .text	00000014 _utee_cryp_obj_restrict_usage
0001a9bc g     O .rodata	00000004 ta_heap_size
00004dec g     F .text	00000048 __GP11_TEE_InitRefAttribute
00004980 g     F .text	000000b4 TEE_ResetTransientObject
0000d1e4 g     F .text	00000018 _utee_asymm_operate
00011c48 g     F .text	00000218 mbedtls_mpi_read_string
000051e4 g     F .text	00000160 __GP11_TEE_GenerateKey
00008248 g     F .text	000000ec TEE_CipherInit
000162b8 g     F .text	00000994 mbedtls_mpi_core_mla
0000e298 g     F .text	000000e4 TEE_BigIntNeg
0000d280 g     F .text	00000014 _utee_storage_free_enum
00000000 g       .text	00000000 __text_start
00010970 g     F .text	00000100 TEE_GetNextProperty
000057bc g     F .text	0000005a TEE_StartPersistentObjectEnumerator
00012328 g     F .text	00000032 mbedtls_mpi_shift_r
0001985c g     F .text	0000002c malloc_buffer_overlaps_heap
0000d024 g     F .text	00000014 _utee_hash_init
0000e6f4 g     F .text	00000038 TEE_BigIntSubMod
00014d0c g     F .text	0000032c mbedtls_mpi_gen_prime
000104bc g     F .text	00000080 TEE_GetPropertyAsBinaryBlock
000119fa g     F .text	0000004e mbedtls_mpi_get_bit
00016f6a g     F .text	000000e0 mbedtls_mpi_core_random
0001a9c0 g     O .rodata	00000004 __ta_no_share_heap_size
000121f4 g     F .text	00000064 mbedtls_mpi_read_binary
00009138 g     F .text	000000ee TEE_AEInit
00000aec g     F .text	00000070 trace_printf
000136ec g     F .text	00000060 mbedtls_mpi_montmul
0000d334 g     F .text	00000014 _utee_cache_operation
0001a1da g     F .text	000000f2 memcpy
0001717c g     F .text	0000016a mbedtls_mpi_core_exp_mod
0000f83c g     F .text	000000d0 TEE_BigIntConvertFromFMM
0000b868 g     F .text	0000001a TEE_Panic
0001784a g     F .text	00000082 mbedtls_ct_memcpy_if
0000214c g     F .text	00000018 __aeabi_uldivmod
00007c44 g     F .text	0000015a TEE_CopyOperation
000025cc g     F .text	00000038 puts
0000f90c g     F .text	00000148 TEE_BigIntComputeFMM
00018c2e g     F .text	00000026 malloc_get_stats
00003a14 g     F .text	0000002c TEE_GetREETime
000197d4 g     F .text	00000032 raw_malloc_get_stats
000056ca g     F .text	0000008e TEE_AllocatePersistentObjectEnumerator
0001f2ec g     O .data	00000084 ta_props
00009c78 g     F .text	00000224 TEE_AsymmetricEncrypt
00003b68 g     F .text	00000020 __GP11_TEE_Malloc
00003170 g     F .text	00000144 __GP11_TEE_OpenTASession
0000b998 g     F .text	00000040 __utee_check_instring_annotation
000191a0 g     F .text	00000050 malloc
0000088c g     F .text	00000048 __ta_entry_c
00010760 g     F .text	0000001e TEE_FreePropertyEnumerator
00008334 g     F .text	00000020 __GP11_TEE_CipherInit
00005088 g     F .text	0000015c TEE_GenerateKey
000198fc g     F .text	0000002e vsnprintf
0001f2e8 g     O .data	00000004 trace_level
00005424 g     F .text	0000002c __GP11_TEE_OpenPersistentObject
0000da00 g     F .text	0000008c TEE_BigIntCmp
0001ab1c g     O .rodata	00000004 ta_num_props
00017f38 g     F .text	000000c4 bgetr
0000d214 g     F .text	00000018 _utee_storage_obj_open
0000387c g     F .text	00000024 __GP11_TEE_MemCompare
00019ba0 g     F .text	00000032 mempool_free
000086d0 g     F .text	00000214 TEE_CipherUpdate
0000d038 g     F .text	00000014 _utee_hash_update
0000d718 g     F .text	000000bc TEE_BigIntConvertToOctetString
00007480 g     F .text	000001fc TEE_GetOperationInfoMultiple
00011b7c g     F .text	00000026 mbedtls_mpi_bitlen
0000dd0a g     F .text	0000007a TEE_BigIntGetBit
0001a9b8 g     O .rodata	00000003 trace_ext_prefix
0000d2bc g     F .text	00000014 _utee_storage_next_enum
00018eec g     F .text	0000002e raw_malloc
00017e94 g     F .text	000000a4 bgetz
000037f4 g     F .text	0000001c TEE_GetInstanceData
00003912 g     F .text	00000038 TEE_Wait
00012b20 g     F .text	000001b4 mbedtls_mpi_mul_mpi
0001a02c g     F .text	00000010 __aeabi_unwind_cpp_pr2
0000dce8 g     F .text	00000022 __GP11_TEE_BigIntShiftRight
00003d24 g     F .text	00000024 TEE_CacheFlush
00000b5c g     F .text	00000518 trace_vprintf
000006fc g     F .text	00000010 TA_DestroyEntryPoint
00011406 g     F .text	0000001e mbedtls_mpi_init
0000d244 g     F .text	00000014 _utee_storage_obj_del
00011b12 g     F .text	0000006a mbedtls_mpi_lsb
00008c60 g     F .text	00000098 __GP11_TEE_CipherDoFinal
0000d368 g     F .text	00000048 _assert_log
00009578 g     F .text	00000100 __GP11_TEE_AEUpdate
0000cffc g     F .text	00000014 _utee_cryp_state_copy
0000f7e0 g     F .text	0000001c TEE_BigIntFMMContextSizeInU32
0000bda4 g     F .text	000000e4 tee_unmap
00008fe4 g     F .text	00000128 TEE_MACCompareFinal
00005636 g     F .text	00000070 TEE_RenamePersistentObject
00019bd4 g     F .text	00000036 base64_enc_len
00007e62 g     F .text	00000172 TEE_DigestDoFinal
00004bec g     F .text	000001b8 __GP11_TEE_PopulateTransientObject
0000d424 g     F .text	00000068 _TEE_MathAPI_Init
00010a90 g     F .text	00000308 __utee_tcb_init
000129b2 g     F .text	00000028 mbedtls_mpi_add_mpi
0000d348 g     F .text	00000020 abort
0001434c g     F .text	0000007e mbedtls_mpi_random
0000095c g     F .text	00000034 __stack_chk_fail
0000ba88 g     F .text	00000034 __utee_check_out_annotation
0001f434 g     O .bss	00008000 ta_heap
0000e788 g     F .text	00000140 TEE_BigIntInvMod
00007e42 g     F .text	00000020 __GP11_TEE_DigestUpdate
0000c18c g     F .text	0000017c __utee_call_elf_init_fn
0000415c g     F .text	000000f0 __GP11_TEE_GetObjectInfo
00000784 g     F .text	00000068 TA_CloseSessionEntryPoint
000007ec g     F .text	000000a0 __GP11_TA_InvokeCommandEntryPoint
0000cf2c g     F .text	00000014 _utee_close_ta_session
0000f75c g     F .text	00000022 __GP11_TEE_BigIntInitFMMContext
0000a0a4 g     F .text	00000224 TEE_AsymmetricDecrypt
00004318 g     F .text	000000cc __GP11_TEE_GetObjectInfo1
00005344 g     F .text	000000e0 TEE_OpenPersistentObject
00017354 g     F .text	00000054 mbedtls_mpi_core_check_zero_ct
000129da g     F .text	00000028 mbedtls_mpi_sub_mpi
0001a656 g     F .text	000000b4 consttime_memcmp
0000ceac g     F .text	00000014 _utee_return
0000ced4 g     F .text	00000014 __utee_panic
00017670 g     F .text	00000078 mbedtls_ct_memcmp
00010d98 g     F .text	00000038 __tls_get_addr
0000091c g     F .text	0000003c TA_InvokeCommandEntryPoint
0000c3b0 g     F .text	00000020 __utee_call_elf_fini_fn
000193e0 g     F .text	0000001e free_wipe
00019a80 g     F .text	00000070 mempool_alloc
0000ce98 g     F .text	00000014 _utee_panic
000194c0 g     F .text	0000002e raw_malloc_init_ctx
00019af0 g     F .text	000000b0 mempool_calloc
0000d320 g     F .text	00000014 _utee_cryp_obj_generate_key
0000d2f8 g     F .text	00000014 _utee_storage_obj_trunc
00004ec4 g     F .text	000000a0 TEE_CopyObjectAttributes
0001f384 g     O .data	00000030 tee_props
0000cf80 g     F .text	00000014 _utee_unmask_cancellation
0001073c g     F .text	00000024 TEE_ResetPropertyEnumerator
0001923c g     F .text	00000054 calloc
00003a40 g     F .text	00000128 TEE_Malloc
00019e10 g     F .text	000001fc base64_dec
00003718 g     F .text	00000094 TEE_CheckMemoryAccessRights
0001053c g     F .text	000000c8 TEE_GetPropertyAsUUID
0000230a g     F .text	00000096 __ul_divmod
0000cee8 g     F .text	00000018 _utee_get_property
00007fd4 g     F .text	0000008c __GP11_TEE_DigestDoFinal
0000ddf0 g     F .text	000000b4 TEE_BigIntSetBit
0001197c g     F .text	0000007e mbedtls_mpi_lset
00007c0a g     F .text	0000003a __GP11_TEE_SetOperationKey2
00005a90 g     F .text	000000c8 TEE_ReadObjectData
000044d0 g     F .text	00000128 TEE_GetObjectBufferAttribute
000008e8 g     F .text	00000034 TA_OpenSessionEntryPoint
000172e6 g     F .text	0000006e mbedtls_mpi_core_sub_int
0000070c g     F .text	00000078 __GP11_TA_OpenSessionEntryPoint
000073a6 g     F .text	00000044 TEE_FreeOperation
00010dd0 g     F .text	00000108 dl_iterate_phdr
0002aca8 g       .bss	00000000 __ftrace_buf_end
00027448 g     O .bss	00000004 ta_param_types
00013480 g     F .text	00000090 mbedtls_mpi_div_int
00003d6c g     F .text	0000017e __utee_from_attr
00015c98 g     F .text	000000d2 mbedtls_mpi_core_write_le
00014c2c g     F .text	000000e0 mbedtls_mpi_is_prime_ext
0000f668 g     F .text	0000009c TEE_BigIntIsProbablePrime
00012cd4 g     F .text	000000ac mbedtls_mpi_mul_int
000055f0 g     F .text	00000046 TEE_CloseAndDeletePersistentObject1
00013844 g     F .text	000008a4 mbedtls_mpi_exp_mod
00011250 g     F .text	000000c8 mbedtls_mpi_safe_cond_assign
0000fe74 g     F .text	00000294 TEE_GetPropertyAsString
00011136 g     F .text	0000011a mbedtls_mpi_lt_mpi_ct
000099b0 g     F .text	00000230 TEE_AEDecryptFinal
0000d5bc g     F .text	00000068 TEE_BigIntInit
0000d7d4 g     F .text	00000070 __GP11_TEE_BigIntConvertToOctetString
0000dea4 g     F .text	00000070 TEE_BigIntAssign
0000b9d8 g     F .text	00000058 __utee_check_outstring_annotation
00003810 g     F .text	00000024 TEE_MemMove
00017978 g     F .text	00000064 mbedtls_platform_zeroize
0000d642 g     F .text	000000ae TEE_BigIntConvertFromOctetString
0000d1cc g     F .text	00000018 _utee_authenc_dec_final
0001235a g     F .text	0000011c mbedtls_mpi_cmp_abs
0000d2d0 g     F .text	00000014 _utee_storage_obj_read
00008cf8 g     F .text	00000072 TEE_MACInit
0000a4d0 g     F .text	000001f8 TEE_AsymmetricSignDigest
0001a03c g     F .text	00000114 memchr
00003640 g     F .text	0000006c TEE_UnmaskCancellation
0000406e g     F .text	000000ee TEE_GetObjectInfo
00015038 g     F .text	0000051c mbedtls_mpi_self_test
0000b940 g     F .text	00000058 __utee_check_gp11_outbuf_annotation
0000d30c g     F .text	00000014 _utee_storage_obj_seek
000094b8 g     F .text	000000c0 TEE_AEUpdate
000048cc g     F .text	000000b4 TEE_FreeTransientObject
00015aaa g     F .text	000000ac mbedtls_mpi_core_cond_swap
0000cf6c g     F .text	00000014 _utee_check_access_rights
00015c04 g     F .text	00000094 mbedtls_mpi_core_read_be
00003460 g     F .text	00000174 __GP11_TEE_InvokeTACommand
000125e8 g     F .text	0000008c mbedtls_mpi_cmp_int
0000d294 g     F .text	00000014 _utee_storage_reset_enum
000073ea g     F .text	00000028 __GP11_TEE_FreeOperation
000185e6 g     F .text	00000406 bget_main_test
0000b0c6 g     F .text	0000005a rand
0000babc g     F .text	00000044 __utee_check_attr_in_annotation
0000d19c g     F .text	00000018 _utee_authenc_update_payload
00007412 g     F .text	0000006e TEE_GetOperationInfo
0000e650 g     F .text	0000006c TEE_BigIntMod
000135a4 g     F .text	00000122 mbedtls_mpi_mod_int
0000a6c8 g     F .text	000001f8 __GP11_TEE_AsymmetricSignDigest
00012190 g     F .text	00000064 mbedtls_mpi_read_binary_le
0000e4b0 g     F .text	000001a0 TEE_BigIntDiv
0000d0e4 g     F .text	00000014 _utee_cryp_obj_alloc
0002aca8 g       .bss	00000000 __ftrace_buf_start
0001a5d4 g     F .text	00000082 strlcpy
000117e2 g     F .text	000000fc mbedtls_mpi_copy
000157d0 g     F .text	0000001e mbedtls_mpi_core_clz
0000b120 g     F .text	00000746 TEE_IsAlgorithmSupported
00018be4 g     F .text	0000001c malloc_reset_stats
00010604 g     F .text	000000c8 TEE_GetPropertyAsIdentity
000011d8 g     F .text	00000034 __vsprintf
0001031c g     F .text	000000c8 TEE_GetPropertyAsU64
0000cfd0 g     F .text	00000014 _utee_set_ta_time
0000cf40 g     F .text	00000018 _utee_invoke_ta_command
00004484 g     F .text	0000004c TEE_RestrictObjectUsage1
000192be g     F .text	0000004e realloc
000118de g     F .text	00000076 mbedtls_mpi_swap
00019c0a g     F .text	0000019a base64_enc
00019a10 g     F .text	00000070 mempool_alloc_pool
0000e37c g     F .text	00000114 TEE_BigIntMul
0000775a g     F .text	0000003c TEE_ResetOperation
000194ac g     F .text	00000014 raw_malloc_get_ctx_size
000122b0 g     F .text	00000078 mbedtls_mpi_shift_l
00012476 g     F .text	00000172 mbedtls_mpi_cmp_mpi
000038a0 g     F .text	00000024 TEE_MemFill
00019806 g     F .text	0000002a malloc_add_pool
00008d8a g     F .text	00000082 TEE_MACUpdate
000009d8 g     F .text	00000024 trace_get_level
00012674 g     F .text	0000012e mbedtls_mpi_add_abs
000043e4 g     F .text	000000a0 TEE_RestrictObjectUsage
0000f79e g     F .text	00000026 TEE_BigIntFMMSizeInU32
00010188 g     F .text	000000cc TEE_GetPropertyAsBool
00019054 g     F .text	0000014c raw_realloc
0000f704 g     F .text	0000001e TEE_BigIntInitFMM
000047c0 g     F .text	00000032 TEE_CloseObject
0000d064 g     F .text	00000014 _utee_cipher_init
0000cb58 g     F .text	00000072 __utee_entry
00010254 g     F .text	000000c8 TEE_GetPropertyAsU32
0001a70a g       .text	00000000 __text_end
0000e8c8 g     F .text	000000f8 TEE_BigIntRelativePrime
00013510 g     F .text	00000094 mbedtls_mpi_mod_mpi
00015956 g     F .text	000000dc mbedtls_mpi_core_lt_ct
0000d0a8 g     F .text	00000014 _utee_cryp_obj_get_info
0001620e g     F .text	000000aa mbedtls_mpi_core_sub
0001830c g     F .text	000000f0 bpool
000106cc g     F .text	00000070 TEE_AllocatePropertyEnumerator
0000cfe4 g     F .text	00000018 _utee_cryp_state_alloc
000035d4 g     F .text	0000006c TEE_GetCancellationFlag
0000557c g     F .text	00000042 __GP11_TEE_CreatePersistentObject
000140e8 g     F .text	000001f4 mbedtls_mpi_gcd
000039ce g     F .text	00000046 TEE_SetTAPersistentTime
000179dc g     F .text	0000002a mbedtls_zeroize_and_free
00012258 g     F .text	0000002c mbedtls_mpi_write_binary_le
0001a40a g     F .text	0000011c memset
00018e14 g     F .text	000000d8 raw_memalign
0000394a g     F .text	00000084 TEE_GetTAPersistentTime
00007920 g     F .text	00000036 __GP11_TEE_SetOperationKey
000098f8 g     F .text	000000b8 __GP11_TEE_AEEncryptFinal
00001074 g     F .text	0000001e dhex_dump
00015874 g     F .text	00000072 mbedtls_mpi_core_bigendian_to_host
00005450 g     F .text	0000012c TEE_CreatePersistentObject
000036ac g     F .text	0000006c TEE_MaskCancellation
00009256 g     F .text	00000088 TEE_AEUpdateAAD
00005c7e g     F .text	0000006c TEE_TruncateObjectData
0000d0d0 g     F .text	00000014 _utee_cryp_obj_get_attr
0000424c g     F .text	000000cc TEE_GetObjectInfo1
0000d090 g     F .text	00000018 _utee_cipher_final
00000990 g     F .text	00000048 trace_set_level
000173a8 g     F .text	00000036 mbedtls_mpi_core_to_mont_rep
0000467c g     F .text	00000144 TEE_GetObjectValueAttribute
00007796 g     F .text	0000018a TEE_SetOperationKey
000045f8 g     F .text	00000084 __GP11_TEE_GetObjectBufferAttribute
000178cc g     F .text	0000004e mbedtls_ct_memcpy_offset
0000d010 g     F .text	00000014 _utee_cryp_state_free
0001a526 g     F .text	000000ae strcmp
0000cf14 g     F .text	00000018 _utee_open_ta_session
0000d8f8 g     F .text	00000108 TEE_BigIntConvertToS32
0000e264 g     F .text	00000034 TEE_BigIntSub
00005e5c g     F .text	0000003c __GP11_TEE_SeekObjectData
000008d4 g     F .text	00000014 tahead_get_trace_level
0000d2a8 g     F .text	00000014 _utee_storage_start_enum
00017790 g     F .text	000000ba mbedtls_ct_memmove_left
00005d0a g     F .text	00000152 TEE_SeekObjectData
0000bcd8 g     F .text	000000cc tee_map_zi
00005cea g     F .text	00000020 __GP11_TEE_TruncateObjectData
0001374c g     F .text	0000007c mbedtls_mpi_montred
0001930c g     F .text	00000054 memalign
00008970 g     F .text	000002f0 TEE_CipherDoFinal
0000d624 g     F .text	0000001e __GP11_TEE_BigIntInit
00015f9c g     F .text	00000118 mbedtls_mpi_core_shift_l
0000d844 g     F .text	000000b4 TEE_BigIntConvertFromS32
00012a02 g     F .text	0000008e mbedtls_mpi_add_int
0000d1b4 g     F .text	00000018 _utee_authenc_enc_final
00019830 g     F .text	0000002c malloc_buffer_is_within_alloced
0000d0f8 g     F .text	00000014 _utee_cryp_obj_close
0000b0a8 g     F .text	0000001e __GP11_TEE_GenerateRandom
0000f740 g     F .text	0000001c TEE_BigIntInitFMMContext
0000cf94 g     F .text	00000014 _utee_mask_cancellation
0002746c g     O .bss	00000004 __ta_no_share_malloc_ctx
0000d258 g     F .text	00000014 _utee_storage_obj_rename
00005954 g     F .text	0000013c __GP11_TEE_GetNextPersistentObject
00005bdc g     F .text	0000007e TEE_WriteObjectData
0000578a g     F .text	00000032 TEE_ResetPersistentObjectEnumerator
000037ac g     F .text	00000024 __GP11_TEE_CheckMemoryAccessRights
0000e490 g     F .text	00000020 TEE_BigIntSquare
0000d2e4 g     F .text	00000014 _utee_storage_obj_write
000157ee g     F .text	00000068 mbedtls_mpi_core_bitlen
000006e8 g     F .text	00000014 TA_CreateEntryPoint
00000958 g     F .text	00000004 __ta_entry
00027434 g     O .bss	00000000 __ta_no_share_heap
0000d188 g     F .text	00000014 _utee_authenc_update_aad
000136c6 g     F .text	00000026 mbedtls_mpi_montg_init
00001094 g     F .text	00000070 snprintk
0000dd84 g     F .text	0000006c TEE_BigIntGetBitCount
0000d134 g     F .text	00000014 _utee_cryp_obj_copy
000092de g     F .text	00000080 __GP11_TEE_AEUpdateAAD
0000e72c g     F .text	00000038 TEE_BigIntMulMod
000143ca g     F .text	0000049e mbedtls_mpi_inv_mod
0000bb00 g     F .text	00000044 __utee_check_gp11_attr_in_annotation
0000ac4c g     F .text	00000218 TEE_DeriveKey
0002744c g     O .bss	00000020 ta_params
00012e56 g     F .text	0000062a mbedtls_mpi_div_mpi
0000ba30 g     F .text	00000058 __utee_check_gp11_outstring_annotation
00011ba2 g     F .text	00000024 mbedtls_mpi_size
00017b00 g     F .text	00000394 bget
00005b58 g     F .text	00000084 __GP11_TEE_ReadObjectData
000047f2 g     F .text	0000003c TEE_AllocateTransientObject
00008e0c g     F .text	00000020 __GP11_TEE_MACUpdate
0000f7fc g     F .text	0000001c __GP11_TEE_BigIntFMMContextSizeInU32
0001077e g     F .text	00000034 TEE_StartPropertyEnumerator
0000cfa8 g     F .text	00000014 _utee_wait
00011a48 g     F .text	000000ca mbedtls_mpi_set_bit
000158e6 g     F .text	00000070 mbedtls_mpi_core_uint_le_mpi
00003ca0 g     F .text	00000060 TEE_Free
00003d48 g     F .text	00000024 TEE_CacheInvalidate
0000d3b0 g     F .text	00000014 _assert_break
00017072 g     F .text	00000054 mbedtls_mpi_core_exp_mod_working_limbs
0000e6bc g     F .text	00000038 TEE_BigIntAddMod
0000f722 g     F .text	0000001e __GP11_TEE_BigIntInitFMM
0000cfbc g     F .text	00000014 _utee_get_time
000160b4 g     F .text	000000aa mbedtls_mpi_core_add
000108f0 g     F .text	00000080 TEE_GetPropertyName
00003c80 g     F .text	00000020 __GP11_TEE_Realloc
00006414 g     F .text	00000f92 TEE_AllocateOperation
0000d120 g     F .text	00000014 _utee_cryp_obj_populate
00015b56 g     F .text	000000ae mbedtls_mpi_core_read_le
0000767c g     F .text	00000080 __GP11_TEE_GetOperationInfoMultiple
0002ac90 g     O .bss	00000004 mbedtls_ct_zero
00003eea g     F .text	00000184 __utee_from_gp11_attr
0000b07c g     F .text	0000002c TEE_GenerateRandom
00008060 g     F .text	000001e8 TEE_DigestExtract
00003858 g     F .text	00000024 TEE_MemCompare
0000d078 g     F .text	00000018 _utee_cipher_update
00001132 g     F .text	000000a6 __vsnprintf
00027470 g     O .bss	0000000c __elf_phdr_info
00005758 g     F .text	00000032 TEE_FreePersistentObjectEnumerator
00003024 g     F .text	0000014c TEE_OpenTASession
0001791a g     F .text	0000005c mbedtls_ct_zeroize_if
0000ae64 g     F .text	00000218 __GP11_TEE_DeriveKey
000173de g     F .text	0000007a mbedtls_mpi_core_from_mont_rep
00009be0 g     F .text	00000098 __GP11_TEE_AEDecryptFinal
000024b4 g     F .text	00000024 trace_ext_puts
00010108 g     F .text	00000080 __GP11_TEE_GetPropertyAsString
000196e0 g     F .text	000000f4 raw_malloc_buffer_is_within_alloced
000024d8 g     F .text	00000014 trace_ext_get_thread_id
00019624 g     F .text	000000bc raw_malloc_buffer_overlaps_heap
000055be g     F .text	00000032 TEE_CloseAndDeletePersistentObject
0000d148 g     F .text	00000014 _utee_cryp_derive_key
00011460 g     F .text	0000009c mbedtls_mpi_free
00008d6a g     F .text	00000020 __GP11_TEE_MACInit
0000aa84 g     F .text	000001c8 __GP11_TEE_AsymmetricVerifyDigest
0000d10c g     F .text	00000014 _utee_cryp_obj_reset
00003d00 g     F .text	00000024 TEE_CacheClean
0000cf00 g     F .text	00000014 _utee_get_property_name_to_index
00016d24 g     F .text	000000dc mbedtls_mpi_core_montmul
00018f50 g     F .text	00000104 raw_calloc
00011318 g     F .text	000000b4 mbedtls_mpi_safe_cond_swap
0000d170 g     F .text	00000018 _utee_authenc_init
00004f64 g     F .text	00000124 TEE_CopyObjectAttributes1
000056a6 g     F .text	00000024 __GP11_TEE_RenamePersistentObject
0001a150 g     F .text	0000008a strlen
0000f370 g     F .text	000002c8 TEE_BigIntComputeExtendedGcd
0001a01c g     F .text	00000010 __aeabi_unwind_cpp_pr1
0000d26c g     F .text	00000014 _utee_storage_alloc_enum
0000ea1c g     F .text	000001f0 TEE_BigIntExpMod
000038e6 g     F .text	0000002c TEE_GetSystemTime
0000d1fc g     F .text	00000018 _utee_asymm_verify
0001bc88 g     O .ta_head	00000020 ta_head
00017ffc g     F .text	00000310 brel
0000cdec g     F .text	000000ac __ta_invoke_cmd
000103e4 g     F .text	000000d8 __GP11_TEE_GetPropertyAsBinaryBlock
000127a2 g     F .text	0000015a mbedtls_mpi_sub_abs
000142dc g     F .text	00000070 mbedtls_mpi_fill_random
0000482e g     F .text	0000009e __GP11_TEE_AllocateTransientObject
0000cd54 g     F .text	00000098 __ta_open_sess
000037d0 g     F .text	00000024 TEE_SetInstanceData
00009e9c g     F .text	00000208 __GP11_TEE_AsymmetricEncrypt
0000cf58 g     F .text	00000014 _utee_get_cancellation_flag
00015a32 g     F .text	00000078 mbedtls_mpi_core_cond_assign
00002134 g     F .text	00000018 __aeabi_ldivmod
00011f68 g     F .text	00000228 mbedtls_mpi_write_string
00019360 g     F .text	0000003c aligned_alloc
00016cbe g     F .text	00000066 mbedtls_mpi_core_montmul_init
00005816 g     F .text	0000013e TEE_GetNextPersistentObject
0000f77e g     F .text	00000020 TEE_BigIntInitFMMContext1
0000910c g     F .text	0000002c __GP11_TEE_MACCompareFinal
00005c5a g     F .text	00000024 __GP11_TEE_WriteObjectData
00016e00 g     F .text	0000006e mbedtls_mpi_core_get_mont_r2_unsafe
000032b4 g     F .text	00000030 TEE_CloseTASession
0000a8c0 g     F .text	000001c4 TEE_AsymmetricVerifyDigest
0000d22c g     F .text	00000018 _utee_storage_obj_create
0000f7c4 g     F .text	0000001c __GP11_TEE_BigIntFMMSizeInU32
00016c4c g     F .text	00000072 mbedtls_mpi_core_mul
000193c2 g     F .text	0000001e free
000183fc g     F .text	000000a4 bstats
00008e2c g     F .text	0000012c TEE_MACComputeFinal
0002ac8c g     O .bss	00000004 mbedtls_mpi_mempool
0000d04c g     F .text	00000018 _utee_hash_final



Disassembly of section .text:

00000000 <ta2tee_algo_id>:
ta2tee_algo_id():
/home/palatrauss/optee_with_ftpm_ta/out-br/build/optee_examples_ext-1.0/aes/ta/aes_ta.c:58
       0:	e96d 7e02 	strd	r7, lr, [sp, #-8]!
       4:	b084      	sub	sp, #16
       6:	af02      	add	r7, sp, #8
       8:	6078      	str	r0, [r7, #4]
       a:	6039      	str	r1, [r7, #0]
/home/palatrauss/optee_with_ftpm_ta/out-br/build/optee_examples_ext-1.0/aes/ta/aes_ta.c:59
       c:	687b      	ldr	r3, [r7, #4]
       e:	2b02      	cmp	r3, #2
      10:	d01b      	beq.n	4a <ta2tee_algo_id+0x4a>
      12:	687b      	ldr	r3, [r7, #4]
      14:	2b02      	cmp	r3, #2
      16:	d821      	bhi.n	5c <ta2tee_algo_id+0x5c>
      18:	687b      	ldr	r3, [r7, #4]
      1a:	2b00      	cmp	r3, #0
      1c:	d003      	beq.n	26 <ta2tee_algo_id+0x26>
      1e:	687b      	ldr	r3, [r7, #4]
      20:	2b01      	cmp	r3, #1
      22:	d009      	beq.n	38 <ta2tee_algo_id+0x38>
      24:	e01a      	b.n	5c <ta2tee_algo_id+0x5c>
/home/palatrauss/optee_with_ftpm_ta/out-br/build/optee_examples_ext-1.0/aes/ta/aes_ta.c:61
      26:	683a      	ldr	r2, [r7, #0]
      28:	f04f 0310 	mov.w	r3, #16
      2c:	f2c1 0300 	movt	r3, #4096	; 0x1000
      30:	6013      	str	r3, [r2, #0]
/home/palatrauss/optee_with_ftpm_ta/out-br/build/optee_examples_ext-1.0/aes/ta/aes_ta.c:62
      32:	f04f 0300 	mov.w	r3, #0
      36:	e024      	b.n	82 <ta2tee_algo_id+0x82>
/home/palatrauss/optee_with_ftpm_ta/out-br/build/optee_examples_ext-1.0/aes/ta/aes_ta.c:64
      38:	683a      	ldr	r2, [r7, #0]
      3a:	f44f 7388 	mov.w	r3, #272	; 0x110
      3e:	f2c1 0300 	movt	r3, #4096	; 0x1000
      42:	6013      	str	r3, [r2, #0]
/home/palatrauss/optee_with_ftpm_ta/out-br/build/optee_examples_ext-1.0/aes/ta/aes_ta.c:65
      44:	f04f 0300 	mov.w	r3, #0
      48:	e01b      	b.n	82 <ta2tee_algo_id+0x82>
/home/palatrauss/optee_with_ftpm_ta/out-br/build/optee_examples_ext-1.0/aes/ta/aes_ta.c:67
      4a:	683a      	ldr	r2, [r7, #0]
      4c:	f44f 7304 	mov.w	r3, #528	; 0x210
      50:	f2c1 0300 	movt	r3, #4096	; 0x1000
      54:	6013      	str	r3, [r2, #0]
/home/palatrauss/optee_with_ftpm_ta/out-br/build/optee_examples_ext-1.0/aes/ta/aes_ta.c:68
      56:	f04f 0300 	mov.w	r3, #0
      5a:	e012      	b.n	82 <ta2tee_algo_id+0x82>
/home/palatrauss/optee_with_ftpm_ta/out-br/build/optee_examples_ext-1.0/aes/ta/aes_ta.c:70
      5c:	687b      	ldr	r3, [r7, #4]
      5e:	9301      	str	r3, [sp, #4]
      60:	4b0a      	ldr	r3, [pc, #40]	; (8c <ta2tee_algo_id+0x8c>)
      62:	447b      	add	r3, pc
      64:	9300      	str	r3, [sp, #0]
      66:	f04f 0301 	mov.w	r3, #1
      6a:	f04f 0201 	mov.w	r2, #1
      6e:	f04f 0146 	mov.w	r1, #70	; 0x46
      72:	4807      	ldr	r0, [pc, #28]	; (90 <ta2tee_algo_id+0x90>)
      74:	4478      	add	r0, pc
      76:	f000 fd39 	bl	aec <trace_printf>
/home/palatrauss/optee_with_ftpm_ta/out-br/build/optee_examples_ext-1.0/aes/ta/aes_ta.c:71
      7a:	f04f 0306 	mov.w	r3, #6
      7e:	f6cf 73ff 	movt	r3, #65535	; 0xffff
/home/palatrauss/optee_with_ftpm_ta/out-br/build/optee_examples_ext-1.0/aes/ta/aes_ta.c:73
      82:	4618      	mov	r0, r3
      84:	f107 0708 	add.w	r7, r7, #8
      88:	46bd      	mov	sp, r7
      8a:	bd80      	pop	{r7, pc}
      8c:	0001a6a6 	.word	0x0001a6a6
      90:	0001a874 	.word	0x0001a874

00000094 <ta2tee_key_size>:
ta2tee_key_size():
/home/palatrauss/optee_with_ftpm_ta/out-br/build/optee_examples_ext-1.0/aes/ta/aes_ta.c:75
      94:	e96d 7e02 	strd	r7, lr, [sp, #-8]!
      98:	b084      	sub	sp, #16
      9a:	af02      	add	r7, sp, #8
      9c:	6078      	str	r0, [r7, #4]
      9e:	6039      	str	r1, [r7, #0]
/home/palatrauss/optee_with_ftpm_ta/out-br/build/optee_examples_ext-1.0/aes/ta/aes_ta.c:76
      a0:	687b      	ldr	r3, [r7, #4]
      a2:	2b10      	cmp	r3, #16
      a4:	d002      	beq.n	ac <ta2tee_key_size+0x18>
      a6:	687b      	ldr	r3, [r7, #4]
      a8:	2b20      	cmp	r3, #32
      aa:	d105      	bne.n	b8 <ta2tee_key_size+0x24>
/home/palatrauss/optee_with_ftpm_ta/out-br/build/optee_examples_ext-1.0/aes/ta/aes_ta.c:79
      ac:	683b      	ldr	r3, [r7, #0]
      ae:	687a      	ldr	r2, [r7, #4]
      b0:	601a      	str	r2, [r3, #0]
/home/palatrauss/optee_with_ftpm_ta/out-br/build/optee_examples_ext-1.0/aes/ta/aes_ta.c:80
      b2:	f04f 0300 	mov.w	r3, #0
      b6:	e012      	b.n	de <ta2tee_key_size+0x4a>
/home/palatrauss/optee_with_ftpm_ta/out-br/build/optee_examples_ext-1.0/aes/ta/aes_ta.c:82
      b8:	687b      	ldr	r3, [r7, #4]
      ba:	9301      	str	r3, [sp, #4]
      bc:	4b0a      	ldr	r3, [pc, #40]	; (e8 <ta2tee_key_size+0x54>)
      be:	447b      	add	r3, pc
      c0:	9300      	str	r3, [sp, #0]
      c2:	f04f 0301 	mov.w	r3, #1
      c6:	f04f 0201 	mov.w	r2, #1
      ca:	f04f 0152 	mov.w	r1, #82	; 0x52
      ce:	4807      	ldr	r0, [pc, #28]	; (ec <ta2tee_key_size+0x58>)
      d0:	4478      	add	r0, pc
      d2:	f000 fd0b 	bl	aec <trace_printf>
/home/palatrauss/optee_with_ftpm_ta/out-br/build/optee_examples_ext-1.0/aes/ta/aes_ta.c:83
      d6:	f04f 0306 	mov.w	r3, #6
      da:	f6cf 73ff 	movt	r3, #65535	; 0xffff
/home/palatrauss/optee_with_ftpm_ta/out-br/build/optee_examples_ext-1.0/aes/ta/aes_ta.c:85
      de:	4618      	mov	r0, r3
      e0:	f107 0708 	add.w	r7, r7, #8
      e4:	46bd      	mov	sp, r7
      e6:	bd80      	pop	{r7, pc}
      e8:	0001a65a 	.word	0x0001a65a
      ec:	0001a828 	.word	0x0001a828

000000f0 <ta2tee_mode_id>:
ta2tee_mode_id():
/home/palatrauss/optee_with_ftpm_ta/out-br/build/optee_examples_ext-1.0/aes/ta/aes_ta.c:87
      f0:	e96d 7e02 	strd	r7, lr, [sp, #-8]!
      f4:	b084      	sub	sp, #16
      f6:	af02      	add	r7, sp, #8
      f8:	6078      	str	r0, [r7, #4]
      fa:	6039      	str	r1, [r7, #0]
/home/palatrauss/optee_with_ftpm_ta/out-br/build/optee_examples_ext-1.0/aes/ta/aes_ta.c:88
      fc:	687b      	ldr	r3, [r7, #4]
      fe:	2b00      	cmp	r3, #0
     100:	d009      	beq.n	116 <ta2tee_mode_id+0x26>
     102:	687b      	ldr	r3, [r7, #4]
     104:	2b01      	cmp	r3, #1
     106:	d10d      	bne.n	124 <ta2tee_mode_id+0x34>
/home/palatrauss/optee_with_ftpm_ta/out-br/build/optee_examples_ext-1.0/aes/ta/aes_ta.c:90
     108:	683b      	ldr	r3, [r7, #0]
     10a:	f04f 0200 	mov.w	r2, #0
     10e:	601a      	str	r2, [r3, #0]
/home/palatrauss/optee_with_ftpm_ta/out-br/build/optee_examples_ext-1.0/aes/ta/aes_ta.c:91
     110:	f04f 0300 	mov.w	r3, #0
     114:	e019      	b.n	14a <ta2tee_mode_id+0x5a>
/home/palatrauss/optee_with_ftpm_ta/out-br/build/optee_examples_ext-1.0/aes/ta/aes_ta.c:93
     116:	683b      	ldr	r3, [r7, #0]
     118:	f04f 0201 	mov.w	r2, #1
     11c:	601a      	str	r2, [r3, #0]
/home/palatrauss/optee_with_ftpm_ta/out-br/build/optee_examples_ext-1.0/aes/ta/aes_ta.c:94
     11e:	f04f 0300 	mov.w	r3, #0
     122:	e012      	b.n	14a <ta2tee_mode_id+0x5a>
/home/palatrauss/optee_with_ftpm_ta/out-br/build/optee_examples_ext-1.0/aes/ta/aes_ta.c:96
     124:	687b      	ldr	r3, [r7, #4]
     126:	9301      	str	r3, [sp, #4]
     128:	4b0a      	ldr	r3, [pc, #40]	; (154 <ta2tee_mode_id+0x64>)
     12a:	447b      	add	r3, pc
     12c:	9300      	str	r3, [sp, #0]
     12e:	f04f 0301 	mov.w	r3, #1
     132:	f04f 0201 	mov.w	r2, #1
     136:	f04f 0160 	mov.w	r1, #96	; 0x60
     13a:	4807      	ldr	r0, [pc, #28]	; (158 <ta2tee_mode_id+0x68>)
     13c:	4478      	add	r0, pc
     13e:	f000 fcd5 	bl	aec <trace_printf>
/home/palatrauss/optee_with_ftpm_ta/out-br/build/optee_examples_ext-1.0/aes/ta/aes_ta.c:97
     142:	f04f 0306 	mov.w	r3, #6
     146:	f6cf 73ff 	movt	r3, #65535	; 0xffff
/home/palatrauss/optee_with_ftpm_ta/out-br/build/optee_examples_ext-1.0/aes/ta/aes_ta.c:99
     14a:	4618      	mov	r0, r3
     14c:	f107 0708 	add.w	r7, r7, #8
     150:	46bd      	mov	sp, r7
     152:	bd80      	pop	{r7, pc}
     154:	0001a602 	.word	0x0001a602
     158:	0001a7cc 	.word	0x0001a7cc

0000015c <alloc_resources>:
alloc_resources():
/home/palatrauss/optee_with_ftpm_ta/out-br/build/optee_examples_ext-1.0/aes/ta/aes_ta.c:112
     15c:	e96d 7e02 	strd	r7, lr, [sp, #-8]!
     160:	b08e      	sub	sp, #56	; 0x38
     162:	af02      	add	r7, sp, #8
     164:	60f8      	str	r0, [r7, #12]
     166:	60b9      	str	r1, [r7, #8]
     168:	607a      	str	r2, [r7, #4]
     16a:	4a97      	ldr	r2, [pc, #604]	; (3c8 <alloc_resources+0x26c>)
     16c:	447a      	add	r2, pc
     16e:	4b97      	ldr	r3, [pc, #604]	; (3cc <alloc_resources+0x270>)
     170:	58d3      	ldr	r3, [r2, r3]
     172:	681b      	ldr	r3, [r3, #0]
     174:	62fb      	str	r3, [r7, #44]	; 0x2c
     176:	f04f 0300 	mov.w	r3, #0
/home/palatrauss/optee_with_ftpm_ta/out-br/build/optee_examples_ext-1.0/aes/ta/aes_ta.c:113
     17a:	f240 1311 	movw	r3, #273	; 0x111
     17e:	617b      	str	r3, [r7, #20]
/home/palatrauss/optee_with_ftpm_ta/out-br/build/optee_examples_ext-1.0/aes/ta/aes_ta.c:124
     180:	68fb      	ldr	r3, [r7, #12]
     182:	9301      	str	r3, [sp, #4]
     184:	4b92      	ldr	r3, [pc, #584]	; (3d0 <alloc_resources+0x274>)
     186:	447b      	add	r3, pc
     188:	9300      	str	r3, [sp, #0]
     18a:	f04f 0301 	mov.w	r3, #1
     18e:	f04f 0203 	mov.w	r2, #3
     192:	f04f 017c 	mov.w	r1, #124	; 0x7c
     196:	488f      	ldr	r0, [pc, #572]	; (3d4 <alloc_resources+0x278>)
     198:	4478      	add	r0, pc
     19a:	f000 fca7 	bl	aec <trace_printf>
/home/palatrauss/optee_with_ftpm_ta/out-br/build/optee_examples_ext-1.0/aes/ta/aes_ta.c:125
     19e:	68fb      	ldr	r3, [r7, #12]
     1a0:	61bb      	str	r3, [r7, #24]
/home/palatrauss/optee_with_ftpm_ta/out-br/build/optee_examples_ext-1.0/aes/ta/aes_ta.c:128
     1a2:	68ba      	ldr	r2, [r7, #8]
     1a4:	697b      	ldr	r3, [r7, #20]
     1a6:	429a      	cmp	r2, r3
     1a8:	d004      	beq.n	1b4 <alloc_resources+0x58>
/home/palatrauss/optee_with_ftpm_ta/out-br/build/optee_examples_ext-1.0/aes/ta/aes_ta.c:129
     1aa:	f04f 0306 	mov.w	r3, #6
     1ae:	f6cf 73ff 	movt	r3, #65535	; 0xffff
     1b2:	e0f7      	b.n	3a4 <alloc_resources+0x248>
/home/palatrauss/optee_with_ftpm_ta/out-br/build/optee_examples_ext-1.0/aes/ta/aes_ta.c:131
     1b4:	687b      	ldr	r3, [r7, #4]
     1b6:	681b      	ldr	r3, [r3, #0]
     1b8:	69ba      	ldr	r2, [r7, #24]
     1ba:	4611      	mov	r1, r2
     1bc:	4618      	mov	r0, r3
     1be:	f7ff ff1f 	bl	0 <ta2tee_algo_id>
     1c2:	6138      	str	r0, [r7, #16]
/home/palatrauss/optee_with_ftpm_ta/out-br/build/optee_examples_ext-1.0/aes/ta/aes_ta.c:132
     1c4:	693b      	ldr	r3, [r7, #16]
     1c6:	2b00      	cmp	r3, #0
     1c8:	d001      	beq.n	1ce <alloc_resources+0x72>
/home/palatrauss/optee_with_ftpm_ta/out-br/build/optee_examples_ext-1.0/aes/ta/aes_ta.c:133
     1ca:	693b      	ldr	r3, [r7, #16]
     1cc:	e0ea      	b.n	3a4 <alloc_resources+0x248>
/home/palatrauss/optee_with_ftpm_ta/out-br/build/optee_examples_ext-1.0/aes/ta/aes_ta.c:135
     1ce:	687b      	ldr	r3, [r7, #4]
     1d0:	f103 0308 	add.w	r3, r3, #8
     1d4:	681a      	ldr	r2, [r3, #0]
     1d6:	69bb      	ldr	r3, [r7, #24]
     1d8:	f103 0308 	add.w	r3, r3, #8
     1dc:	4619      	mov	r1, r3
     1de:	4610      	mov	r0, r2
     1e0:	f7ff ff58 	bl	94 <ta2tee_key_size>
     1e4:	6138      	str	r0, [r7, #16]
/home/palatrauss/optee_with_ftpm_ta/out-br/build/optee_examples_ext-1.0/aes/ta/aes_ta.c:136
     1e6:	693b      	ldr	r3, [r7, #16]
     1e8:	2b00      	cmp	r3, #0
     1ea:	d001      	beq.n	1f0 <alloc_resources+0x94>
/home/palatrauss/optee_with_ftpm_ta/out-br/build/optee_examples_ext-1.0/aes/ta/aes_ta.c:137
     1ec:	693b      	ldr	r3, [r7, #16]
     1ee:	e0d9      	b.n	3a4 <alloc_resources+0x248>
/home/palatrauss/optee_with_ftpm_ta/out-br/build/optee_examples_ext-1.0/aes/ta/aes_ta.c:139
     1f0:	687b      	ldr	r3, [r7, #4]
     1f2:	f103 0310 	add.w	r3, r3, #16
     1f6:	681a      	ldr	r2, [r3, #0]
     1f8:	69bb      	ldr	r3, [r7, #24]
     1fa:	f103 0304 	add.w	r3, r3, #4
     1fe:	4619      	mov	r1, r3
     200:	4610      	mov	r0, r2
     202:	f7ff ff75 	bl	f0 <ta2tee_mode_id>
     206:	6138      	str	r0, [r7, #16]
/home/palatrauss/optee_with_ftpm_ta/out-br/build/optee_examples_ext-1.0/aes/ta/aes_ta.c:140
     208:	693b      	ldr	r3, [r7, #16]
     20a:	2b00      	cmp	r3, #0
     20c:	d001      	beq.n	212 <alloc_resources+0xb6>
/home/palatrauss/optee_with_ftpm_ta/out-br/build/optee_examples_ext-1.0/aes/ta/aes_ta.c:141
     20e:	693b      	ldr	r3, [r7, #16]
     210:	e0c8      	b.n	3a4 <alloc_resources+0x248>
/home/palatrauss/optee_with_ftpm_ta/out-br/build/optee_examples_ext-1.0/aes/ta/aes_ta.c:151
     212:	69bb      	ldr	r3, [r7, #24]
     214:	68db      	ldr	r3, [r3, #12]
     216:	2b00      	cmp	r3, #0
     218:	d004      	beq.n	224 <alloc_resources+0xc8>
/home/palatrauss/optee_with_ftpm_ta/out-br/build/optee_examples_ext-1.0/aes/ta/aes_ta.c:152
     21a:	69bb      	ldr	r3, [r7, #24]
     21c:	68db      	ldr	r3, [r3, #12]
     21e:	4618      	mov	r0, r3
     220:	f007 f8e3 	bl	73ea <__GP11_TEE_FreeOperation>
/home/palatrauss/optee_with_ftpm_ta/out-br/build/optee_examples_ext-1.0/aes/ta/aes_ta.c:155
     224:	69bb      	ldr	r3, [r7, #24]
     226:	f103 000c 	add.w	r0, r3, #12
     22a:	69bb      	ldr	r3, [r7, #24]
     22c:	6819      	ldr	r1, [r3, #0]
     22e:	69bb      	ldr	r3, [r7, #24]
     230:	685a      	ldr	r2, [r3, #4]
/home/palatrauss/optee_with_ftpm_ta/out-br/build/optee_examples_ext-1.0/aes/ta/aes_ta.c:158
     232:	69bb      	ldr	r3, [r7, #24]
     234:	689b      	ldr	r3, [r3, #8]
/home/palatrauss/optee_with_ftpm_ta/out-br/build/optee_examples_ext-1.0/aes/ta/aes_ta.c:155
     236:	ea4f 03c3 	mov.w	r3, r3, lsl #3
     23a:	f006 f8eb 	bl	6414 <TEE_AllocateOperation>
     23e:	6138      	str	r0, [r7, #16]
/home/palatrauss/optee_with_ftpm_ta/out-br/build/optee_examples_ext-1.0/aes/ta/aes_ta.c:159
     240:	693b      	ldr	r3, [r7, #16]
     242:	2b00      	cmp	r3, #0
     244:	d011      	beq.n	26a <alloc_resources+0x10e>
/home/palatrauss/optee_with_ftpm_ta/out-br/build/optee_examples_ext-1.0/aes/ta/aes_ta.c:160
     246:	4b64      	ldr	r3, [pc, #400]	; (3d8 <alloc_resources+0x27c>)
     248:	447b      	add	r3, pc
     24a:	9300      	str	r3, [sp, #0]
     24c:	f04f 0301 	mov.w	r3, #1
     250:	f04f 0201 	mov.w	r2, #1
     254:	f04f 01a0 	mov.w	r1, #160	; 0xa0
     258:	4860      	ldr	r0, [pc, #384]	; (3dc <alloc_resources+0x280>)
     25a:	4478      	add	r0, pc
     25c:	f000 fc46 	bl	aec <trace_printf>
/home/palatrauss/optee_with_ftpm_ta/out-br/build/optee_examples_ext-1.0/aes/ta/aes_ta.c:161
     260:	69bb      	ldr	r3, [r7, #24]
     262:	f04f 0200 	mov.w	r2, #0
     266:	60da      	str	r2, [r3, #12]
/home/palatrauss/optee_with_ftpm_ta/out-br/build/optee_examples_ext-1.0/aes/ta/aes_ta.c:162
     268:	e081      	b.n	36e <alloc_resources+0x212>
/home/palatrauss/optee_with_ftpm_ta/out-br/build/optee_examples_ext-1.0/aes/ta/aes_ta.c:166
     26a:	69bb      	ldr	r3, [r7, #24]
     26c:	691b      	ldr	r3, [r3, #16]
     26e:	2b00      	cmp	r3, #0
     270:	d004      	beq.n	27c <alloc_resources+0x120>
/home/palatrauss/optee_with_ftpm_ta/out-br/build/optee_examples_ext-1.0/aes/ta/aes_ta.c:167
     272:	69bb      	ldr	r3, [r7, #24]
     274:	691b      	ldr	r3, [r3, #16]
     276:	4618      	mov	r0, r3
     278:	f004 fb28 	bl	48cc <TEE_FreeTransientObject>
/home/palatrauss/optee_with_ftpm_ta/out-br/build/optee_examples_ext-1.0/aes/ta/aes_ta.c:171
     27c:	69bb      	ldr	r3, [r7, #24]
     27e:	689b      	ldr	r3, [r3, #8]
/home/palatrauss/optee_with_ftpm_ta/out-br/build/optee_examples_ext-1.0/aes/ta/aes_ta.c:170
     280:	ea4f 01c3 	mov.w	r1, r3, lsl #3
     284:	69bb      	ldr	r3, [r7, #24]
     286:	f103 0310 	add.w	r3, r3, #16
     28a:	461a      	mov	r2, r3
     28c:	f04f 0010 	mov.w	r0, #16
     290:	f2ca 0000 	movt	r0, #40960	; 0xa000
     294:	f004 facb 	bl	482e <__GP11_TEE_AllocateTransientObject>
     298:	6138      	str	r0, [r7, #16]
/home/palatrauss/optee_with_ftpm_ta/out-br/build/optee_examples_ext-1.0/aes/ta/aes_ta.c:173
     29a:	693b      	ldr	r3, [r7, #16]
     29c:	2b00      	cmp	r3, #0
     29e:	d011      	beq.n	2c4 <alloc_resources+0x168>
/home/palatrauss/optee_with_ftpm_ta/out-br/build/optee_examples_ext-1.0/aes/ta/aes_ta.c:174
     2a0:	4b4f      	ldr	r3, [pc, #316]	; (3e0 <alloc_resources+0x284>)
     2a2:	447b      	add	r3, pc
     2a4:	9300      	str	r3, [sp, #0]
     2a6:	f04f 0301 	mov.w	r3, #1
     2aa:	f04f 0201 	mov.w	r2, #1
     2ae:	f04f 01ae 	mov.w	r1, #174	; 0xae
     2b2:	484c      	ldr	r0, [pc, #304]	; (3e4 <alloc_resources+0x288>)
     2b4:	4478      	add	r0, pc
     2b6:	f000 fc19 	bl	aec <trace_printf>
/home/palatrauss/optee_with_ftpm_ta/out-br/build/optee_examples_ext-1.0/aes/ta/aes_ta.c:175
     2ba:	69bb      	ldr	r3, [r7, #24]
     2bc:	f04f 0200 	mov.w	r2, #0
     2c0:	611a      	str	r2, [r3, #16]
/home/palatrauss/optee_with_ftpm_ta/out-br/build/optee_examples_ext-1.0/aes/ta/aes_ta.c:176
     2c2:	e054      	b.n	36e <alloc_resources+0x212>
/home/palatrauss/optee_with_ftpm_ta/out-br/build/optee_examples_ext-1.0/aes/ta/aes_ta.c:188
     2c4:	69bb      	ldr	r3, [r7, #24]
     2c6:	689b      	ldr	r3, [r3, #8]
     2c8:	f04f 0100 	mov.w	r1, #0
     2cc:	4618      	mov	r0, r3
     2ce:	f003 fc4b 	bl	3b68 <__GP11_TEE_Malloc>
     2d2:	61f8      	str	r0, [r7, #28]
/home/palatrauss/optee_with_ftpm_ta/out-br/build/optee_examples_ext-1.0/aes/ta/aes_ta.c:189
     2d4:	69fb      	ldr	r3, [r7, #28]
     2d6:	2b00      	cmp	r3, #0
     2d8:	d105      	bne.n	2e6 <alloc_resources+0x18a>
/home/palatrauss/optee_with_ftpm_ta/out-br/build/optee_examples_ext-1.0/aes/ta/aes_ta.c:190
     2da:	f04f 030c 	mov.w	r3, #12
     2de:	f6cf 73ff 	movt	r3, #65535	; 0xffff
     2e2:	613b      	str	r3, [r7, #16]
/home/palatrauss/optee_with_ftpm_ta/out-br/build/optee_examples_ext-1.0/aes/ta/aes_ta.c:191
     2e4:	e043      	b.n	36e <alloc_resources+0x212>
/home/palatrauss/optee_with_ftpm_ta/out-br/build/optee_examples_ext-1.0/aes/ta/aes_ta.c:194
     2e6:	69bb      	ldr	r3, [r7, #24]
     2e8:	689b      	ldr	r3, [r3, #8]
     2ea:	f107 0020 	add.w	r0, r7, #32
     2ee:	69fa      	ldr	r2, [r7, #28]
     2f0:	f04f 4140 	mov.w	r1, #3221225472	; 0xc0000000
     2f4:	f004 fd7a 	bl	4dec <__GP11_TEE_InitRefAttribute>
/home/palatrauss/optee_with_ftpm_ta/out-br/build/optee_examples_ext-1.0/aes/ta/aes_ta.c:196
     2f8:	69bb      	ldr	r3, [r7, #24]
     2fa:	691b      	ldr	r3, [r3, #16]
     2fc:	f107 0120 	add.w	r1, r7, #32
     300:	f04f 0201 	mov.w	r2, #1
     304:	4618      	mov	r0, r3
     306:	f004 fc71 	bl	4bec <__GP11_TEE_PopulateTransientObject>
     30a:	6138      	str	r0, [r7, #16]
/home/palatrauss/optee_with_ftpm_ta/out-br/build/optee_examples_ext-1.0/aes/ta/aes_ta.c:197
     30c:	693b      	ldr	r3, [r7, #16]
     30e:	2b00      	cmp	r3, #0
     310:	d00f      	beq.n	332 <alloc_resources+0x1d6>
/home/palatrauss/optee_with_ftpm_ta/out-br/build/optee_examples_ext-1.0/aes/ta/aes_ta.c:198
     312:	693b      	ldr	r3, [r7, #16]
     314:	9301      	str	r3, [sp, #4]
     316:	4b34      	ldr	r3, [pc, #208]	; (3e8 <alloc_resources+0x28c>)
     318:	447b      	add	r3, pc
     31a:	9300      	str	r3, [sp, #0]
     31c:	f04f 0301 	mov.w	r3, #1
     320:	f04f 0201 	mov.w	r2, #1
     324:	f04f 01c6 	mov.w	r1, #198	; 0xc6
     328:	4830      	ldr	r0, [pc, #192]	; (3ec <alloc_resources+0x290>)
     32a:	4478      	add	r0, pc
     32c:	f000 fbde 	bl	aec <trace_printf>
/home/palatrauss/optee_with_ftpm_ta/out-br/build/optee_examples_ext-1.0/aes/ta/aes_ta.c:199
     330:	e01d      	b.n	36e <alloc_resources+0x212>
/home/palatrauss/optee_with_ftpm_ta/out-br/build/optee_examples_ext-1.0/aes/ta/aes_ta.c:202
     332:	69bb      	ldr	r3, [r7, #24]
     334:	68da      	ldr	r2, [r3, #12]
     336:	69bb      	ldr	r3, [r7, #24]
     338:	691b      	ldr	r3, [r3, #16]
     33a:	4619      	mov	r1, r3
     33c:	4610      	mov	r0, r2
     33e:	f007 faef 	bl	7920 <__GP11_TEE_SetOperationKey>
     342:	6138      	str	r0, [r7, #16]
/home/palatrauss/optee_with_ftpm_ta/out-br/build/optee_examples_ext-1.0/aes/ta/aes_ta.c:203
     344:	693b      	ldr	r3, [r7, #16]
     346:	2b00      	cmp	r3, #0
     348:	d00f      	beq.n	36a <alloc_resources+0x20e>
/home/palatrauss/optee_with_ftpm_ta/out-br/build/optee_examples_ext-1.0/aes/ta/aes_ta.c:204
     34a:	693b      	ldr	r3, [r7, #16]
     34c:	9301      	str	r3, [sp, #4]
     34e:	4b28      	ldr	r3, [pc, #160]	; (3f0 <alloc_resources+0x294>)
     350:	447b      	add	r3, pc
     352:	9300      	str	r3, [sp, #0]
     354:	f04f 0301 	mov.w	r3, #1
     358:	f04f 0201 	mov.w	r2, #1
     35c:	f04f 01cc 	mov.w	r1, #204	; 0xcc
     360:	4824      	ldr	r0, [pc, #144]	; (3f4 <alloc_resources+0x298>)
     362:	4478      	add	r0, pc
     364:	f000 fbc2 	bl	aec <trace_printf>
/home/palatrauss/optee_with_ftpm_ta/out-br/build/optee_examples_ext-1.0/aes/ta/aes_ta.c:205
     368:	e001      	b.n	36e <alloc_resources+0x212>
/home/palatrauss/optee_with_ftpm_ta/out-br/build/optee_examples_ext-1.0/aes/ta/aes_ta.c:208
     36a:	693b      	ldr	r3, [r7, #16]
     36c:	e01a      	b.n	3a4 <alloc_resources+0x248>
/home/palatrauss/optee_with_ftpm_ta/out-br/build/optee_examples_ext-1.0/aes/ta/aes_ta.c:211
     36e:	69bb      	ldr	r3, [r7, #24]
     370:	68db      	ldr	r3, [r3, #12]
     372:	2b00      	cmp	r3, #0
     374:	d004      	beq.n	380 <alloc_resources+0x224>
/home/palatrauss/optee_with_ftpm_ta/out-br/build/optee_examples_ext-1.0/aes/ta/aes_ta.c:212
     376:	69bb      	ldr	r3, [r7, #24]
     378:	68db      	ldr	r3, [r3, #12]
     37a:	4618      	mov	r0, r3
     37c:	f007 f835 	bl	73ea <__GP11_TEE_FreeOperation>
/home/palatrauss/optee_with_ftpm_ta/out-br/build/optee_examples_ext-1.0/aes/ta/aes_ta.c:213
     380:	69bb      	ldr	r3, [r7, #24]
     382:	f04f 0200 	mov.w	r2, #0
     386:	60da      	str	r2, [r3, #12]
/home/palatrauss/optee_with_ftpm_ta/out-br/build/optee_examples_ext-1.0/aes/ta/aes_ta.c:215
     388:	69bb      	ldr	r3, [r7, #24]
     38a:	691b      	ldr	r3, [r3, #16]
     38c:	2b00      	cmp	r3, #0
     38e:	d004      	beq.n	39a <alloc_resources+0x23e>
/home/palatrauss/optee_with_ftpm_ta/out-br/build/optee_examples_ext-1.0/aes/ta/aes_ta.c:216
     390:	69bb      	ldr	r3, [r7, #24]
     392:	691b      	ldr	r3, [r3, #16]
     394:	4618      	mov	r0, r3
     396:	f004 fa99 	bl	48cc <TEE_FreeTransientObject>
/home/palatrauss/optee_with_ftpm_ta/out-br/build/optee_examples_ext-1.0/aes/ta/aes_ta.c:217
     39a:	69bb      	ldr	r3, [r7, #24]
     39c:	f04f 0200 	mov.w	r2, #0
     3a0:	611a      	str	r2, [r3, #16]
/home/palatrauss/optee_with_ftpm_ta/out-br/build/optee_examples_ext-1.0/aes/ta/aes_ta.c:219
     3a2:	693b      	ldr	r3, [r7, #16]
/home/palatrauss/optee_with_ftpm_ta/out-br/build/optee_examples_ext-1.0/aes/ta/aes_ta.c:112 (discriminator 1)
     3a4:	4914      	ldr	r1, [pc, #80]	; (3f8 <alloc_resources+0x29c>)
     3a6:	4479      	add	r1, pc
/home/palatrauss/optee_with_ftpm_ta/out-br/build/optee_examples_ext-1.0/aes/ta/aes_ta.c:220 (discriminator 1)
     3a8:	4a08      	ldr	r2, [pc, #32]	; (3cc <alloc_resources+0x270>)
     3aa:	588a      	ldr	r2, [r1, r2]
     3ac:	6811      	ldr	r1, [r2, #0]
     3ae:	6afa      	ldr	r2, [r7, #44]	; 0x2c
     3b0:	4051      	eors	r1, r2
     3b2:	f04f 0200 	mov.w	r2, #0
     3b6:	d001      	beq.n	3bc <alloc_resources+0x260>
/home/palatrauss/optee_with_ftpm_ta/out-br/build/optee_examples_ext-1.0/aes/ta/aes_ta.c:220
     3b8:	f000 fad0 	bl	95c <__stack_chk_fail>
     3bc:	4618      	mov	r0, r3
     3be:	f107 0730 	add.w	r7, r7, #48	; 0x30
     3c2:	46bd      	mov	sp, r7
     3c4:	bd80      	pop	{r7, pc}
     3c6:	bf00      	nop
     3c8:	0001ef18 	.word	0x0001ef18
     3cc:	0000000c 	.word	0x0000000c
     3d0:	0001a5b6 	.word	0x0001a5b6
     3d4:	0001a780 	.word	0x0001a780
     3d8:	0001a518 	.word	0x0001a518
     3dc:	0001a6be 	.word	0x0001a6be
     3e0:	0001a4de 	.word	0x0001a4de
     3e4:	0001a664 	.word	0x0001a664
     3e8:	0001a48c 	.word	0x0001a48c
     3ec:	0001a5ee 	.word	0x0001a5ee
     3f0:	0001a47c 	.word	0x0001a47c
     3f4:	0001a5b6 	.word	0x0001a5b6
     3f8:	0001ecde 	.word	0x0001ecde

000003fc <set_aes_key>:
set_aes_key():
/home/palatrauss/optee_with_ftpm_ta/out-br/build/optee_examples_ext-1.0/aes/ta/aes_ta.c:227
     3fc:	e96d 7e02 	strd	r7, lr, [sp, #-8]!
     400:	b092      	sub	sp, #72	; 0x48
     402:	af04      	add	r7, sp, #16
     404:	60f8      	str	r0, [r7, #12]
     406:	60b9      	str	r1, [r7, #8]
     408:	607a      	str	r2, [r7, #4]
     40a:	4a53      	ldr	r2, [pc, #332]	; (558 <set_aes_key+0x15c>)
     40c:	447a      	add	r2, pc
     40e:	4b53      	ldr	r3, [pc, #332]	; (55c <set_aes_key+0x160>)
     410:	58d3      	ldr	r3, [r2, r3]
     412:	681b      	ldr	r3, [r3, #0]
     414:	637b      	str	r3, [r7, #52]	; 0x34
     416:	f04f 0300 	mov.w	r3, #0
/home/palatrauss/optee_with_ftpm_ta/out-br/build/optee_examples_ext-1.0/aes/ta/aes_ta.c:228
     41a:	f04f 0305 	mov.w	r3, #5
     41e:	617b      	str	r3, [r7, #20]
/home/palatrauss/optee_with_ftpm_ta/out-br/build/optee_examples_ext-1.0/aes/ta/aes_ta.c:240
     420:	68fb      	ldr	r3, [r7, #12]
     422:	9301      	str	r3, [sp, #4]
     424:	4b4e      	ldr	r3, [pc, #312]	; (560 <set_aes_key+0x164>)
     426:	447b      	add	r3, pc
     428:	9300      	str	r3, [sp, #0]
     42a:	f04f 0301 	mov.w	r3, #1
     42e:	f04f 0203 	mov.w	r2, #3
     432:	f04f 01f0 	mov.w	r1, #240	; 0xf0
     436:	484b      	ldr	r0, [pc, #300]	; (564 <set_aes_key+0x168>)
     438:	4478      	add	r0, pc
     43a:	f000 fb57 	bl	aec <trace_printf>
/home/palatrauss/optee_with_ftpm_ta/out-br/build/optee_examples_ext-1.0/aes/ta/aes_ta.c:241
     43e:	68fb      	ldr	r3, [r7, #12]
     440:	61bb      	str	r3, [r7, #24]
/home/palatrauss/optee_with_ftpm_ta/out-br/build/optee_examples_ext-1.0/aes/ta/aes_ta.c:244
     442:	68ba      	ldr	r2, [r7, #8]
     444:	697b      	ldr	r3, [r7, #20]
     446:	429a      	cmp	r2, r3
     448:	d004      	beq.n	454 <set_aes_key+0x58>
/home/palatrauss/optee_with_ftpm_ta/out-br/build/optee_examples_ext-1.0/aes/ta/aes_ta.c:245
     44a:	f04f 0306 	mov.w	r3, #6
     44e:	f6cf 73ff 	movt	r3, #65535	; 0xffff
     452:	e06f      	b.n	534 <set_aes_key+0x138>
/home/palatrauss/optee_with_ftpm_ta/out-br/build/optee_examples_ext-1.0/aes/ta/aes_ta.c:247
     454:	687b      	ldr	r3, [r7, #4]
     456:	681b      	ldr	r3, [r3, #0]
     458:	61fb      	str	r3, [r7, #28]
/home/palatrauss/optee_with_ftpm_ta/out-br/build/optee_examples_ext-1.0/aes/ta/aes_ta.c:248
     45a:	687b      	ldr	r3, [r7, #4]
     45c:	685b      	ldr	r3, [r3, #4]
     45e:	623b      	str	r3, [r7, #32]
/home/palatrauss/optee_with_ftpm_ta/out-br/build/optee_examples_ext-1.0/aes/ta/aes_ta.c:250
     460:	69bb      	ldr	r3, [r7, #24]
     462:	689b      	ldr	r3, [r3, #8]
     464:	6a3a      	ldr	r2, [r7, #32]
     466:	429a      	cmp	r2, r3
     468:	d016      	beq.n	498 <set_aes_key+0x9c>
/home/palatrauss/optee_with_ftpm_ta/out-br/build/optee_examples_ext-1.0/aes/ta/aes_ta.c:251
     46a:	69bb      	ldr	r3, [r7, #24]
     46c:	689b      	ldr	r3, [r3, #8]
     46e:	9302      	str	r3, [sp, #8]
     470:	6a3b      	ldr	r3, [r7, #32]
     472:	9301      	str	r3, [sp, #4]
     474:	4b3c      	ldr	r3, [pc, #240]	; (568 <set_aes_key+0x16c>)
     476:	447b      	add	r3, pc
     478:	9300      	str	r3, [sp, #0]
     47a:	f04f 0301 	mov.w	r3, #1
     47e:	f04f 0201 	mov.w	r2, #1
     482:	f04f 01fb 	mov.w	r1, #251	; 0xfb
     486:	4839      	ldr	r0, [pc, #228]	; (56c <set_aes_key+0x170>)
     488:	4478      	add	r0, pc
     48a:	f000 fb2f 	bl	aec <trace_printf>
/home/palatrauss/optee_with_ftpm_ta/out-br/build/optee_examples_ext-1.0/aes/ta/aes_ta.c:253
     48e:	f04f 0306 	mov.w	r3, #6
     492:	f6cf 73ff 	movt	r3, #65535	; 0xffff
     496:	e04d      	b.n	534 <set_aes_key+0x138>
/home/palatrauss/optee_with_ftpm_ta/out-br/build/optee_examples_ext-1.0/aes/ta/aes_ta.c:273
     498:	f107 0028 	add.w	r0, r7, #40	; 0x28
     49c:	6a3b      	ldr	r3, [r7, #32]
     49e:	69fa      	ldr	r2, [r7, #28]
     4a0:	f04f 4140 	mov.w	r1, #3221225472	; 0xc0000000
     4a4:	f004 fca2 	bl	4dec <__GP11_TEE_InitRefAttribute>
/home/palatrauss/optee_with_ftpm_ta/out-br/build/optee_examples_ext-1.0/aes/ta/aes_ta.c:275
     4a8:	69bb      	ldr	r3, [r7, #24]
     4aa:	691b      	ldr	r3, [r3, #16]
     4ac:	4618      	mov	r0, r3
     4ae:	f004 fa67 	bl	4980 <TEE_ResetTransientObject>
/home/palatrauss/optee_with_ftpm_ta/out-br/build/optee_examples_ext-1.0/aes/ta/aes_ta.c:276
     4b2:	69bb      	ldr	r3, [r7, #24]
     4b4:	691b      	ldr	r3, [r3, #16]
     4b6:	f107 0128 	add.w	r1, r7, #40	; 0x28
     4ba:	f04f 0201 	mov.w	r2, #1
     4be:	4618      	mov	r0, r3
     4c0:	f004 fb94 	bl	4bec <__GP11_TEE_PopulateTransientObject>
     4c4:	6278      	str	r0, [r7, #36]	; 0x24
/home/palatrauss/optee_with_ftpm_ta/out-br/build/optee_examples_ext-1.0/aes/ta/aes_ta.c:277
     4c6:	6a7b      	ldr	r3, [r7, #36]	; 0x24
     4c8:	2b00      	cmp	r3, #0
     4ca:	d010      	beq.n	4ee <set_aes_key+0xf2>
/home/palatrauss/optee_with_ftpm_ta/out-br/build/optee_examples_ext-1.0/aes/ta/aes_ta.c:278
     4cc:	6a7b      	ldr	r3, [r7, #36]	; 0x24
     4ce:	9301      	str	r3, [sp, #4]
     4d0:	4b27      	ldr	r3, [pc, #156]	; (570 <set_aes_key+0x174>)
     4d2:	447b      	add	r3, pc
     4d4:	9300      	str	r3, [sp, #0]
     4d6:	f04f 0301 	mov.w	r3, #1
     4da:	f04f 0201 	mov.w	r2, #1
     4de:	f44f 718b 	mov.w	r1, #278	; 0x116
     4e2:	4824      	ldr	r0, [pc, #144]	; (574 <set_aes_key+0x178>)
     4e4:	4478      	add	r0, pc
     4e6:	f000 fb01 	bl	aec <trace_printf>
/home/palatrauss/optee_with_ftpm_ta/out-br/build/optee_examples_ext-1.0/aes/ta/aes_ta.c:279
     4ea:	6a7b      	ldr	r3, [r7, #36]	; 0x24
     4ec:	e022      	b.n	534 <set_aes_key+0x138>
/home/palatrauss/optee_with_ftpm_ta/out-br/build/optee_examples_ext-1.0/aes/ta/aes_ta.c:282
     4ee:	69bb      	ldr	r3, [r7, #24]
     4f0:	68db      	ldr	r3, [r3, #12]
     4f2:	4618      	mov	r0, r3
     4f4:	f007 f931 	bl	775a <TEE_ResetOperation>
/home/palatrauss/optee_with_ftpm_ta/out-br/build/optee_examples_ext-1.0/aes/ta/aes_ta.c:283
     4f8:	69bb      	ldr	r3, [r7, #24]
     4fa:	68da      	ldr	r2, [r3, #12]
     4fc:	69bb      	ldr	r3, [r7, #24]
     4fe:	691b      	ldr	r3, [r3, #16]
     500:	4619      	mov	r1, r3
     502:	4610      	mov	r0, r2
     504:	f007 fa0c 	bl	7920 <__GP11_TEE_SetOperationKey>
     508:	6278      	str	r0, [r7, #36]	; 0x24
/home/palatrauss/optee_with_ftpm_ta/out-br/build/optee_examples_ext-1.0/aes/ta/aes_ta.c:284
     50a:	6a7b      	ldr	r3, [r7, #36]	; 0x24
     50c:	2b00      	cmp	r3, #0
     50e:	d010      	beq.n	532 <set_aes_key+0x136>
/home/palatrauss/optee_with_ftpm_ta/out-br/build/optee_examples_ext-1.0/aes/ta/aes_ta.c:285
     510:	6a7b      	ldr	r3, [r7, #36]	; 0x24
     512:	9301      	str	r3, [sp, #4]
     514:	4b18      	ldr	r3, [pc, #96]	; (578 <set_aes_key+0x17c>)
     516:	447b      	add	r3, pc
     518:	9300      	str	r3, [sp, #0]
     51a:	f04f 0301 	mov.w	r3, #1
     51e:	f04f 0201 	mov.w	r2, #1
     522:	f240 111d 	movw	r1, #285	; 0x11d
     526:	4815      	ldr	r0, [pc, #84]	; (57c <set_aes_key+0x180>)
     528:	4478      	add	r0, pc
     52a:	f000 fadf 	bl	aec <trace_printf>
/home/palatrauss/optee_with_ftpm_ta/out-br/build/optee_examples_ext-1.0/aes/ta/aes_ta.c:286
     52e:	6a7b      	ldr	r3, [r7, #36]	; 0x24
     530:	e000      	b.n	534 <set_aes_key+0x138>
/home/palatrauss/optee_with_ftpm_ta/out-br/build/optee_examples_ext-1.0/aes/ta/aes_ta.c:289
     532:	6a7b      	ldr	r3, [r7, #36]	; 0x24
/home/palatrauss/optee_with_ftpm_ta/out-br/build/optee_examples_ext-1.0/aes/ta/aes_ta.c:227 (discriminator 1)
     534:	4912      	ldr	r1, [pc, #72]	; (580 <set_aes_key+0x184>)
     536:	4479      	add	r1, pc
/home/palatrauss/optee_with_ftpm_ta/out-br/build/optee_examples_ext-1.0/aes/ta/aes_ta.c:290 (discriminator 1)
     538:	4a08      	ldr	r2, [pc, #32]	; (55c <set_aes_key+0x160>)
     53a:	588a      	ldr	r2, [r1, r2]
     53c:	6811      	ldr	r1, [r2, #0]
     53e:	6b7a      	ldr	r2, [r7, #52]	; 0x34
     540:	4051      	eors	r1, r2
     542:	f04f 0200 	mov.w	r2, #0
     546:	d001      	beq.n	54c <set_aes_key+0x150>
/home/palatrauss/optee_with_ftpm_ta/out-br/build/optee_examples_ext-1.0/aes/ta/aes_ta.c:290
     548:	f000 fa08 	bl	95c <__stack_chk_fail>
     54c:	4618      	mov	r0, r3
     54e:	f107 0738 	add.w	r7, r7, #56	; 0x38
     552:	46bd      	mov	sp, r7
     554:	bd80      	pop	{r7, pc}
     556:	bf00      	nop
     558:	0001ec78 	.word	0x0001ec78
     55c:	0000000c 	.word	0x0000000c
     560:	0001a3c6 	.word	0x0001a3c6
     564:	0001a4f0 	.word	0x0001a4f0
     568:	0001a396 	.word	0x0001a396
     56c:	0001a4a0 	.word	0x0001a4a0
     570:	0001a2d2 	.word	0x0001a2d2
     574:	0001a444 	.word	0x0001a444
     578:	0001a2b6 	.word	0x0001a2b6
     57c:	0001a400 	.word	0x0001a400
     580:	0001eb4e 	.word	0x0001eb4e

00000584 <reset_aes_iv>:
reset_aes_iv():
/home/palatrauss/optee_with_ftpm_ta/out-br/build/optee_examples_ext-1.0/aes/ta/aes_ta.c:297
     584:	e96d 7e02 	strd	r7, lr, [sp, #-8]!
     588:	b08a      	sub	sp, #40	; 0x28
     58a:	af02      	add	r7, sp, #8
     58c:	60f8      	str	r0, [r7, #12]
     58e:	60b9      	str	r1, [r7, #8]
     590:	607a      	str	r2, [r7, #4]
/home/palatrauss/optee_with_ftpm_ta/out-br/build/optee_examples_ext-1.0/aes/ta/aes_ta.c:298
     592:	f04f 0305 	mov.w	r3, #5
     596:	613b      	str	r3, [r7, #16]
/home/palatrauss/optee_with_ftpm_ta/out-br/build/optee_examples_ext-1.0/aes/ta/aes_ta.c:308
     598:	68fb      	ldr	r3, [r7, #12]
     59a:	9301      	str	r3, [sp, #4]
     59c:	4b15      	ldr	r3, [pc, #84]	; (5f4 <reset_aes_iv+0x70>)
     59e:	447b      	add	r3, pc
     5a0:	9300      	str	r3, [sp, #0]
     5a2:	f04f 0301 	mov.w	r3, #1
     5a6:	f04f 0203 	mov.w	r2, #3
     5aa:	f44f 719a 	mov.w	r1, #308	; 0x134
     5ae:	4812      	ldr	r0, [pc, #72]	; (5f8 <reset_aes_iv+0x74>)
     5b0:	4478      	add	r0, pc
     5b2:	f000 fa9b 	bl	aec <trace_printf>
/home/palatrauss/optee_with_ftpm_ta/out-br/build/optee_examples_ext-1.0/aes/ta/aes_ta.c:309
     5b6:	68fb      	ldr	r3, [r7, #12]
     5b8:	617b      	str	r3, [r7, #20]
/home/palatrauss/optee_with_ftpm_ta/out-br/build/optee_examples_ext-1.0/aes/ta/aes_ta.c:312
     5ba:	68ba      	ldr	r2, [r7, #8]
     5bc:	693b      	ldr	r3, [r7, #16]
     5be:	429a      	cmp	r2, r3
     5c0:	d004      	beq.n	5cc <reset_aes_iv+0x48>
/home/palatrauss/optee_with_ftpm_ta/out-br/build/optee_examples_ext-1.0/aes/ta/aes_ta.c:313
     5c2:	f04f 0306 	mov.w	r3, #6
     5c6:	f6cf 73ff 	movt	r3, #65535	; 0xffff
     5ca:	e00e      	b.n	5ea <reset_aes_iv+0x66>
/home/palatrauss/optee_with_ftpm_ta/out-br/build/optee_examples_ext-1.0/aes/ta/aes_ta.c:315
     5cc:	687b      	ldr	r3, [r7, #4]
     5ce:	681b      	ldr	r3, [r3, #0]
     5d0:	61bb      	str	r3, [r7, #24]
/home/palatrauss/optee_with_ftpm_ta/out-br/build/optee_examples_ext-1.0/aes/ta/aes_ta.c:316
     5d2:	687b      	ldr	r3, [r7, #4]
     5d4:	685b      	ldr	r3, [r3, #4]
     5d6:	61fb      	str	r3, [r7, #28]
/home/palatrauss/optee_with_ftpm_ta/out-br/build/optee_examples_ext-1.0/aes/ta/aes_ta.c:321
     5d8:	697b      	ldr	r3, [r7, #20]
     5da:	68db      	ldr	r3, [r3, #12]
     5dc:	69fa      	ldr	r2, [r7, #28]
     5de:	69b9      	ldr	r1, [r7, #24]
     5e0:	4618      	mov	r0, r3
     5e2:	f007 fea7 	bl	8334 <__GP11_TEE_CipherInit>
/home/palatrauss/optee_with_ftpm_ta/out-br/build/optee_examples_ext-1.0/aes/ta/aes_ta.c:323
     5e6:	f04f 0300 	mov.w	r3, #0
/home/palatrauss/optee_with_ftpm_ta/out-br/build/optee_examples_ext-1.0/aes/ta/aes_ta.c:324
     5ea:	4618      	mov	r0, r3
     5ec:	f107 0720 	add.w	r7, r7, #32
     5f0:	46bd      	mov	sp, r7
     5f2:	bd80      	pop	{r7, pc}
     5f4:	0001a292 	.word	0x0001a292
     5f8:	0001a384 	.word	0x0001a384

000005fc <cipher_buffer>:
cipher_buffer():
/home/palatrauss/optee_with_ftpm_ta/out-br/build/optee_examples_ext-1.0/aes/ta/aes_ta.c:331
     5fc:	f84d 4d0c 	str.w	r4, [sp, #-12]!
     600:	e9cd 7e01 	strd	r7, lr, [sp, #4]
     604:	b08b      	sub	sp, #44	; 0x2c
     606:	af04      	add	r7, sp, #16
     608:	60f8      	str	r0, [r7, #12]
     60a:	60b9      	str	r1, [r7, #8]
     60c:	607a      	str	r2, [r7, #4]
/home/palatrauss/optee_with_ftpm_ta/out-br/build/optee_examples_ext-1.0/aes/ta/aes_ta.c:332
     60e:	f04f 0365 	mov.w	r3, #101	; 0x65
     612:	613b      	str	r3, [r7, #16]
/home/palatrauss/optee_with_ftpm_ta/out-br/build/optee_examples_ext-1.0/aes/ta/aes_ta.c:340
     614:	68fb      	ldr	r3, [r7, #12]
     616:	9301      	str	r3, [sp, #4]
     618:	4b2f      	ldr	r3, [pc, #188]	; (6d8 <cipher_buffer+0xdc>)
     61a:	447b      	add	r3, pc
     61c:	9300      	str	r3, [sp, #0]
     61e:	f04f 0301 	mov.w	r3, #1
     622:	f04f 0203 	mov.w	r2, #3
     626:	f44f 71aa 	mov.w	r1, #340	; 0x154
     62a:	482c      	ldr	r0, [pc, #176]	; (6dc <cipher_buffer+0xe0>)
     62c:	4478      	add	r0, pc
     62e:	f000 fa5d 	bl	aec <trace_printf>
/home/palatrauss/optee_with_ftpm_ta/out-br/build/optee_examples_ext-1.0/aes/ta/aes_ta.c:341
     632:	68fb      	ldr	r3, [r7, #12]
     634:	617b      	str	r3, [r7, #20]
/home/palatrauss/optee_with_ftpm_ta/out-br/build/optee_examples_ext-1.0/aes/ta/aes_ta.c:344
     636:	68ba      	ldr	r2, [r7, #8]
     638:	693b      	ldr	r3, [r7, #16]
     63a:	429a      	cmp	r2, r3
     63c:	d004      	beq.n	648 <cipher_buffer+0x4c>
/home/palatrauss/optee_with_ftpm_ta/out-br/build/optee_examples_ext-1.0/aes/ta/aes_ta.c:345
     63e:	f04f 0306 	mov.w	r3, #6
     642:	f6cf 73ff 	movt	r3, #65535	; 0xffff
     646:	e03e      	b.n	6c6 <cipher_buffer+0xca>
/home/palatrauss/optee_with_ftpm_ta/out-br/build/optee_examples_ext-1.0/aes/ta/aes_ta.c:347
     648:	687b      	ldr	r3, [r7, #4]
     64a:	f103 0308 	add.w	r3, r3, #8
     64e:	685a      	ldr	r2, [r3, #4]
     650:	687b      	ldr	r3, [r7, #4]
     652:	685b      	ldr	r3, [r3, #4]
     654:	429a      	cmp	r2, r3
     656:	d219      	bcs.n	68c <cipher_buffer+0x90>
/home/palatrauss/optee_with_ftpm_ta/out-br/build/optee_examples_ext-1.0/aes/ta/aes_ta.c:348
     658:	687b      	ldr	r3, [r7, #4]
     65a:	685b      	ldr	r3, [r3, #4]
     65c:	687a      	ldr	r2, [r7, #4]
     65e:	f102 0208 	add.w	r2, r2, #8
     662:	6852      	ldr	r2, [r2, #4]
     664:	9202      	str	r2, [sp, #8]
     666:	9301      	str	r3, [sp, #4]
     668:	4b1d      	ldr	r3, [pc, #116]	; (6e0 <cipher_buffer+0xe4>)
     66a:	447b      	add	r3, pc
     66c:	9300      	str	r3, [sp, #0]
     66e:	f04f 0301 	mov.w	r3, #1
     672:	f04f 0201 	mov.w	r2, #1
     676:	f44f 71ae 	mov.w	r1, #348	; 0x15c
     67a:	481a      	ldr	r0, [pc, #104]	; (6e4 <cipher_buffer+0xe8>)
     67c:	4478      	add	r0, pc
     67e:	f000 fa35 	bl	aec <trace_printf>
/home/palatrauss/optee_with_ftpm_ta/out-br/build/optee_examples_ext-1.0/aes/ta/aes_ta.c:350
     682:	f04f 0306 	mov.w	r3, #6
     686:	f6cf 73ff 	movt	r3, #65535	; 0xffff
     68a:	e01c      	b.n	6c6 <cipher_buffer+0xca>
/home/palatrauss/optee_with_ftpm_ta/out-br/build/optee_examples_ext-1.0/aes/ta/aes_ta.c:353
     68c:	697b      	ldr	r3, [r7, #20]
     68e:	68db      	ldr	r3, [r3, #12]
     690:	2b00      	cmp	r3, #0
     692:	d104      	bne.n	69e <cipher_buffer+0xa2>
/home/palatrauss/optee_with_ftpm_ta/out-br/build/optee_examples_ext-1.0/aes/ta/aes_ta.c:354
     694:	f04f 0307 	mov.w	r3, #7
     698:	f6cf 73ff 	movt	r3, #65535	; 0xffff
     69c:	e013      	b.n	6c6 <cipher_buffer+0xca>
/home/palatrauss/optee_with_ftpm_ta/out-br/build/optee_examples_ext-1.0/aes/ta/aes_ta.c:359
     69e:	697b      	ldr	r3, [r7, #20]
     6a0:	68d8      	ldr	r0, [r3, #12]
/home/palatrauss/optee_with_ftpm_ta/out-br/build/optee_examples_ext-1.0/aes/ta/aes_ta.c:360
     6a2:	687b      	ldr	r3, [r7, #4]
     6a4:	6819      	ldr	r1, [r3, #0]
/home/palatrauss/optee_with_ftpm_ta/out-br/build/optee_examples_ext-1.0/aes/ta/aes_ta.c:359
     6a6:	687b      	ldr	r3, [r7, #4]
     6a8:	685a      	ldr	r2, [r3, #4]
/home/palatrauss/optee_with_ftpm_ta/out-br/build/optee_examples_ext-1.0/aes/ta/aes_ta.c:361
     6aa:	687b      	ldr	r3, [r7, #4]
     6ac:	f103 0308 	add.w	r3, r3, #8
/home/palatrauss/optee_with_ftpm_ta/out-br/build/optee_examples_ext-1.0/aes/ta/aes_ta.c:359
     6b0:	681c      	ldr	r4, [r3, #0]
/home/palatrauss/optee_with_ftpm_ta/out-br/build/optee_examples_ext-1.0/aes/ta/aes_ta.c:361
     6b2:	687b      	ldr	r3, [r7, #4]
     6b4:	f103 0308 	add.w	r3, r3, #8
/home/palatrauss/optee_with_ftpm_ta/out-br/build/optee_examples_ext-1.0/aes/ta/aes_ta.c:359
     6b8:	f103 0304 	add.w	r3, r3, #4
     6bc:	9300      	str	r3, [sp, #0]
     6be:	4623      	mov	r3, r4
     6c0:	f008 f910 	bl	88e4 <__GP11_TEE_CipherUpdate>
     6c4:	4603      	mov	r3, r0
/home/palatrauss/optee_with_ftpm_ta/out-br/build/optee_examples_ext-1.0/aes/ta/aes_ta.c:362
     6c6:	4618      	mov	r0, r3
     6c8:	f107 071c 	add.w	r7, r7, #28
     6cc:	46bd      	mov	sp, r7
     6ce:	e9dd 4700 	ldrd	r4, r7, [sp]
     6d2:	b002      	add	sp, #8
     6d4:	f85d fb04 	ldr.w	pc, [sp], #4
     6d8:	0001a23a 	.word	0x0001a23a
     6dc:	0001a318 	.word	0x0001a318
     6e0:	0001a206 	.word	0x0001a206
     6e4:	0001a2c8 	.word	0x0001a2c8

000006e8 <TA_CreateEntryPoint>:
TA_CreateEntryPoint():
/home/palatrauss/optee_with_ftpm_ta/out-br/build/optee_examples_ext-1.0/aes/ta/aes_ta.c:365
     6e8:	f84d 7d04 	str.w	r7, [sp, #-4]!
     6ec:	af00      	add	r7, sp, #0
/home/palatrauss/optee_with_ftpm_ta/out-br/build/optee_examples_ext-1.0/aes/ta/aes_ta.c:367
     6ee:	f04f 0300 	mov.w	r3, #0
/home/palatrauss/optee_with_ftpm_ta/out-br/build/optee_examples_ext-1.0/aes/ta/aes_ta.c:368
     6f2:	4618      	mov	r0, r3
     6f4:	46bd      	mov	sp, r7
     6f6:	f85d 7b04 	ldr.w	r7, [sp], #4
     6fa:	4770      	bx	lr

000006fc <TA_DestroyEntryPoint>:
TA_DestroyEntryPoint():
/home/palatrauss/optee_with_ftpm_ta/out-br/build/optee_examples_ext-1.0/aes/ta/aes_ta.c:371
     6fc:	f84d 7d04 	str.w	r7, [sp, #-4]!
     700:	af00      	add	r7, sp, #0
/home/palatrauss/optee_with_ftpm_ta/out-br/build/optee_examples_ext-1.0/aes/ta/aes_ta.c:373
     702:	bf00      	nop
     704:	46bd      	mov	sp, r7
     706:	f85d 7b04 	ldr.w	r7, [sp], #4
     70a:	4770      	bx	lr

0000070c <__GP11_TA_OpenSessionEntryPoint>:
__GP11_TA_OpenSessionEntryPoint():
/home/palatrauss/optee_with_ftpm_ta/out-br/build/optee_examples_ext-1.0/aes/ta/aes_ta.c:378
     70c:	e96d 7e02 	strd	r7, lr, [sp, #-8]!
     710:	b088      	sub	sp, #32
     712:	af02      	add	r7, sp, #8
     714:	60f8      	str	r0, [r7, #12]
     716:	60b9      	str	r1, [r7, #8]
     718:	607a      	str	r2, [r7, #4]
/home/palatrauss/optee_with_ftpm_ta/out-br/build/optee_examples_ext-1.0/aes/ta/aes_ta.c:386
     71a:	f04f 0100 	mov.w	r1, #0
     71e:	f04f 0014 	mov.w	r0, #20
     722:	f003 fa21 	bl	3b68 <__GP11_TEE_Malloc>
     726:	6178      	str	r0, [r7, #20]
/home/palatrauss/optee_with_ftpm_ta/out-br/build/optee_examples_ext-1.0/aes/ta/aes_ta.c:387
     728:	697b      	ldr	r3, [r7, #20]
     72a:	2b00      	cmp	r3, #0
     72c:	d104      	bne.n	738 <__GP11_TA_OpenSessionEntryPoint+0x2c>
/home/palatrauss/optee_with_ftpm_ta/out-br/build/optee_examples_ext-1.0/aes/ta/aes_ta.c:388
     72e:	f04f 030c 	mov.w	r3, #12
     732:	f6cf 73ff 	movt	r3, #65535	; 0xffff
     736:	e01c      	b.n	772 <__GP11_TA_OpenSessionEntryPoint+0x66>
/home/palatrauss/optee_with_ftpm_ta/out-br/build/optee_examples_ext-1.0/aes/ta/aes_ta.c:390
     738:	697b      	ldr	r3, [r7, #20]
     73a:	f04f 0200 	mov.w	r2, #0
     73e:	611a      	str	r2, [r3, #16]
/home/palatrauss/optee_with_ftpm_ta/out-br/build/optee_examples_ext-1.0/aes/ta/aes_ta.c:391
     740:	697b      	ldr	r3, [r7, #20]
     742:	f04f 0200 	mov.w	r2, #0
     746:	60da      	str	r2, [r3, #12]
/home/palatrauss/optee_with_ftpm_ta/out-br/build/optee_examples_ext-1.0/aes/ta/aes_ta.c:393
     748:	687b      	ldr	r3, [r7, #4]
     74a:	697a      	ldr	r2, [r7, #20]
     74c:	601a      	str	r2, [r3, #0]
/home/palatrauss/optee_with_ftpm_ta/out-br/build/optee_examples_ext-1.0/aes/ta/aes_ta.c:394
     74e:	687b      	ldr	r3, [r7, #4]
     750:	681b      	ldr	r3, [r3, #0]
     752:	9301      	str	r3, [sp, #4]
     754:	4b09      	ldr	r3, [pc, #36]	; (77c <__GP11_TA_OpenSessionEntryPoint+0x70>)
     756:	447b      	add	r3, pc
     758:	9300      	str	r3, [sp, #0]
     75a:	f04f 0301 	mov.w	r3, #1
     75e:	f04f 0203 	mov.w	r2, #3
     762:	f44f 71c5 	mov.w	r1, #394	; 0x18a
     766:	4806      	ldr	r0, [pc, #24]	; (780 <__GP11_TA_OpenSessionEntryPoint+0x74>)
     768:	4478      	add	r0, pc
     76a:	f000 f9bf 	bl	aec <trace_printf>
/home/palatrauss/optee_with_ftpm_ta/out-br/build/optee_examples_ext-1.0/aes/ta/aes_ta.c:396
     76e:	f04f 0300 	mov.w	r3, #0
/home/palatrauss/optee_with_ftpm_ta/out-br/build/optee_examples_ext-1.0/aes/ta/aes_ta.c:397
     772:	4618      	mov	r0, r3
     774:	f107 0718 	add.w	r7, r7, #24
     778:	46bd      	mov	sp, r7
     77a:	bd80      	pop	{r7, pc}
     77c:	0001a136 	.word	0x0001a136
     780:	0001a1ec 	.word	0x0001a1ec

00000784 <TA_CloseSessionEntryPoint>:
TA_CloseSessionEntryPoint():
/home/palatrauss/optee_with_ftpm_ta/out-br/build/optee_examples_ext-1.0/aes/ta/aes_ta.c:400
     784:	e96d 7e02 	strd	r7, lr, [sp, #-8]!
     788:	b086      	sub	sp, #24
     78a:	af02      	add	r7, sp, #8
     78c:	6078      	str	r0, [r7, #4]
/home/palatrauss/optee_with_ftpm_ta/out-br/build/optee_examples_ext-1.0/aes/ta/aes_ta.c:404
     78e:	687b      	ldr	r3, [r7, #4]
     790:	9301      	str	r3, [sp, #4]
     792:	4b14      	ldr	r3, [pc, #80]	; (7e4 <TA_CloseSessionEntryPoint+0x60>)
     794:	447b      	add	r3, pc
     796:	9300      	str	r3, [sp, #0]
     798:	f04f 0301 	mov.w	r3, #1
     79c:	f04f 0203 	mov.w	r2, #3
     7a0:	f44f 71ca 	mov.w	r1, #404	; 0x194
     7a4:	4810      	ldr	r0, [pc, #64]	; (7e8 <TA_CloseSessionEntryPoint+0x64>)
     7a6:	4478      	add	r0, pc
     7a8:	f000 f9a0 	bl	aec <trace_printf>
/home/palatrauss/optee_with_ftpm_ta/out-br/build/optee_examples_ext-1.0/aes/ta/aes_ta.c:405
     7ac:	687b      	ldr	r3, [r7, #4]
     7ae:	60fb      	str	r3, [r7, #12]
/home/palatrauss/optee_with_ftpm_ta/out-br/build/optee_examples_ext-1.0/aes/ta/aes_ta.c:408
     7b0:	68fb      	ldr	r3, [r7, #12]
     7b2:	691b      	ldr	r3, [r3, #16]
     7b4:	2b00      	cmp	r3, #0
     7b6:	d004      	beq.n	7c2 <TA_CloseSessionEntryPoint+0x3e>
/home/palatrauss/optee_with_ftpm_ta/out-br/build/optee_examples_ext-1.0/aes/ta/aes_ta.c:409
     7b8:	68fb      	ldr	r3, [r7, #12]
     7ba:	691b      	ldr	r3, [r3, #16]
     7bc:	4618      	mov	r0, r3
     7be:	f004 f885 	bl	48cc <TEE_FreeTransientObject>
/home/palatrauss/optee_with_ftpm_ta/out-br/build/optee_examples_ext-1.0/aes/ta/aes_ta.c:410
     7c2:	68fb      	ldr	r3, [r7, #12]
     7c4:	68db      	ldr	r3, [r3, #12]
     7c6:	2b00      	cmp	r3, #0
     7c8:	d004      	beq.n	7d4 <TA_CloseSessionEntryPoint+0x50>
/home/palatrauss/optee_with_ftpm_ta/out-br/build/optee_examples_ext-1.0/aes/ta/aes_ta.c:411
     7ca:	68fb      	ldr	r3, [r7, #12]
     7cc:	68db      	ldr	r3, [r3, #12]
     7ce:	4618      	mov	r0, r3
     7d0:	f006 fe0b 	bl	73ea <__GP11_TEE_FreeOperation>
/home/palatrauss/optee_with_ftpm_ta/out-br/build/optee_examples_ext-1.0/aes/ta/aes_ta.c:412
     7d4:	68f8      	ldr	r0, [r7, #12]
     7d6:	f003 fa63 	bl	3ca0 <TEE_Free>
/home/palatrauss/optee_with_ftpm_ta/out-br/build/optee_examples_ext-1.0/aes/ta/aes_ta.c:413
     7da:	bf00      	nop
     7dc:	f107 0710 	add.w	r7, r7, #16
     7e0:	46bd      	mov	sp, r7
     7e2:	bd80      	pop	{r7, pc}
     7e4:	0001a114 	.word	0x0001a114
     7e8:	0001a1ce 	.word	0x0001a1ce

000007ec <__GP11_TA_InvokeCommandEntryPoint>:
__GP11_TA_InvokeCommandEntryPoint():
/home/palatrauss/optee_with_ftpm_ta/out-br/build/optee_examples_ext-1.0/aes/ta/aes_ta.c:419
     7ec:	e96d 7e02 	strd	r7, lr, [sp, #-8]!
     7f0:	b086      	sub	sp, #24
     7f2:	af02      	add	r7, sp, #8
     7f4:	60f8      	str	r0, [r7, #12]
     7f6:	60b9      	str	r1, [r7, #8]
     7f8:	607a      	str	r2, [r7, #4]
     7fa:	603b      	str	r3, [r7, #0]
/home/palatrauss/optee_with_ftpm_ta/out-br/build/optee_examples_ext-1.0/aes/ta/aes_ta.c:420
     7fc:	68bb      	ldr	r3, [r7, #8]
     7fe:	2b03      	cmp	r3, #3
     800:	d828      	bhi.n	854 <__GP11_TA_InvokeCommandEntryPoint+0x68>
     802:	a202      	add	r2, pc, #8	; (adr r2, 80c <__GP11_TA_InvokeCommandEntryPoint+0x20>)
     804:	f852 3023 	ldr.w	r3, [r2, r3, lsl #2]
     808:	441a      	add	r2, r3
     80a:	4710      	bx	r2
     80c:	00000011 	.word	0x00000011
     810:	0000001f 	.word	0x0000001f
     814:	0000002d 	.word	0x0000002d
     818:	0000003b 	.word	0x0000003b
/home/palatrauss/optee_with_ftpm_ta/out-br/build/optee_examples_ext-1.0/aes/ta/aes_ta.c:422
     81c:	683a      	ldr	r2, [r7, #0]
     81e:	6879      	ldr	r1, [r7, #4]
     820:	68f8      	ldr	r0, [r7, #12]
     822:	f7ff fc9b 	bl	15c <alloc_resources>
     826:	4603      	mov	r3, r0
     828:	e027      	b.n	87a <__GP11_TA_InvokeCommandEntryPoint+0x8e>
/home/palatrauss/optee_with_ftpm_ta/out-br/build/optee_examples_ext-1.0/aes/ta/aes_ta.c:424
     82a:	683a      	ldr	r2, [r7, #0]
     82c:	6879      	ldr	r1, [r7, #4]
     82e:	68f8      	ldr	r0, [r7, #12]
     830:	f7ff fde4 	bl	3fc <set_aes_key>
     834:	4603      	mov	r3, r0
     836:	e020      	b.n	87a <__GP11_TA_InvokeCommandEntryPoint+0x8e>
/home/palatrauss/optee_with_ftpm_ta/out-br/build/optee_examples_ext-1.0/aes/ta/aes_ta.c:426
     838:	683a      	ldr	r2, [r7, #0]
     83a:	6879      	ldr	r1, [r7, #4]
     83c:	68f8      	ldr	r0, [r7, #12]
     83e:	f7ff fea1 	bl	584 <reset_aes_iv>
     842:	4603      	mov	r3, r0
     844:	e019      	b.n	87a <__GP11_TA_InvokeCommandEntryPoint+0x8e>
/home/palatrauss/optee_with_ftpm_ta/out-br/build/optee_examples_ext-1.0/aes/ta/aes_ta.c:428
     846:	683a      	ldr	r2, [r7, #0]
     848:	6879      	ldr	r1, [r7, #4]
     84a:	68f8      	ldr	r0, [r7, #12]
     84c:	f7ff fed6 	bl	5fc <cipher_buffer>
     850:	4603      	mov	r3, r0
     852:	e012      	b.n	87a <__GP11_TA_InvokeCommandEntryPoint+0x8e>
/home/palatrauss/optee_with_ftpm_ta/out-br/build/optee_examples_ext-1.0/aes/ta/aes_ta.c:430
     854:	68bb      	ldr	r3, [r7, #8]
     856:	9301      	str	r3, [sp, #4]
     858:	4b0a      	ldr	r3, [pc, #40]	; (884 <__GP11_TA_InvokeCommandEntryPoint+0x98>)
     85a:	447b      	add	r3, pc
     85c:	9300      	str	r3, [sp, #0]
     85e:	f04f 0301 	mov.w	r3, #1
     862:	f04f 0201 	mov.w	r2, #1
     866:	f44f 71d7 	mov.w	r1, #430	; 0x1ae
     86a:	4807      	ldr	r0, [pc, #28]	; (888 <__GP11_TA_InvokeCommandEntryPoint+0x9c>)
     86c:	4478      	add	r0, pc
     86e:	f000 f93d 	bl	aec <trace_printf>
/home/palatrauss/optee_with_ftpm_ta/out-br/build/optee_examples_ext-1.0/aes/ta/aes_ta.c:431
     872:	f04f 030a 	mov.w	r3, #10
     876:	f6cf 73ff 	movt	r3, #65535	; 0xffff
/home/palatrauss/optee_with_ftpm_ta/out-br/build/optee_examples_ext-1.0/aes/ta/aes_ta.c:433
     87a:	4618      	mov	r0, r3
     87c:	f107 0710 	add.w	r7, r7, #16
     880:	46bd      	mov	sp, r7
     882:	bd80      	pop	{r7, pc}
     884:	0001a06a 	.word	0x0001a06a
     888:	0001a124 	.word	0x0001a124

0000088c <__ta_entry_c>:
__ta_entry_c():
/home/palatrauss/optee_with_ftpm_ta/optee_os/out/arm/export-ta_arm32/src/user_ta_header.c:51
     88c:	e96d 7e02 	strd	r7, lr, [sp, #-8]!
     890:	b088      	sub	sp, #32
     892:	af00      	add	r7, sp, #0
     894:	60f8      	str	r0, [r7, #12]
     896:	60b9      	str	r1, [r7, #8]
     898:	607a      	str	r2, [r7, #4]
     89a:	603b      	str	r3, [r7, #0]
     89c:	4a0b      	ldr	r2, [pc, #44]	; (8cc <__ta_entry_c+0x40>)
     89e:	447a      	add	r2, pc
     8a0:	4b0b      	ldr	r3, [pc, #44]	; (8d0 <__ta_entry_c+0x44>)
     8a2:	58d3      	ldr	r3, [r2, r3]
     8a4:	681b      	ldr	r3, [r3, #0]
     8a6:	61fb      	str	r3, [r7, #28]
     8a8:	f04f 0300 	mov.w	r3, #0
/home/palatrauss/optee_with_ftpm_ta/optee_os/out/arm/export-ta_arm32/src/user_ta_header.c:53
     8ac:	f04f 0300 	mov.w	r3, #0
     8b0:	f6cf 73ff 	movt	r3, #65535	; 0xffff
     8b4:	61bb      	str	r3, [r7, #24]
/home/palatrauss/optee_with_ftpm_ta/optee_os/out/arm/export-ta_arm32/src/user_ta_header.c:70
     8b6:	683b      	ldr	r3, [r7, #0]
     8b8:	687a      	ldr	r2, [r7, #4]
     8ba:	68b9      	ldr	r1, [r7, #8]
     8bc:	68f8      	ldr	r0, [r7, #12]
     8be:	f00c f94b 	bl	cb58 <__utee_entry>
     8c2:	61b8      	str	r0, [r7, #24]
/home/palatrauss/optee_with_ftpm_ta/optee_os/out/arm/export-ta_arm32/src/user_ta_header.c:81
     8c4:	69b8      	ldr	r0, [r7, #24]
     8c6:	f00c eaf2 	blx	ceac <_utee_return>
     8ca:	bf00      	nop
     8cc:	0001e7e6 	.word	0x0001e7e6
     8d0:	0000000c 	.word	0x0000000c

000008d4 <tahead_get_trace_level>:
tahead_get_trace_level():
/home/palatrauss/optee_with_ftpm_ta/optee_os/out/arm/export-ta_arm32/src/user_ta_header.c:188
     8d4:	f84d 7d04 	str.w	r7, [sp, #-4]!
     8d8:	af00      	add	r7, sp, #0
/home/palatrauss/optee_with_ftpm_ta/optee_os/out/arm/export-ta_arm32/src/user_ta_header.c:192
     8da:	f04f 0304 	mov.w	r3, #4
/home/palatrauss/optee_with_ftpm_ta/optee_os/out/arm/export-ta_arm32/src/user_ta_header.c:193
     8de:	4618      	mov	r0, r3
     8e0:	46bd      	mov	sp, r7
     8e2:	f85d 7b04 	ldr.w	r7, [sp], #4
     8e6:	4770      	bx	lr

000008e8 <TA_OpenSessionEntryPoint>:
TA_OpenSessionEntryPoint():
/home/palatrauss/optee_with_ftpm_ta/optee_os/out/arm/export-ta_arm32/src/user_ta_header.c:202
     8e8:	e96d 7e02 	strd	r7, lr, [sp, #-8]!
     8ec:	b084      	sub	sp, #16
     8ee:	af00      	add	r7, sp, #0
     8f0:	60f8      	str	r0, [r7, #12]
     8f2:	60b9      	str	r1, [r7, #8]
     8f4:	607a      	str	r2, [r7, #4]
     8f6:	4a07      	ldr	r2, [pc, #28]	; (914 <TA_OpenSessionEntryPoint+0x2c>)
     8f8:	447a      	add	r2, pc
/home/palatrauss/optee_with_ftpm_ta/optee_os/out/arm/export-ta_arm32/src/user_ta_header.c:203
     8fa:	4b07      	ldr	r3, [pc, #28]	; (918 <TA_OpenSessionEntryPoint+0x30>)
     8fc:	58d3      	ldr	r3, [r2, r3]
     8fe:	687a      	ldr	r2, [r7, #4]
     900:	68b9      	ldr	r1, [r7, #8]
     902:	68f8      	ldr	r0, [r7, #12]
     904:	f00c fa26 	bl	cd54 <__ta_open_sess>
     908:	4603      	mov	r3, r0
/home/palatrauss/optee_with_ftpm_ta/optee_os/out/arm/export-ta_arm32/src/user_ta_header.c:205
     90a:	4618      	mov	r0, r3
     90c:	f107 0710 	add.w	r7, r7, #16
     910:	46bd      	mov	sp, r7
     912:	bd80      	pop	{r7, pc}
     914:	0001e78c 	.word	0x0001e78c
     918:	00000040 	.word	0x00000040

0000091c <TA_InvokeCommandEntryPoint>:
TA_InvokeCommandEntryPoint():
/home/palatrauss/optee_with_ftpm_ta/optee_os/out/arm/export-ta_arm32/src/user_ta_header.c:210
     91c:	e96d 7e02 	strd	r7, lr, [sp, #-8]!
     920:	b086      	sub	sp, #24
     922:	af02      	add	r7, sp, #8
     924:	60f8      	str	r0, [r7, #12]
     926:	60b9      	str	r1, [r7, #8]
     928:	607a      	str	r2, [r7, #4]
     92a:	603b      	str	r3, [r7, #0]
     92c:	4a08      	ldr	r2, [pc, #32]	; (950 <TA_InvokeCommandEntryPoint+0x34>)
     92e:	447a      	add	r2, pc
/home/palatrauss/optee_with_ftpm_ta/optee_os/out/arm/export-ta_arm32/src/user_ta_header.c:211
     930:	4b08      	ldr	r3, [pc, #32]	; (954 <TA_InvokeCommandEntryPoint+0x38>)
     932:	58d3      	ldr	r3, [r2, r3]
     934:	9300      	str	r3, [sp, #0]
     936:	683b      	ldr	r3, [r7, #0]
     938:	687a      	ldr	r2, [r7, #4]
     93a:	68b9      	ldr	r1, [r7, #8]
     93c:	68f8      	ldr	r0, [r7, #12]
     93e:	f00c fa55 	bl	cdec <__ta_invoke_cmd>
     942:	4603      	mov	r3, r0
/home/palatrauss/optee_with_ftpm_ta/optee_os/out/arm/export-ta_arm32/src/user_ta_header.c:213
     944:	4618      	mov	r0, r3
     946:	f107 0710 	add.w	r7, r7, #16
     94a:	46bd      	mov	sp, r7
     94c:	bd80      	pop	{r7, pc}
     94e:	bf00      	nop
     950:	0001e756 	.word	0x0001e756
     954:	00000034 	.word	0x00000034

00000958 <__ta_entry>:
__ta_entry():
/home/palatrauss/optee_with_ftpm_ta/optee_os/out/arm/export-ta_arm32/src/ta_entry_a32.S:22
     958:	faffffcb 	blx	88c <__ta_entry_c>

0000095c <__stack_chk_fail>:
__stack_chk_fail():
/home/palatrauss/optee_with_ftpm_ta/optee_os/lib/libutils/isoc/stack_check.c:24
     95c:	e96d 7e02 	strd	r7, lr, [sp, #-8]!
     960:	b082      	sub	sp, #8
     962:	af02      	add	r7, sp, #8
/home/palatrauss/optee_with_ftpm_ta/optee_os/lib/libutils/isoc/stack_check.c:25
     964:	4b09      	ldr	r3, [pc, #36]	; (98c <__stack_chk_fail+0x30>)
     966:	447b      	add	r3, pc
     968:	9300      	str	r3, [sp, #0]
     96a:	f04f 0301 	mov.w	r3, #1
     96e:	f04f 0201 	mov.w	r2, #1
     972:	f04f 0100 	mov.w	r1, #0
     976:	f04f 0000 	mov.w	r0, #0
     97a:	f000 f8b7 	bl	aec <trace_printf>
/home/palatrauss/optee_with_ftpm_ta/optee_os/lib/libutils/isoc/stack_check.c:27 (discriminator 1)
     97e:	f243 000f 	movw	r0, #12303	; 0x300f
     982:	f6cf 70ff 	movt	r0, #65535	; 0xffff
     986:	f00c ea88 	blx	ce98 <_utee_panic>
     98a:	e7f8      	b.n	97e <__stack_chk_fail+0x22>
     98c:	0001a1b6 	.word	0x0001a1b6

00000990 <trace_set_level>:
trace_set_level():
/home/palatrauss/optee_with_ftpm_ta/optee_os/lib/libutils/ext/trace.c:25
     990:	f84d 7d04 	str.w	r7, [sp, #-4]!
     994:	b083      	sub	sp, #12
     996:	af00      	add	r7, sp, #0
     998:	6078      	str	r0, [r7, #4]
     99a:	4b0d      	ldr	r3, [pc, #52]	; (9d0 <trace_set_level+0x40>)
     99c:	447b      	add	r3, pc
/home/palatrauss/optee_with_ftpm_ta/optee_os/lib/libutils/ext/trace.c:26
     99e:	687a      	ldr	r2, [r7, #4]
     9a0:	2a00      	cmp	r2, #0
     9a2:	db07      	blt.n	9b4 <trace_set_level+0x24>
/home/palatrauss/optee_with_ftpm_ta/optee_os/lib/libutils/ext/trace.c:26 (discriminator 1)
     9a4:	687a      	ldr	r2, [r7, #4]
     9a6:	2a04      	cmp	r2, #4
     9a8:	dc04      	bgt.n	9b4 <trace_set_level+0x24>
/home/palatrauss/optee_with_ftpm_ta/optee_os/lib/libutils/ext/trace.c:27
     9aa:	4a0a      	ldr	r2, [pc, #40]	; (9d4 <trace_set_level+0x44>)
     9ac:	589b      	ldr	r3, [r3, r2]
     9ae:	687a      	ldr	r2, [r7, #4]
     9b0:	601a      	str	r2, [r3, #0]
     9b2:	e005      	b.n	9c0 <trace_set_level+0x30>
/home/palatrauss/optee_with_ftpm_ta/optee_os/lib/libutils/ext/trace.c:29
     9b4:	4a07      	ldr	r2, [pc, #28]	; (9d4 <trace_set_level+0x44>)
     9b6:	589b      	ldr	r3, [r3, r2]
     9b8:	f04f 0204 	mov.w	r2, #4
     9bc:	601a      	str	r2, [r3, #0]
/home/palatrauss/optee_with_ftpm_ta/optee_os/lib/libutils/ext/trace.c:30
     9be:	bf00      	nop
     9c0:	bf00      	nop
     9c2:	f107 070c 	add.w	r7, r7, #12
     9c6:	46bd      	mov	sp, r7
     9c8:	f85d 7b04 	ldr.w	r7, [sp], #4
     9cc:	4770      	bx	lr
     9ce:	bf00      	nop
     9d0:	0001e6e8 	.word	0x0001e6e8
     9d4:	0000001c 	.word	0x0000001c

000009d8 <trace_get_level>:
trace_get_level():
/home/palatrauss/optee_with_ftpm_ta/optee_os/lib/libutils/ext/trace.c:33
     9d8:	f84d 7d04 	str.w	r7, [sp, #-4]!
     9dc:	af00      	add	r7, sp, #0
     9de:	4a05      	ldr	r2, [pc, #20]	; (9f4 <trace_get_level+0x1c>)
     9e0:	447a      	add	r2, pc
/home/palatrauss/optee_with_ftpm_ta/optee_os/lib/libutils/ext/trace.c:34
     9e2:	4b05      	ldr	r3, [pc, #20]	; (9f8 <trace_get_level+0x20>)
     9e4:	58d3      	ldr	r3, [r2, r3]
     9e6:	681b      	ldr	r3, [r3, #0]
/home/palatrauss/optee_with_ftpm_ta/optee_os/lib/libutils/ext/trace.c:35
     9e8:	4618      	mov	r0, r3
     9ea:	46bd      	mov	sp, r7
     9ec:	f85d 7b04 	ldr.w	r7, [sp], #4
     9f0:	4770      	bx	lr
     9f2:	bf00      	nop
     9f4:	0001e6a4 	.word	0x0001e6a4
     9f8:	0000001c 	.word	0x0000001c

000009fc <trace_level_to_string>:
trace_level_to_string():
/home/palatrauss/optee_with_ftpm_ta/optee_os/lib/libutils/ext/trace.c:38
     9fc:	f84d 7d04 	str.w	r7, [sp, #-4]!
     a00:	b085      	sub	sp, #20
     a02:	af00      	add	r7, sp, #0
     a04:	6078      	str	r0, [r7, #4]
     a06:	460b      	mov	r3, r1
     a08:	70fb      	strb	r3, [r7, #3]
/home/palatrauss/optee_with_ftpm_ta/optee_os/lib/libutils/ext/trace.c:47
     a0a:	f04f 0300 	mov.w	r3, #0
     a0e:	60fb      	str	r3, [r7, #12]
/home/palatrauss/optee_with_ftpm_ta/optee_os/lib/libutils/ext/trace.c:49
     a10:	78fb      	ldrb	r3, [r7, #3]
     a12:	f083 0301 	eor.w	r3, r3, #1
     a16:	b2db      	uxtb	r3, r3
     a18:	2b00      	cmp	r3, #0
     a1a:	d002      	beq.n	a22 <trace_level_to_string+0x26>
/home/palatrauss/optee_with_ftpm_ta/optee_os/lib/libutils/ext/trace.c:50
     a1c:	f04f 034d 	mov.w	r3, #77	; 0x4d
     a20:	e00c      	b.n	a3c <trace_level_to_string+0x40>
/home/palatrauss/optee_with_ftpm_ta/optee_os/lib/libutils/ext/trace.c:52
     a22:	687b      	ldr	r3, [r7, #4]
     a24:	2b00      	cmp	r3, #0
     a26:	db04      	blt.n	a32 <trace_level_to_string+0x36>
/home/palatrauss/optee_with_ftpm_ta/optee_os/lib/libutils/ext/trace.c:52 (discriminator 1)
     a28:	687b      	ldr	r3, [r7, #4]
     a2a:	2b04      	cmp	r3, #4
     a2c:	dc01      	bgt.n	a32 <trace_level_to_string+0x36>
/home/palatrauss/optee_with_ftpm_ta/optee_os/lib/libutils/ext/trace.c:53
     a2e:	687b      	ldr	r3, [r7, #4]
     a30:	60fb      	str	r3, [r7, #12]
/home/palatrauss/optee_with_ftpm_ta/optee_os/lib/libutils/ext/trace.c:55
     a32:	4a06      	ldr	r2, [pc, #24]	; (a4c <trace_level_to_string+0x50>)
     a34:	447a      	add	r2, pc
     a36:	68fb      	ldr	r3, [r7, #12]
     a38:	4413      	add	r3, r2
     a3a:	781b      	ldrb	r3, [r3, #0]
/home/palatrauss/optee_with_ftpm_ta/optee_os/lib/libutils/ext/trace.c:56
     a3c:	4618      	mov	r0, r3
     a3e:	f107 0714 	add.w	r7, r7, #20
     a42:	46bd      	mov	sp, r7
     a44:	f85d 7b04 	ldr.w	r7, [sp], #4
     a48:	4770      	bx	lr
     a4a:	bf00      	nop
     a4c:	0001a124 	.word	0x0001a124

00000a50 <print_thread_id>:
print_thread_id():
/home/palatrauss/optee_with_ftpm_ta/optee_os/lib/libutils/ext/trace.c:59
     a50:	e96d 7e02 	strd	r7, lr, [sp, #-8]!
     a54:	b086      	sub	sp, #24
     a56:	af02      	add	r7, sp, #8
     a58:	6078      	str	r0, [r7, #4]
     a5a:	6039      	str	r1, [r7, #0]
/home/palatrauss/optee_with_ftpm_ta/optee_os/lib/libutils/ext/trace.c:65
     a5c:	f04f 0301 	mov.w	r3, #1
     a60:	60bb      	str	r3, [r7, #8]
/home/palatrauss/optee_with_ftpm_ta/optee_os/lib/libutils/ext/trace.c:67
     a62:	f001 fd39 	bl	24d8 <trace_ext_get_thread_id>
     a66:	60f8      	str	r0, [r7, #12]
/home/palatrauss/optee_with_ftpm_ta/optee_os/lib/libutils/ext/trace.c:69
     a68:	68fb      	ldr	r3, [r7, #12]
     a6a:	2b00      	cmp	r3, #0
     a6c:	db0a      	blt.n	a84 <print_thread_id+0x34>
/home/palatrauss/optee_with_ftpm_ta/optee_os/lib/libutils/ext/trace.c:70
     a6e:	68fb      	ldr	r3, [r7, #12]
     a70:	9300      	str	r3, [sp, #0]
     a72:	68bb      	ldr	r3, [r7, #8]
     a74:	4a0b      	ldr	r2, [pc, #44]	; (aa4 <print_thread_id+0x54>)
     a76:	447a      	add	r2, pc
     a78:	6839      	ldr	r1, [r7, #0]
     a7a:	6878      	ldr	r0, [r7, #4]
     a7c:	f000 fb0a 	bl	1094 <snprintk>
     a80:	4603      	mov	r3, r0
     a82:	e00a      	b.n	a9a <print_thread_id+0x4a>
/home/palatrauss/optee_with_ftpm_ta/optee_os/lib/libutils/ext/trace.c:72
     a84:	4b08      	ldr	r3, [pc, #32]	; (aa8 <print_thread_id+0x58>)
     a86:	447b      	add	r3, pc
     a88:	9300      	str	r3, [sp, #0]
     a8a:	68bb      	ldr	r3, [r7, #8]
     a8c:	4a07      	ldr	r2, [pc, #28]	; (aac <print_thread_id+0x5c>)
     a8e:	447a      	add	r2, pc
     a90:	6839      	ldr	r1, [r7, #0]
     a92:	6878      	ldr	r0, [r7, #4]
     a94:	f000 fafe 	bl	1094 <snprintk>
     a98:	4603      	mov	r3, r0
/home/palatrauss/optee_with_ftpm_ta/optee_os/lib/libutils/ext/trace.c:73
     a9a:	4618      	mov	r0, r3
     a9c:	f107 0710 	add.w	r7, r7, #16
     aa0:	46bd      	mov	sp, r7
     aa2:	bd80      	pop	{r7, pc}
     aa4:	0001a0be 	.word	0x0001a0be
     aa8:	0001a0be 	.word	0x0001a0be
     aac:	0001a0ae 	.word	0x0001a0ae

00000ab0 <print_core_id>:
print_core_id():
/home/palatrauss/optee_with_ftpm_ta/optee_os/lib/libutils/ext/trace.c:107
     ab0:	f84d 7d04 	str.w	r7, [sp, #-4]!
     ab4:	b083      	sub	sp, #12
     ab6:	af00      	add	r7, sp, #0
     ab8:	6078      	str	r0, [r7, #4]
     aba:	6039      	str	r1, [r7, #0]
/home/palatrauss/optee_with_ftpm_ta/optee_os/lib/libutils/ext/trace.c:108
     abc:	f04f 0300 	mov.w	r3, #0
/home/palatrauss/optee_with_ftpm_ta/optee_os/lib/libutils/ext/trace.c:109
     ac0:	4618      	mov	r0, r3
     ac2:	f107 070c 	add.w	r7, r7, #12
     ac6:	46bd      	mov	sp, r7
     ac8:	f85d 7b04 	ldr.w	r7, [sp], #4
     acc:	4770      	bx	lr

00000ace <print_guest_id>:
print_guest_id():
/home/palatrauss/optee_with_ftpm_ta/optee_os/lib/libutils/ext/trace.c:112
     ace:	f84d 7d04 	str.w	r7, [sp, #-4]!
     ad2:	b083      	sub	sp, #12
     ad4:	af00      	add	r7, sp, #0
     ad6:	6078      	str	r0, [r7, #4]
     ad8:	6039      	str	r1, [r7, #0]
/home/palatrauss/optee_with_ftpm_ta/optee_os/lib/libutils/ext/trace.c:113
     ada:	f04f 0300 	mov.w	r3, #0
/home/palatrauss/optee_with_ftpm_ta/optee_os/lib/libutils/ext/trace.c:114
     ade:	4618      	mov	r0, r3
     ae0:	f107 070c 	add.w	r7, r7, #12
     ae4:	46bd      	mov	sp, r7
     ae6:	f85d 7b04 	ldr.w	r7, [sp], #4
     aea:	4770      	bx	lr

00000aec <trace_printf>:
trace_printf():
/home/palatrauss/optee_with_ftpm_ta/optee_os/lib/libutils/ext/trace.c:120
     aec:	e96d 7e02 	strd	r7, lr, [sp, #-8]!
     af0:	b08a      	sub	sp, #40	; 0x28
     af2:	af02      	add	r7, sp, #8
     af4:	6178      	str	r0, [r7, #20]
     af6:	6139      	str	r1, [r7, #16]
     af8:	60fa      	str	r2, [r7, #12]
     afa:	72fb      	strb	r3, [r7, #11]
     afc:	6abb      	ldr	r3, [r7, #40]	; 0x28
     afe:	607b      	str	r3, [r7, #4]
     b00:	4a13      	ldr	r2, [pc, #76]	; (b50 <trace_printf+0x64>)
     b02:	447a      	add	r2, pc
     b04:	4b13      	ldr	r3, [pc, #76]	; (b54 <trace_printf+0x68>)
     b06:	58d3      	ldr	r3, [r2, r3]
     b08:	681b      	ldr	r3, [r3, #0]
     b0a:	61fb      	str	r3, [r7, #28]
     b0c:	f04f 0300 	mov.w	r3, #0
/home/palatrauss/optee_with_ftpm_ta/optee_os/lib/libutils/ext/trace.c:123
     b10:	f107 032c 	add.w	r3, r7, #44	; 0x2c
     b14:	61bb      	str	r3, [r7, #24]
/home/palatrauss/optee_with_ftpm_ta/optee_os/lib/libutils/ext/trace.c:124
     b16:	7afa      	ldrb	r2, [r7, #11]
     b18:	69bb      	ldr	r3, [r7, #24]
     b1a:	9301      	str	r3, [sp, #4]
     b1c:	687b      	ldr	r3, [r7, #4]
     b1e:	9300      	str	r3, [sp, #0]
     b20:	4613      	mov	r3, r2
     b22:	68fa      	ldr	r2, [r7, #12]
     b24:	6939      	ldr	r1, [r7, #16]
     b26:	6978      	ldr	r0, [r7, #20]
     b28:	f000 f818 	bl	b5c <trace_vprintf>
/home/palatrauss/optee_with_ftpm_ta/optee_os/lib/libutils/ext/trace.c:126
     b2c:	bf00      	nop
/home/palatrauss/optee_with_ftpm_ta/optee_os/lib/libutils/ext/trace.c:120
     b2e:	4a0a      	ldr	r2, [pc, #40]	; (b58 <trace_printf+0x6c>)
     b30:	447a      	add	r2, pc
/home/palatrauss/optee_with_ftpm_ta/optee_os/lib/libutils/ext/trace.c:126
     b32:	4b08      	ldr	r3, [pc, #32]	; (b54 <trace_printf+0x68>)
     b34:	58d3      	ldr	r3, [r2, r3]
     b36:	681a      	ldr	r2, [r3, #0]
     b38:	69fb      	ldr	r3, [r7, #28]
     b3a:	405a      	eors	r2, r3
     b3c:	f04f 0300 	mov.w	r3, #0
     b40:	d001      	beq.n	b46 <trace_printf+0x5a>
     b42:	f7ff ff0b 	bl	95c <__stack_chk_fail>
     b46:	f107 0720 	add.w	r7, r7, #32
     b4a:	46bd      	mov	sp, r7
     b4c:	bd80      	pop	{r7, pc}
     b4e:	bf00      	nop
     b50:	0001e582 	.word	0x0001e582
     b54:	0000000c 	.word	0x0000000c
     b58:	0001e554 	.word	0x0001e554

00000b5c <trace_vprintf>:
trace_vprintf():
/home/palatrauss/optee_with_ftpm_ta/optee_os/lib/libutils/ext/trace.c:129
     b5c:	e96d 4504 	strd	r4, r5, [sp, #-16]!
     b60:	e9cd 7e02 	strd	r7, lr, [sp, #8]
     b64:	b0cc      	sub	sp, #304	; 0x130
     b66:	af02      	add	r7, sp, #8
     b68:	f507 7494 	add.w	r4, r7, #296	; 0x128
     b6c:	f5a4 748a 	sub.w	r4, r4, #276	; 0x114
     b70:	6020      	str	r0, [r4, #0]
     b72:	f507 7094 	add.w	r0, r7, #296	; 0x128
     b76:	f5a0 708c 	sub.w	r0, r0, #280	; 0x118
     b7a:	6001      	str	r1, [r0, #0]
     b7c:	f507 7194 	add.w	r1, r7, #296	; 0x128
     b80:	f5a1 718e 	sub.w	r1, r1, #284	; 0x11c
     b84:	600a      	str	r2, [r1, #0]
     b86:	4619      	mov	r1, r3
     b88:	f507 7394 	add.w	r3, r7, #296	; 0x128
     b8c:	f5a3 7392 	sub.w	r3, r3, #292	; 0x124
     b90:	f507 7294 	add.w	r2, r7, #296	; 0x128
     b94:	f2a2 121d 	subw	r2, r2, #285	; 0x11d
     b98:	7011      	strb	r1, [r2, #0]
     b9a:	f8d7 2138 	ldr.w	r2, [r7, #312]	; 0x138
     b9e:	601a      	str	r2, [r3, #0]
     ba0:	f8df 44ac 	ldr.w	r4, [pc, #1196]	; 1050 <trace_vprintf+0x4f4>
     ba4:	447c      	add	r4, pc
     ba6:	f8df 24ac 	ldr.w	r2, [pc, #1196]	; 1054 <trace_vprintf+0x4f8>
     baa:	447a      	add	r2, pc
     bac:	f8df 34a8 	ldr.w	r3, [pc, #1192]	; 1058 <trace_vprintf+0x4fc>
     bb0:	58d3      	ldr	r3, [r2, r3]
     bb2:	681b      	ldr	r3, [r3, #0]
     bb4:	f8c7 3124 	str.w	r3, [r7, #292]	; 0x124
     bb8:	f04f 0300 	mov.w	r3, #0
/home/palatrauss/optee_with_ftpm_ta/optee_os/lib/libutils/ext/trace.c:131
     bbc:	f507 7394 	add.w	r3, r7, #296	; 0x128
     bc0:	f5a3 7386 	sub.w	r3, r3, #268	; 0x10c
     bc4:	f04f 0200 	mov.w	r2, #0
     bc8:	601a      	str	r2, [r3, #0]
/home/palatrauss/optee_with_ftpm_ta/optee_os/lib/libutils/ext/trace.c:134
     bca:	f507 7394 	add.w	r3, r7, #296	; 0x128
     bce:	f2a3 131d 	subw	r3, r3, #285	; 0x11d
     bd2:	781b      	ldrb	r3, [r3, #0]
     bd4:	2b00      	cmp	r3, #0
     bd6:	d00b      	beq.n	bf0 <trace_vprintf+0x94>
/home/palatrauss/optee_with_ftpm_ta/optee_os/lib/libutils/ext/trace.c:134 (discriminator 1)
     bd8:	f8df 3480 	ldr.w	r3, [pc, #1152]	; 105c <trace_vprintf+0x500>
     bdc:	58e3      	ldr	r3, [r4, r3]
     bde:	681b      	ldr	r3, [r3, #0]
     be0:	f507 7294 	add.w	r2, r7, #296	; 0x128
     be4:	f5a2 728e 	sub.w	r2, r2, #284	; 0x11c
     be8:	6812      	ldr	r2, [r2, #0]
     bea:	429a      	cmp	r2, r3
     bec:	f300 820c 	bgt.w	1008 <trace_vprintf+0x4ac>
/home/palatrauss/optee_with_ftpm_ta/optee_os/lib/libutils/ext/trace.c:139
     bf0:	f507 7394 	add.w	r3, r7, #296	; 0x128
     bf4:	f2a3 131d 	subw	r3, r3, #285	; 0x11d
     bf8:	781a      	ldrb	r2, [r3, #0]
     bfa:	f507 7394 	add.w	r3, r7, #296	; 0x128
     bfe:	f5a3 738e 	sub.w	r3, r3, #284	; 0x11c
     c02:	4611      	mov	r1, r2
     c04:	6818      	ldr	r0, [r3, #0]
     c06:	f7ff fef9 	bl	9fc <trace_level_to_string>
     c0a:	4603      	mov	r3, r0
/home/palatrauss/optee_with_ftpm_ta/optee_os/lib/libutils/ext/trace.c:138
     c0c:	461a      	mov	r2, r3
     c0e:	f507 7394 	add.w	r3, r7, #296	; 0x128
     c12:	f5a3 7584 	sub.w	r5, r3, #264	; 0x108
     c16:	f107 0024 	add.w	r0, r7, #36	; 0x24
     c1a:	4613      	mov	r3, r2
     c1c:	f8df 2440 	ldr.w	r2, [pc, #1088]	; 1060 <trace_vprintf+0x504>
     c20:	447a      	add	r2, pc
     c22:	f44f 7180 	mov.w	r1, #256	; 0x100
     c26:	f000 fa35 	bl	1094 <snprintk>
     c2a:	6028      	str	r0, [r5, #0]
/home/palatrauss/optee_with_ftpm_ta/optee_os/lib/libutils/ext/trace.c:140
     c2c:	f507 7394 	add.w	r3, r7, #296	; 0x128
     c30:	f5a3 7384 	sub.w	r3, r3, #264	; 0x108
     c34:	681b      	ldr	r3, [r3, #0]
     c36:	2b00      	cmp	r3, #0
     c38:	f2c0 81e8 	blt.w	100c <trace_vprintf+0x4b0>
/home/palatrauss/optee_with_ftpm_ta/optee_os/lib/libutils/ext/trace.c:142
     c3c:	f507 7394 	add.w	r3, r7, #296	; 0x128
     c40:	f5a3 7384 	sub.w	r3, r3, #264	; 0x108
     c44:	681a      	ldr	r2, [r3, #0]
     c46:	f507 7394 	add.w	r3, r7, #296	; 0x128
     c4a:	f5a3 7386 	sub.w	r3, r3, #268	; 0x10c
     c4e:	f507 7194 	add.w	r1, r7, #296	; 0x128
     c52:	f5a1 7186 	sub.w	r1, r1, #268	; 0x10c
     c56:	6809      	ldr	r1, [r1, #0]
     c58:	440a      	add	r2, r1
     c5a:	601a      	str	r2, [r3, #0]
/home/palatrauss/optee_with_ftpm_ta/optee_os/lib/libutils/ext/trace.c:145
     c5c:	f107 0224 	add.w	r2, r7, #36	; 0x24
     c60:	f507 7394 	add.w	r3, r7, #296	; 0x128
     c64:	f5a3 7386 	sub.w	r3, r3, #268	; 0x10c
     c68:	681b      	ldr	r3, [r3, #0]
     c6a:	eb02 0003 	add.w	r0, r2, r3
     c6e:	f507 7394 	add.w	r3, r7, #296	; 0x128
     c72:	f5a3 7386 	sub.w	r3, r3, #268	; 0x10c
     c76:	681b      	ldr	r3, [r3, #0]
     c78:	f5c3 7180 	rsb	r1, r3, #256	; 0x100
     c7c:	f507 7394 	add.w	r3, r7, #296	; 0x128
     c80:	f5a3 7584 	sub.w	r5, r3, #264	; 0x108
     c84:	4bf7      	ldr	r3, [pc, #988]	; (1064 <trace_vprintf+0x508>)
     c86:	58e3      	ldr	r3, [r4, r3]
     c88:	4af7      	ldr	r2, [pc, #988]	; (1068 <trace_vprintf+0x50c>)
     c8a:	447a      	add	r2, pc
     c8c:	f000 fa02 	bl	1094 <snprintk>
     c90:	6028      	str	r0, [r5, #0]
/home/palatrauss/optee_with_ftpm_ta/optee_os/lib/libutils/ext/trace.c:147
     c92:	f507 7394 	add.w	r3, r7, #296	; 0x128
     c96:	f5a3 7384 	sub.w	r3, r3, #264	; 0x108
     c9a:	681b      	ldr	r3, [r3, #0]
     c9c:	2b00      	cmp	r3, #0
     c9e:	f2c0 81b7 	blt.w	1010 <trace_vprintf+0x4b4>
/home/palatrauss/optee_with_ftpm_ta/optee_os/lib/libutils/ext/trace.c:149
     ca2:	f507 7394 	add.w	r3, r7, #296	; 0x128
     ca6:	f5a3 7384 	sub.w	r3, r3, #264	; 0x108
     caa:	681a      	ldr	r2, [r3, #0]
     cac:	f507 7394 	add.w	r3, r7, #296	; 0x128
     cb0:	f5a3 7386 	sub.w	r3, r3, #268	; 0x10c
     cb4:	f507 7194 	add.w	r1, r7, #296	; 0x128
     cb8:	f5a1 7186 	sub.w	r1, r1, #268	; 0x10c
     cbc:	6809      	ldr	r1, [r1, #0]
     cbe:	440a      	add	r2, r1
     cc0:	601a      	str	r2, [r3, #0]
/home/palatrauss/optee_with_ftpm_ta/optee_os/lib/libutils/ext/trace.c:151
     cc2:	f507 7394 	add.w	r3, r7, #296	; 0x128
     cc6:	f2a3 131d 	subw	r3, r3, #285	; 0x11d
     cca:	781b      	ldrb	r3, [r3, #0]
     ccc:	2b00      	cmp	r3, #0
     cce:	f000 80e2 	beq.w	e96 <trace_vprintf+0x33a>
/home/palatrauss/optee_with_ftpm_ta/optee_os/lib/libutils/ext/trace.c:151 (discriminator 1)
     cd2:	f507 7394 	add.w	r3, r7, #296	; 0x128
     cd6:	f5a3 738e 	sub.w	r3, r3, #284	; 0x11c
     cda:	f04f 021a 	mov.w	r2, #26
     cde:	681b      	ldr	r3, [r3, #0]
     ce0:	fa22 f303 	lsr.w	r3, r2, r3
     ce4:	f003 0301 	and.w	r3, r3, #1
     ce8:	2b00      	cmp	r3, #0
     cea:	f000 80d4 	beq.w	e96 <trace_vprintf+0x33a>
/home/palatrauss/optee_with_ftpm_ta/optee_os/lib/libutils/ext/trace.c:153
     cee:	f107 0224 	add.w	r2, r7, #36	; 0x24
     cf2:	f507 7394 	add.w	r3, r7, #296	; 0x128
     cf6:	f5a3 7386 	sub.w	r3, r3, #268	; 0x10c
     cfa:	681b      	ldr	r3, [r3, #0]
     cfc:	441a      	add	r2, r3
     cfe:	f507 7394 	add.w	r3, r7, #296	; 0x128
     d02:	f5a3 7386 	sub.w	r3, r3, #268	; 0x10c
     d06:	681b      	ldr	r3, [r3, #0]
     d08:	f5c3 7380 	rsb	r3, r3, #256	; 0x100
     d0c:	f507 7194 	add.w	r1, r7, #296	; 0x128
     d10:	f5a1 7484 	sub.w	r4, r1, #264	; 0x108
     d14:	4619      	mov	r1, r3
     d16:	4610      	mov	r0, r2
     d18:	f7ff fed9 	bl	ace <print_guest_id>
     d1c:	6020      	str	r0, [r4, #0]
/home/palatrauss/optee_with_ftpm_ta/optee_os/lib/libutils/ext/trace.c:154
     d1e:	f507 7394 	add.w	r3, r7, #296	; 0x128
     d22:	f5a3 7384 	sub.w	r3, r3, #264	; 0x108
     d26:	681b      	ldr	r3, [r3, #0]
     d28:	2b00      	cmp	r3, #0
     d2a:	f2c0 8173 	blt.w	1014 <trace_vprintf+0x4b8>
/home/palatrauss/optee_with_ftpm_ta/optee_os/lib/libutils/ext/trace.c:156
     d2e:	f507 7394 	add.w	r3, r7, #296	; 0x128
     d32:	f5a3 7384 	sub.w	r3, r3, #264	; 0x108
     d36:	681a      	ldr	r2, [r3, #0]
     d38:	f507 7394 	add.w	r3, r7, #296	; 0x128
     d3c:	f5a3 7386 	sub.w	r3, r3, #268	; 0x10c
     d40:	f507 7194 	add.w	r1, r7, #296	; 0x128
     d44:	f5a1 7186 	sub.w	r1, r1, #268	; 0x10c
     d48:	6809      	ldr	r1, [r1, #0]
     d4a:	440a      	add	r2, r1
     d4c:	601a      	str	r2, [r3, #0]
/home/palatrauss/optee_with_ftpm_ta/optee_os/lib/libutils/ext/trace.c:159
     d4e:	f107 0224 	add.w	r2, r7, #36	; 0x24
     d52:	f507 7394 	add.w	r3, r7, #296	; 0x128
     d56:	f5a3 7386 	sub.w	r3, r3, #268	; 0x10c
     d5a:	681b      	ldr	r3, [r3, #0]
     d5c:	441a      	add	r2, r3
     d5e:	f507 7394 	add.w	r3, r7, #296	; 0x128
     d62:	f5a3 7386 	sub.w	r3, r3, #268	; 0x10c
     d66:	681b      	ldr	r3, [r3, #0]
     d68:	f5c3 7380 	rsb	r3, r3, #256	; 0x100
     d6c:	f507 7194 	add.w	r1, r7, #296	; 0x128
     d70:	f5a1 7484 	sub.w	r4, r1, #264	; 0x108
     d74:	4619      	mov	r1, r3
     d76:	4610      	mov	r0, r2
     d78:	f7ff fe9a 	bl	ab0 <print_core_id>
     d7c:	6020      	str	r0, [r4, #0]
/home/palatrauss/optee_with_ftpm_ta/optee_os/lib/libutils/ext/trace.c:160
     d7e:	f507 7394 	add.w	r3, r7, #296	; 0x128
     d82:	f5a3 7384 	sub.w	r3, r3, #264	; 0x108
     d86:	681b      	ldr	r3, [r3, #0]
     d88:	2b00      	cmp	r3, #0
     d8a:	f2c0 8145 	blt.w	1018 <trace_vprintf+0x4bc>
/home/palatrauss/optee_with_ftpm_ta/optee_os/lib/libutils/ext/trace.c:162
     d8e:	f507 7394 	add.w	r3, r7, #296	; 0x128
     d92:	f5a3 7384 	sub.w	r3, r3, #264	; 0x108
     d96:	681a      	ldr	r2, [r3, #0]
     d98:	f507 7394 	add.w	r3, r7, #296	; 0x128
     d9c:	f5a3 7386 	sub.w	r3, r3, #268	; 0x10c
     da0:	f507 7194 	add.w	r1, r7, #296	; 0x128
     da4:	f5a1 7186 	sub.w	r1, r1, #268	; 0x10c
     da8:	6809      	ldr	r1, [r1, #0]
     daa:	440a      	add	r2, r1
     dac:	601a      	str	r2, [r3, #0]
/home/palatrauss/optee_with_ftpm_ta/optee_os/lib/libutils/ext/trace.c:165
     dae:	f107 0224 	add.w	r2, r7, #36	; 0x24
     db2:	f507 7394 	add.w	r3, r7, #296	; 0x128
     db6:	f5a3 7386 	sub.w	r3, r3, #268	; 0x10c
     dba:	681b      	ldr	r3, [r3, #0]
     dbc:	441a      	add	r2, r3
     dbe:	f507 7394 	add.w	r3, r7, #296	; 0x128
     dc2:	f5a3 7386 	sub.w	r3, r3, #268	; 0x10c
     dc6:	681b      	ldr	r3, [r3, #0]
     dc8:	f5c3 7380 	rsb	r3, r3, #256	; 0x100
     dcc:	f507 7194 	add.w	r1, r7, #296	; 0x128
     dd0:	f5a1 7484 	sub.w	r4, r1, #264	; 0x108
     dd4:	4619      	mov	r1, r3
     dd6:	4610      	mov	r0, r2
     dd8:	f7ff fe3a 	bl	a50 <print_thread_id>
     ddc:	6020      	str	r0, [r4, #0]
/home/palatrauss/optee_with_ftpm_ta/optee_os/lib/libutils/ext/trace.c:166
     dde:	f507 7394 	add.w	r3, r7, #296	; 0x128
     de2:	f5a3 7384 	sub.w	r3, r3, #264	; 0x108
     de6:	681b      	ldr	r3, [r3, #0]
     de8:	2b00      	cmp	r3, #0
     dea:	f2c0 8117 	blt.w	101c <trace_vprintf+0x4c0>
/home/palatrauss/optee_with_ftpm_ta/optee_os/lib/libutils/ext/trace.c:168
     dee:	f507 7394 	add.w	r3, r7, #296	; 0x128
     df2:	f5a3 7384 	sub.w	r3, r3, #264	; 0x108
     df6:	681a      	ldr	r2, [r3, #0]
     df8:	f507 7394 	add.w	r3, r7, #296	; 0x128
     dfc:	f5a3 7386 	sub.w	r3, r3, #268	; 0x10c
     e00:	f507 7194 	add.w	r1, r7, #296	; 0x128
     e04:	f5a1 7186 	sub.w	r1, r1, #268	; 0x10c
     e08:	6809      	ldr	r1, [r1, #0]
     e0a:	440a      	add	r2, r1
     e0c:	601a      	str	r2, [r3, #0]
/home/palatrauss/optee_with_ftpm_ta/optee_os/lib/libutils/ext/trace.c:170
     e0e:	f507 7394 	add.w	r3, r7, #296	; 0x128
     e12:	f5a3 738a 	sub.w	r3, r3, #276	; 0x114
     e16:	681b      	ldr	r3, [r3, #0]
     e18:	2b00      	cmp	r3, #0
     e1a:	d064      	beq.n	ee6 <trace_vprintf+0x38a>
/home/palatrauss/optee_with_ftpm_ta/optee_os/lib/libutils/ext/trace.c:171
     e1c:	f107 0224 	add.w	r2, r7, #36	; 0x24
     e20:	f507 7394 	add.w	r3, r7, #296	; 0x128
     e24:	f5a3 7386 	sub.w	r3, r3, #268	; 0x10c
     e28:	681b      	ldr	r3, [r3, #0]
     e2a:	eb02 0003 	add.w	r0, r2, r3
     e2e:	f507 7394 	add.w	r3, r7, #296	; 0x128
     e32:	f5a3 7386 	sub.w	r3, r3, #268	; 0x10c
     e36:	681b      	ldr	r3, [r3, #0]
     e38:	f5c3 7180 	rsb	r1, r3, #256	; 0x100
     e3c:	f507 7394 	add.w	r3, r7, #296	; 0x128
     e40:	f5a3 7484 	sub.w	r4, r3, #264	; 0x108
     e44:	f507 7394 	add.w	r3, r7, #296	; 0x128
     e48:	f5a3 738a 	sub.w	r3, r3, #276	; 0x114
     e4c:	f507 7294 	add.w	r2, r7, #296	; 0x128
     e50:	f5a2 728c 	sub.w	r2, r2, #280	; 0x118
     e54:	6812      	ldr	r2, [r2, #0]
     e56:	9200      	str	r2, [sp, #0]
     e58:	681b      	ldr	r3, [r3, #0]
     e5a:	4a84      	ldr	r2, [pc, #528]	; (106c <trace_vprintf+0x510>)
     e5c:	447a      	add	r2, pc
     e5e:	f000 f919 	bl	1094 <snprintk>
     e62:	6020      	str	r0, [r4, #0]
/home/palatrauss/optee_with_ftpm_ta/optee_os/lib/libutils/ext/trace.c:173
     e64:	f507 7394 	add.w	r3, r7, #296	; 0x128
     e68:	f5a3 7384 	sub.w	r3, r3, #264	; 0x108
     e6c:	681b      	ldr	r3, [r3, #0]
     e6e:	2b00      	cmp	r3, #0
     e70:	f2c0 80d6 	blt.w	1020 <trace_vprintf+0x4c4>
/home/palatrauss/optee_with_ftpm_ta/optee_os/lib/libutils/ext/trace.c:175
     e74:	f507 7394 	add.w	r3, r7, #296	; 0x128
     e78:	f5a3 7384 	sub.w	r3, r3, #264	; 0x108
     e7c:	681a      	ldr	r2, [r3, #0]
     e7e:	f507 7394 	add.w	r3, r7, #296	; 0x128
     e82:	f5a3 7386 	sub.w	r3, r3, #268	; 0x10c
     e86:	f507 7194 	add.w	r1, r7, #296	; 0x128
     e8a:	f5a1 7186 	sub.w	r1, r1, #268	; 0x10c
     e8e:	6809      	ldr	r1, [r1, #0]
     e90:	440a      	add	r2, r1
     e92:	601a      	str	r2, [r3, #0]
/home/palatrauss/optee_with_ftpm_ta/optee_os/lib/libutils/ext/trace.c:170
     e94:	e027      	b.n	ee6 <trace_vprintf+0x38a>
/home/palatrauss/optee_with_ftpm_ta/optee_os/lib/libutils/ext/trace.c:179
     e96:	f507 7394 	add.w	r3, r7, #296	; 0x128
     e9a:	f5a3 7386 	sub.w	r3, r3, #268	; 0x10c
     e9e:	681b      	ldr	r3, [r3, #0]
     ea0:	2bfe      	cmp	r3, #254	; 0xfe
     ea2:	f200 80bf 	bhi.w	1024 <trace_vprintf+0x4c8>
/home/palatrauss/optee_with_ftpm_ta/optee_os/lib/libutils/ext/trace.c:181
     ea6:	f507 7394 	add.w	r3, r7, #296	; 0x128
     eaa:	f5a3 7386 	sub.w	r3, r3, #268	; 0x10c
     eae:	681b      	ldr	r3, [r3, #0]
     eb0:	f507 7294 	add.w	r2, r7, #296	; 0x128
     eb4:	f5a2 7286 	sub.w	r2, r2, #268	; 0x10c
     eb8:	f103 0101 	add.w	r1, r3, #1
     ebc:	6011      	str	r1, [r2, #0]
     ebe:	f507 7294 	add.w	r2, r7, #296	; 0x128
     ec2:	f5a2 7282 	sub.w	r2, r2, #260	; 0x104
     ec6:	f04f 0120 	mov.w	r1, #32
     eca:	54d1      	strb	r1, [r2, r3]
/home/palatrauss/optee_with_ftpm_ta/optee_os/lib/libutils/ext/trace.c:182
     ecc:	f507 7394 	add.w	r3, r7, #296	; 0x128
     ed0:	f5a3 7282 	sub.w	r2, r3, #260	; 0x104
     ed4:	f507 7394 	add.w	r3, r7, #296	; 0x128
     ed8:	f5a3 7386 	sub.w	r3, r3, #268	; 0x10c
     edc:	681b      	ldr	r3, [r3, #0]
     ede:	4413      	add	r3, r2
     ee0:	f04f 0200 	mov.w	r2, #0
     ee4:	701a      	strb	r2, [r3, #0]
/home/palatrauss/optee_with_ftpm_ta/optee_os/lib/libutils/ext/trace.c:185
     ee6:	f107 0224 	add.w	r2, r7, #36	; 0x24
     eea:	f507 7394 	add.w	r3, r7, #296	; 0x128
     eee:	f5a3 7386 	sub.w	r3, r3, #268	; 0x10c
     ef2:	681b      	ldr	r3, [r3, #0]
     ef4:	eb02 0003 	add.w	r0, r2, r3
     ef8:	f507 7394 	add.w	r3, r7, #296	; 0x128
     efc:	f5a3 7386 	sub.w	r3, r3, #268	; 0x10c
     f00:	681b      	ldr	r3, [r3, #0]
     f02:	f5c3 7180 	rsb	r1, r3, #256	; 0x100
     f06:	f507 7394 	add.w	r3, r7, #296	; 0x128
     f0a:	f5a3 7484 	sub.w	r4, r3, #264	; 0x108
     f0e:	f507 7394 	add.w	r3, r7, #296	; 0x128
     f12:	f5a3 7292 	sub.w	r2, r3, #292	; 0x124
     f16:	f8d7 313c 	ldr.w	r3, [r7, #316]	; 0x13c
     f1a:	6812      	ldr	r2, [r2, #0]
     f1c:	f000 f8f2 	bl	1104 <vsnprintk>
     f20:	6020      	str	r0, [r4, #0]
/home/palatrauss/optee_with_ftpm_ta/optee_os/lib/libutils/ext/trace.c:186
     f22:	f507 7394 	add.w	r3, r7, #296	; 0x128
     f26:	f5a3 7384 	sub.w	r3, r3, #264	; 0x108
     f2a:	681b      	ldr	r3, [r3, #0]
     f2c:	2b00      	cmp	r3, #0
     f2e:	dd0f      	ble.n	f50 <trace_vprintf+0x3f4>
/home/palatrauss/optee_with_ftpm_ta/optee_os/lib/libutils/ext/trace.c:187
     f30:	f507 7394 	add.w	r3, r7, #296	; 0x128
     f34:	f5a3 7384 	sub.w	r3, r3, #264	; 0x108
     f38:	681a      	ldr	r2, [r3, #0]
     f3a:	f507 7394 	add.w	r3, r7, #296	; 0x128
     f3e:	f5a3 7386 	sub.w	r3, r3, #268	; 0x10c
     f42:	f507 7194 	add.w	r1, r7, #296	; 0x128
     f46:	f5a1 7186 	sub.w	r1, r1, #268	; 0x10c
     f4a:	6809      	ldr	r1, [r1, #0]
     f4c:	440a      	add	r2, r1
     f4e:	601a      	str	r2, [r3, #0]
/home/palatrauss/optee_with_ftpm_ta/optee_os/lib/libutils/ext/trace.c:189
     f50:	f507 7394 	add.w	r3, r7, #296	; 0x128
     f54:	f5a3 7386 	sub.w	r3, r3, #268	; 0x10c
     f58:	681b      	ldr	r3, [r3, #0]
     f5a:	2bfe      	cmp	r3, #254	; 0xfe
     f5c:	d906      	bls.n	f6c <trace_vprintf+0x410>
/home/palatrauss/optee_with_ftpm_ta/optee_os/lib/libutils/ext/trace.c:190
     f5e:	f507 7394 	add.w	r3, r7, #296	; 0x128
     f62:	f5a3 7386 	sub.w	r3, r3, #268	; 0x10c
     f66:	f04f 02fe 	mov.w	r2, #254	; 0xfe
     f6a:	601a      	str	r2, [r3, #0]
/home/palatrauss/optee_with_ftpm_ta/optee_os/lib/libutils/ext/trace.c:192
     f6c:	f507 7394 	add.w	r3, r7, #296	; 0x128
     f70:	f5a3 7282 	sub.w	r2, r3, #260	; 0x104
     f74:	f507 7394 	add.w	r3, r7, #296	; 0x128
     f78:	f5a3 7386 	sub.w	r3, r3, #268	; 0x10c
     f7c:	681b      	ldr	r3, [r3, #0]
     f7e:	4413      	add	r3, r2
     f80:	f04f 020a 	mov.w	r2, #10
     f84:	701a      	strb	r2, [r3, #0]
/home/palatrauss/optee_with_ftpm_ta/optee_os/lib/libutils/ext/trace.c:193
     f86:	e00b      	b.n	fa0 <trace_vprintf+0x444>
/home/palatrauss/optee_with_ftpm_ta/optee_os/lib/libutils/ext/trace.c:194
     f88:	f507 7394 	add.w	r3, r7, #296	; 0x128
     f8c:	f5a3 7386 	sub.w	r3, r3, #268	; 0x10c
     f90:	f507 7294 	add.w	r2, r7, #296	; 0x128
     f94:	f5a2 7286 	sub.w	r2, r2, #268	; 0x10c
     f98:	6812      	ldr	r2, [r2, #0]
     f9a:	f102 32ff 	add.w	r2, r2, #4294967295	; 0xffffffff
     f9e:	601a      	str	r2, [r3, #0]
/home/palatrauss/optee_with_ftpm_ta/optee_os/lib/libutils/ext/trace.c:193
     fa0:	f507 7394 	add.w	r3, r7, #296	; 0x128
     fa4:	f5a3 7386 	sub.w	r3, r3, #268	; 0x10c
     fa8:	681b      	ldr	r3, [r3, #0]
     faa:	2b00      	cmp	r3, #0
     fac:	d00c      	beq.n	fc8 <trace_vprintf+0x46c>
/home/palatrauss/optee_with_ftpm_ta/optee_os/lib/libutils/ext/trace.c:193 (discriminator 1)
     fae:	f507 7394 	add.w	r3, r7, #296	; 0x128
     fb2:	f5a3 7282 	sub.w	r2, r3, #260	; 0x104
     fb6:	f507 7394 	add.w	r3, r7, #296	; 0x128
     fba:	f5a3 7386 	sub.w	r3, r3, #268	; 0x10c
     fbe:	681b      	ldr	r3, [r3, #0]
     fc0:	4413      	add	r3, r2
     fc2:	781b      	ldrb	r3, [r3, #0]
     fc4:	2b0a      	cmp	r3, #10
     fc6:	d0df      	beq.n	f88 <trace_vprintf+0x42c>
/home/palatrauss/optee_with_ftpm_ta/optee_os/lib/libutils/ext/trace.c:195
     fc8:	f507 7394 	add.w	r3, r7, #296	; 0x128
     fcc:	f5a3 7386 	sub.w	r3, r3, #268	; 0x10c
     fd0:	f507 7294 	add.w	r2, r7, #296	; 0x128
     fd4:	f5a2 7286 	sub.w	r2, r2, #268	; 0x10c
     fd8:	6812      	ldr	r2, [r2, #0]
     fda:	f102 0201 	add.w	r2, r2, #1
     fde:	601a      	str	r2, [r3, #0]
/home/palatrauss/optee_with_ftpm_ta/optee_os/lib/libutils/ext/trace.c:196
     fe0:	f507 7394 	add.w	r3, r7, #296	; 0x128
     fe4:	f5a3 7386 	sub.w	r3, r3, #268	; 0x10c
     fe8:	681b      	ldr	r3, [r3, #0]
     fea:	f103 0301 	add.w	r3, r3, #1
     fee:	f507 7294 	add.w	r2, r7, #296	; 0x128
     ff2:	f5a2 7282 	sub.w	r2, r2, #260	; 0x104
     ff6:	f04f 0100 	mov.w	r1, #0
     ffa:	54d1      	strb	r1, [r2, r3]
/home/palatrauss/optee_with_ftpm_ta/optee_os/lib/libutils/ext/trace.c:198
     ffc:	f107 0324 	add.w	r3, r7, #36	; 0x24
    1000:	4618      	mov	r0, r3
    1002:	f001 fa57 	bl	24b4 <trace_ext_puts>
    1006:	e00e      	b.n	1026 <trace_vprintf+0x4ca>
/home/palatrauss/optee_with_ftpm_ta/optee_os/lib/libutils/ext/trace.c:135
    1008:	bf00      	nop
    100a:	e00c      	b.n	1026 <trace_vprintf+0x4ca>
/home/palatrauss/optee_with_ftpm_ta/optee_os/lib/libutils/ext/trace.c:141
    100c:	bf00      	nop
    100e:	e00a      	b.n	1026 <trace_vprintf+0x4ca>
/home/palatrauss/optee_with_ftpm_ta/optee_os/lib/libutils/ext/trace.c:148
    1010:	bf00      	nop
    1012:	e008      	b.n	1026 <trace_vprintf+0x4ca>
/home/palatrauss/optee_with_ftpm_ta/optee_os/lib/libutils/ext/trace.c:155
    1014:	bf00      	nop
    1016:	e006      	b.n	1026 <trace_vprintf+0x4ca>
/home/palatrauss/optee_with_ftpm_ta/optee_os/lib/libutils/ext/trace.c:161
    1018:	bf00      	nop
    101a:	e004      	b.n	1026 <trace_vprintf+0x4ca>
/home/palatrauss/optee_with_ftpm_ta/optee_os/lib/libutils/ext/trace.c:167
    101c:	bf00      	nop
    101e:	e002      	b.n	1026 <trace_vprintf+0x4ca>
/home/palatrauss/optee_with_ftpm_ta/optee_os/lib/libutils/ext/trace.c:174
    1020:	bf00      	nop
    1022:	e000      	b.n	1026 <trace_vprintf+0x4ca>
/home/palatrauss/optee_with_ftpm_ta/optee_os/lib/libutils/ext/trace.c:180
    1024:	bf00      	nop
/home/palatrauss/optee_with_ftpm_ta/optee_os/lib/libutils/ext/trace.c:129
    1026:	4a12      	ldr	r2, [pc, #72]	; (1070 <trace_vprintf+0x514>)
    1028:	447a      	add	r2, pc
/home/palatrauss/optee_with_ftpm_ta/optee_os/lib/libutils/ext/trace.c:199
    102a:	4b0b      	ldr	r3, [pc, #44]	; (1058 <trace_vprintf+0x4fc>)
    102c:	58d3      	ldr	r3, [r2, r3]
    102e:	681a      	ldr	r2, [r3, #0]
    1030:	f8d7 3124 	ldr.w	r3, [r7, #292]	; 0x124
    1034:	405a      	eors	r2, r3
    1036:	f04f 0300 	mov.w	r3, #0
    103a:	d001      	beq.n	1040 <trace_vprintf+0x4e4>
    103c:	f7ff fc8e 	bl	95c <__stack_chk_fail>
    1040:	f507 7794 	add.w	r7, r7, #296	; 0x128
    1044:	46bd      	mov	sp, r7
    1046:	e9dd 4500 	ldrd	r4, r5, [sp]
    104a:	b002      	add	sp, #8
    104c:	bd80      	pop	{r7, pc}
    104e:	bf00      	nop
    1050:	0001e4e0 	.word	0x0001e4e0
    1054:	0001e4da 	.word	0x0001e4da
    1058:	0000000c 	.word	0x0000000c
    105c:	0000001c 	.word	0x0000001c
    1060:	00019f28 	.word	0x00019f28
    1064:	00000024 	.word	0x00000024
    1068:	00019ec2 	.word	0x00019ec2
    106c:	00019cf4 	.word	0x00019cf4
    1070:	0001e05c 	.word	0x0001e05c

00001074 <dhex_dump>:
dhex_dump():
/home/palatrauss/optee_with_ftpm_ta/optee_os/lib/libutils/ext/trace.c:308
    1074:	f84d 7d04 	str.w	r7, [sp, #-4]!
    1078:	b085      	sub	sp, #20
    107a:	af00      	add	r7, sp, #0
    107c:	60f8      	str	r0, [r7, #12]
    107e:	60b9      	str	r1, [r7, #8]
    1080:	607a      	str	r2, [r7, #4]
    1082:	603b      	str	r3, [r7, #0]
/home/palatrauss/optee_with_ftpm_ta/optee_os/lib/libutils/ext/trace.c:309
    1084:	bf00      	nop
    1086:	f107 0714 	add.w	r7, r7, #20
    108a:	46bd      	mov	sp, r7
    108c:	f85d 7b04 	ldr.w	r7, [sp], #4
    1090:	4770      	bx	lr
    1092:	bf00      	nop

00001094 <snprintk>:
snprintk():
/home/palatrauss/optee_with_ftpm_ta/optee_os/lib/libutils/ext/snprintk.c:113
    1094:	b40c      	push	{r2, r3}
    1096:	e96d 7e02 	strd	r7, lr, [sp, #-8]!
    109a:	b088      	sub	sp, #32
    109c:	af00      	add	r7, sp, #0
    109e:	60f8      	str	r0, [r7, #12]
    10a0:	60b9      	str	r1, [r7, #8]
    10a2:	6abb      	ldr	r3, [r7, #40]	; 0x28
    10a4:	607b      	str	r3, [r7, #4]
    10a6:	4a14      	ldr	r2, [pc, #80]	; (10f8 <snprintk+0x64>)
    10a8:	447a      	add	r2, pc
    10aa:	4b14      	ldr	r3, [pc, #80]	; (10fc <snprintk+0x68>)
    10ac:	58d3      	ldr	r3, [r2, r3]
    10ae:	681b      	ldr	r3, [r3, #0]
    10b0:	61fb      	str	r3, [r7, #28]
    10b2:	f04f 0300 	mov.w	r3, #0
/home/palatrauss/optee_with_ftpm_ta/optee_os/lib/libutils/ext/snprintk.c:117
    10b6:	f107 032c 	add.w	r3, r7, #44	; 0x2c
    10ba:	617b      	str	r3, [r7, #20]
/home/palatrauss/optee_with_ftpm_ta/optee_os/lib/libutils/ext/snprintk.c:118
    10bc:	697b      	ldr	r3, [r7, #20]
    10be:	687a      	ldr	r2, [r7, #4]
    10c0:	68b9      	ldr	r1, [r7, #8]
    10c2:	68f8      	ldr	r0, [r7, #12]
    10c4:	f000 f81e 	bl	1104 <vsnprintk>
    10c8:	61b8      	str	r0, [r7, #24]
/home/palatrauss/optee_with_ftpm_ta/optee_os/lib/libutils/ext/snprintk.c:121
    10ca:	69bb      	ldr	r3, [r7, #24]
/home/palatrauss/optee_with_ftpm_ta/optee_os/lib/libutils/ext/snprintk.c:113
    10cc:	490c      	ldr	r1, [pc, #48]	; (1100 <snprintk+0x6c>)
    10ce:	4479      	add	r1, pc
/home/palatrauss/optee_with_ftpm_ta/optee_os/lib/libutils/ext/snprintk.c:122
    10d0:	4a0a      	ldr	r2, [pc, #40]	; (10fc <snprintk+0x68>)
    10d2:	588a      	ldr	r2, [r1, r2]
    10d4:	6811      	ldr	r1, [r2, #0]
    10d6:	69fa      	ldr	r2, [r7, #28]
    10d8:	4051      	eors	r1, r2
    10da:	f04f 0200 	mov.w	r2, #0
    10de:	d001      	beq.n	10e4 <snprintk+0x50>
    10e0:	f7ff fc3c 	bl	95c <__stack_chk_fail>
    10e4:	4618      	mov	r0, r3
    10e6:	f107 0720 	add.w	r7, r7, #32
    10ea:	46bd      	mov	sp, r7
    10ec:	e9dd 7e00 	ldrd	r7, lr, [sp]
    10f0:	b002      	add	sp, #8
    10f2:	b002      	add	sp, #8
    10f4:	4770      	bx	lr
    10f6:	bf00      	nop
    10f8:	0001dfdc 	.word	0x0001dfdc
    10fc:	0000000c 	.word	0x0000000c
    1100:	0001dfb6 	.word	0x0001dfb6

00001104 <vsnprintk>:
vsnprintk():
/home/palatrauss/optee_with_ftpm_ta/optee_os/lib/libutils/ext/snprintk.c:130
    1104:	e96d 7e02 	strd	r7, lr, [sp, #-8]!
    1108:	b086      	sub	sp, #24
    110a:	af02      	add	r7, sp, #8
    110c:	60f8      	str	r0, [r7, #12]
    110e:	60b9      	str	r1, [r7, #8]
    1110:	607a      	str	r2, [r7, #4]
    1112:	603b      	str	r3, [r7, #0]
/home/palatrauss/optee_with_ftpm_ta/optee_os/lib/libutils/ext/snprintk.c:131
    1114:	f04f 0301 	mov.w	r3, #1
    1118:	9300      	str	r3, [sp, #0]
    111a:	683b      	ldr	r3, [r7, #0]
    111c:	687a      	ldr	r2, [r7, #4]
    111e:	68b9      	ldr	r1, [r7, #8]
    1120:	68f8      	ldr	r0, [r7, #12]
    1122:	f000 f806 	bl	1132 <__vsnprintf>
    1126:	4603      	mov	r3, r0
/home/palatrauss/optee_with_ftpm_ta/optee_os/lib/libutils/ext/snprintk.c:132
    1128:	4618      	mov	r0, r3
    112a:	f107 0710 	add.w	r7, r7, #16
    112e:	46bd      	mov	sp, r7
    1130:	bd80      	pop	{r7, pc}

00001132 <__vsnprintf>:
__vsnprintf():
/home/palatrauss/optee_with_ftpm_ta/optee_os/lib/libutils/ext/snprintk.c:138
    1132:	e96d 7e02 	strd	r7, lr, [sp, #-8]!
    1136:	b08a      	sub	sp, #40	; 0x28
    1138:	af02      	add	r7, sp, #8
    113a:	60f8      	str	r0, [r7, #12]
    113c:	60b9      	str	r1, [r7, #8]
    113e:	607a      	str	r2, [r7, #4]
    1140:	603b      	str	r3, [r7, #0]
    1142:	4a22      	ldr	r2, [pc, #136]	; (11cc <__vsnprintf+0x9a>)
    1144:	447a      	add	r2, pc
    1146:	4b22      	ldr	r3, [pc, #136]	; (11d0 <__vsnprintf+0x9e>)
    1148:	58d3      	ldr	r3, [r2, r3]
    114a:	681b      	ldr	r3, [r3, #0]
    114c:	61fb      	str	r3, [r7, #28]
    114e:	f04f 0300 	mov.w	r3, #0
/home/palatrauss/optee_with_ftpm_ta/optee_os/lib/libutils/ext/snprintk.c:142
    1152:	68fa      	ldr	r2, [r7, #12]
    1154:	68bb      	ldr	r3, [r7, #8]
    1156:	4413      	add	r3, r2
    1158:	617b      	str	r3, [r7, #20]
/home/palatrauss/optee_with_ftpm_ta/optee_os/lib/libutils/ext/snprintk.c:143
    115a:	f107 0214 	add.w	r2, r7, #20
    115e:	f897 3028 	ldrb.w	r3, [r7, #40]	; 0x28
    1162:	9301      	str	r3, [sp, #4]
    1164:	683b      	ldr	r3, [r7, #0]
    1166:	9300      	str	r3, [sp, #0]
    1168:	68fb      	ldr	r3, [r7, #12]
    116a:	f04f 0108 	mov.w	r1, #8
    116e:	6878      	ldr	r0, [r7, #4]
    1170:	f000 f89c 	bl	12ac <kprintf>
    1174:	61b8      	str	r0, [r7, #24]
/home/palatrauss/optee_with_ftpm_ta/optee_os/lib/libutils/ext/snprintk.c:144
    1176:	68fb      	ldr	r3, [r7, #12]
    1178:	2b00      	cmp	r3, #0
    117a:	d015      	beq.n	11a8 <__vsnprintf+0x76>
/home/palatrauss/optee_with_ftpm_ta/optee_os/lib/libutils/ext/snprintk.c:144 (discriminator 1)
    117c:	68bb      	ldr	r3, [r7, #8]
    117e:	2b00      	cmp	r3, #0
    1180:	d012      	beq.n	11a8 <__vsnprintf+0x76>
/home/palatrauss/optee_with_ftpm_ta/optee_os/lib/libutils/ext/snprintk.c:146
    1182:	69bb      	ldr	r3, [r7, #24]
    1184:	68ba      	ldr	r2, [r7, #8]
    1186:	429a      	cmp	r2, r3
    1188:	d808      	bhi.n	119c <__vsnprintf+0x6a>
/home/palatrauss/optee_with_ftpm_ta/optee_os/lib/libutils/ext/snprintk.c:147
    118a:	68bb      	ldr	r3, [r7, #8]
    118c:	f103 33ff 	add.w	r3, r3, #4294967295	; 0xffffffff
    1190:	68fa      	ldr	r2, [r7, #12]
    1192:	4413      	add	r3, r2
    1194:	f04f 0200 	mov.w	r2, #0
    1198:	701a      	strb	r2, [r3, #0]
    119a:	e005      	b.n	11a8 <__vsnprintf+0x76>
/home/palatrauss/optee_with_ftpm_ta/optee_os/lib/libutils/ext/snprintk.c:149
    119c:	69bb      	ldr	r3, [r7, #24]
    119e:	68fa      	ldr	r2, [r7, #12]
    11a0:	4413      	add	r3, r2
    11a2:	f04f 0200 	mov.w	r2, #0
    11a6:	701a      	strb	r2, [r3, #0]
/home/palatrauss/optee_with_ftpm_ta/optee_os/lib/libutils/ext/snprintk.c:151
    11a8:	69bb      	ldr	r3, [r7, #24]
/home/palatrauss/optee_with_ftpm_ta/optee_os/lib/libutils/ext/snprintk.c:138
    11aa:	490a      	ldr	r1, [pc, #40]	; (11d4 <__vsnprintf+0xa2>)
    11ac:	4479      	add	r1, pc
/home/palatrauss/optee_with_ftpm_ta/optee_os/lib/libutils/ext/snprintk.c:152
    11ae:	4a08      	ldr	r2, [pc, #32]	; (11d0 <__vsnprintf+0x9e>)
    11b0:	588a      	ldr	r2, [r1, r2]
    11b2:	6811      	ldr	r1, [r2, #0]
    11b4:	69fa      	ldr	r2, [r7, #28]
    11b6:	4051      	eors	r1, r2
    11b8:	f04f 0200 	mov.w	r2, #0
    11bc:	d001      	beq.n	11c2 <__vsnprintf+0x90>
    11be:	f7ff fbcd 	bl	95c <__stack_chk_fail>
    11c2:	4618      	mov	r0, r3
    11c4:	f107 0720 	add.w	r7, r7, #32
    11c8:	46bd      	mov	sp, r7
    11ca:	bd80      	pop	{r7, pc}
    11cc:	0001df40 	.word	0x0001df40
    11d0:	0000000c 	.word	0x0000000c
    11d4:	0001ded8 	.word	0x0001ded8

000011d8 <__vsprintf>:
__vsprintf():
/home/palatrauss/optee_with_ftpm_ta/optee_os/lib/libutils/ext/snprintk.c:155
    11d8:	e96d 7e02 	strd	r7, lr, [sp, #-8]!
    11dc:	b086      	sub	sp, #24
    11de:	af02      	add	r7, sp, #8
    11e0:	60f8      	str	r0, [r7, #12]
    11e2:	60b9      	str	r1, [r7, #8]
    11e4:	607a      	str	r2, [r7, #4]
/home/palatrauss/optee_with_ftpm_ta/optee_os/lib/libutils/ext/snprintk.c:156
    11e6:	f04f 0300 	mov.w	r3, #0
    11ea:	9301      	str	r3, [sp, #4]
    11ec:	687b      	ldr	r3, [r7, #4]
    11ee:	9300      	str	r3, [sp, #0]
    11f0:	68fb      	ldr	r3, [r7, #12]
    11f2:	f04f 0200 	mov.w	r2, #0
    11f6:	f04f 0108 	mov.w	r1, #8
    11fa:	68b8      	ldr	r0, [r7, #8]
    11fc:	f000 f856 	bl	12ac <kprintf>
    1200:	4603      	mov	r3, r0
/home/palatrauss/optee_with_ftpm_ta/optee_os/lib/libutils/ext/snprintk.c:157
    1202:	4618      	mov	r0, r3
    1204:	f107 0710 	add.w	r7, r7, #16
    1208:	46bd      	mov	sp, r7
    120a:	bd80      	pop	{r7, pc}

0000120c <uuid2str>:
uuid2str():
/home/palatrauss/optee_with_ftpm_ta/optee_os/lib/libutils/ext/snprintk.c:221
    120c:	f84d 4d14 	str.w	r4, [sp, #-20]!
    1210:	e9cd 5601 	strd	r5, r6, [sp, #4]
    1214:	e9cd 7e03 	strd	r7, lr, [sp, #12]
    1218:	b095      	sub	sp, #84	; 0x54
    121a:	af0a      	add	r7, sp, #40	; 0x28
    121c:	61f8      	str	r0, [r7, #28]
    121e:	61b9      	str	r1, [r7, #24]
    1220:	617a      	str	r2, [r7, #20]
/home/palatrauss/optee_with_ftpm_ta/optee_os/lib/libutils/ext/snprintk.c:227
    1222:	697b      	ldr	r3, [r7, #20]
    1224:	627b      	str	r3, [r7, #36]	; 0x24
/home/palatrauss/optee_with_ftpm_ta/optee_os/lib/libutils/ext/snprintk.c:229
    1226:	6a7b      	ldr	r3, [r7, #36]	; 0x24
    1228:	681a      	ldr	r2, [r3, #0]
/home/palatrauss/optee_with_ftpm_ta/optee_os/lib/libutils/ext/snprintk.c:231
    122a:	6a7b      	ldr	r3, [r7, #36]	; 0x24
    122c:	889b      	ldrh	r3, [r3, #4]
/home/palatrauss/optee_with_ftpm_ta/optee_os/lib/libutils/ext/snprintk.c:229
    122e:	4619      	mov	r1, r3
/home/palatrauss/optee_with_ftpm_ta/optee_os/lib/libutils/ext/snprintk.c:231
    1230:	6a7b      	ldr	r3, [r7, #36]	; 0x24
    1232:	88db      	ldrh	r3, [r3, #6]
/home/palatrauss/optee_with_ftpm_ta/optee_os/lib/libutils/ext/snprintk.c:229
    1234:	4618      	mov	r0, r3
/home/palatrauss/optee_with_ftpm_ta/optee_os/lib/libutils/ext/snprintk.c:232
    1236:	6a7b      	ldr	r3, [r7, #36]	; 0x24
    1238:	7a1b      	ldrb	r3, [r3, #8]
/home/palatrauss/optee_with_ftpm_ta/optee_os/lib/libutils/ext/snprintk.c:229
    123a:	461c      	mov	r4, r3
/home/palatrauss/optee_with_ftpm_ta/optee_os/lib/libutils/ext/snprintk.c:232
    123c:	6a7b      	ldr	r3, [r7, #36]	; 0x24
    123e:	7a5b      	ldrb	r3, [r3, #9]
/home/palatrauss/optee_with_ftpm_ta/optee_os/lib/libutils/ext/snprintk.c:229
    1240:	461d      	mov	r5, r3
/home/palatrauss/optee_with_ftpm_ta/optee_os/lib/libutils/ext/snprintk.c:233
    1242:	6a7b      	ldr	r3, [r7, #36]	; 0x24
    1244:	7a9b      	ldrb	r3, [r3, #10]
/home/palatrauss/optee_with_ftpm_ta/optee_os/lib/libutils/ext/snprintk.c:229
    1246:	461e      	mov	r6, r3
/home/palatrauss/optee_with_ftpm_ta/optee_os/lib/libutils/ext/snprintk.c:233
    1248:	6a7b      	ldr	r3, [r7, #36]	; 0x24
    124a:	7adb      	ldrb	r3, [r3, #11]
/home/palatrauss/optee_with_ftpm_ta/optee_os/lib/libutils/ext/snprintk.c:229
    124c:	613b      	str	r3, [r7, #16]
/home/palatrauss/optee_with_ftpm_ta/optee_os/lib/libutils/ext/snprintk.c:234
    124e:	6a7b      	ldr	r3, [r7, #36]	; 0x24
    1250:	7b1b      	ldrb	r3, [r3, #12]
/home/palatrauss/optee_with_ftpm_ta/optee_os/lib/libutils/ext/snprintk.c:229
    1252:	60fb      	str	r3, [r7, #12]
/home/palatrauss/optee_with_ftpm_ta/optee_os/lib/libutils/ext/snprintk.c:234
    1254:	6a7b      	ldr	r3, [r7, #36]	; 0x24
    1256:	7b5b      	ldrb	r3, [r3, #13]
/home/palatrauss/optee_with_ftpm_ta/optee_os/lib/libutils/ext/snprintk.c:229
    1258:	60bb      	str	r3, [r7, #8]
/home/palatrauss/optee_with_ftpm_ta/optee_os/lib/libutils/ext/snprintk.c:235
    125a:	6a7b      	ldr	r3, [r7, #36]	; 0x24
    125c:	7b9b      	ldrb	r3, [r3, #14]
/home/palatrauss/optee_with_ftpm_ta/optee_os/lib/libutils/ext/snprintk.c:229
    125e:	607b      	str	r3, [r7, #4]
/home/palatrauss/optee_with_ftpm_ta/optee_os/lib/libutils/ext/snprintk.c:235
    1260:	6a7b      	ldr	r3, [r7, #36]	; 0x24
    1262:	7bdb      	ldrb	r3, [r3, #15]
/home/palatrauss/optee_with_ftpm_ta/optee_os/lib/libutils/ext/snprintk.c:229
    1264:	9309      	str	r3, [sp, #36]	; 0x24
    1266:	687b      	ldr	r3, [r7, #4]
    1268:	9308      	str	r3, [sp, #32]
    126a:	68bb      	ldr	r3, [r7, #8]
    126c:	9307      	str	r3, [sp, #28]
    126e:	68fb      	ldr	r3, [r7, #12]
    1270:	9306      	str	r3, [sp, #24]
    1272:	693b      	ldr	r3, [r7, #16]
    1274:	9305      	str	r3, [sp, #20]
    1276:	9604      	str	r6, [sp, #16]
    1278:	9503      	str	r5, [sp, #12]
    127a:	9402      	str	r4, [sp, #8]
    127c:	9001      	str	r0, [sp, #4]
    127e:	9100      	str	r1, [sp, #0]
    1280:	4613      	mov	r3, r2
    1282:	4a09      	ldr	r2, [pc, #36]	; (12a8 <uuid2str+0x9c>)
    1284:	447a      	add	r2, pc
    1286:	69b9      	ldr	r1, [r7, #24]
    1288:	69f8      	ldr	r0, [r7, #28]
    128a:	f7ff ff03 	bl	1094 <snprintk>
    128e:	4603      	mov	r3, r0
/home/palatrauss/optee_with_ftpm_ta/optee_os/lib/libutils/ext/snprintk.c:236
    1290:	4618      	mov	r0, r3
    1292:	f107 072c 	add.w	r7, r7, #44	; 0x2c
    1296:	46bd      	mov	sp, r7
    1298:	e9dd 4500 	ldrd	r4, r5, [sp]
    129c:	e9dd 6702 	ldrd	r6, r7, [sp, #8]
    12a0:	b004      	add	sp, #16
    12a2:	f85d fb04 	ldr.w	pc, [sp], #4
    12a6:	bf00      	nop
    12a8:	00019904 	.word	0x00019904

000012ac <kprintf>:
kprintf():
/home/palatrauss/optee_with_ftpm_ta/optee_os/lib/libutils/ext/snprintk.c:244
    12ac:	e96d 4508 	strd	r4, r5, [sp, #-32]!
    12b0:	e9cd 7802 	strd	r7, r8, [sp, #8]
    12b4:	e9cd 9a04 	strd	r9, sl, [sp, #16]
    12b8:	e9cd be06 	strd	fp, lr, [sp, #24]
    12bc:	b0ac      	sub	sp, #176	; 0xb0
    12be:	af00      	add	r7, sp, #0
    12c0:	6378      	str	r0, [r7, #52]	; 0x34
    12c2:	6339      	str	r1, [r7, #48]	; 0x30
    12c4:	62fa      	str	r2, [r7, #44]	; 0x2c
    12c6:	62bb      	str	r3, [r7, #40]	; 0x28
    12c8:	f8df 2bdc 	ldr.w	r2, [pc, #3036]	; 1ea8 <kprintf+0xbfc>
    12cc:	447a      	add	r2, pc
    12ce:	f8df 3bdc 	ldr.w	r3, [pc, #3036]	; 1eac <kprintf+0xc00>
    12d2:	58d3      	ldr	r3, [r2, r3]
    12d4:	681b      	ldr	r3, [r3, #0]
    12d6:	f8c7 30ac 	str.w	r3, [r7, #172]	; 0xac
    12da:	f04f 0300 	mov.w	r3, #0
/home/palatrauss/optee_with_ftpm_ta/optee_os/lib/libutils/ext/snprintk.c:264
    12de:	6b3b      	ldr	r3, [r7, #48]	; 0x30
    12e0:	2b08      	cmp	r3, #8
    12e2:	d106      	bne.n	12f2 <kprintf+0x46>
/home/palatrauss/optee_with_ftpm_ta/optee_os/lib/libutils/ext/snprintk.c:264 (discriminator 1)
    12e4:	6afb      	ldr	r3, [r7, #44]	; 0x2c
    12e6:	2b00      	cmp	r3, #0
    12e8:	d003      	beq.n	12f2 <kprintf+0x46>
/home/palatrauss/optee_with_ftpm_ta/optee_os/lib/libutils/ext/snprintk.c:265
    12ea:	6afb      	ldr	r3, [r7, #44]	; 0x2c
    12ec:	681b      	ldr	r3, [r3, #0]
    12ee:	673b      	str	r3, [r7, #112]	; 0x70
    12f0:	e002      	b.n	12f8 <kprintf+0x4c>
/home/palatrauss/optee_with_ftpm_ta/optee_os/lib/libutils/ext/snprintk.c:267
    12f2:	f04f 0300 	mov.w	r3, #0
    12f6:	673b      	str	r3, [r7, #112]	; 0x70
/home/palatrauss/optee_with_ftpm_ta/optee_os/lib/libutils/ext/snprintk.c:269
    12f8:	f04f 0300 	mov.w	r3, #0
    12fc:	64bb      	str	r3, [r7, #72]	; 0x48
/home/palatrauss/optee_with_ftpm_ta/optee_os/lib/libutils/ext/snprintk.c:270
    12fe:	f04f 0300 	mov.w	r3, #0
    1302:	66bb      	str	r3, [r7, #104]	; 0x68
/home/palatrauss/optee_with_ftpm_ta/optee_os/lib/libutils/ext/snprintk.c:272
    1304:	6b7b      	ldr	r3, [r7, #52]	; 0x34
    1306:	63fb      	str	r3, [r7, #60]	; 0x3c
/home/palatrauss/optee_with_ftpm_ta/optee_os/lib/libutils/ext/snprintk.c:273
    1308:	f04f 0300 	mov.w	r3, #0
    130c:	653b      	str	r3, [r7, #80]	; 0x50
/home/palatrauss/optee_with_ftpm_ta/optee_os/lib/libutils/ext/snprintk.c:275
    130e:	f04f 0300 	mov.w	r3, #0
    1312:	66fb      	str	r3, [r7, #108]	; 0x6c
/home/palatrauss/optee_with_ftpm_ta/optee_os/lib/libutils/ext/snprintk.c:281
    1314:	e01b      	b.n	134e <kprintf+0xa2>
/home/palatrauss/optee_with_ftpm_ta/optee_os/lib/libutils/ext/snprintk.c:282
    1316:	6d3b      	ldr	r3, [r7, #80]	; 0x50
    1318:	f103 0301 	add.w	r3, r3, #1
    131c:	653b      	str	r3, [r7, #80]	; 0x50
/home/palatrauss/optee_with_ftpm_ta/optee_os/lib/libutils/ext/snprintk.c:283
    131e:	6b3b      	ldr	r3, [r7, #48]	; 0x30
    1320:	2b08      	cmp	r3, #8
    1322:	d110      	bne.n	1346 <kprintf+0x9a>
/home/palatrauss/optee_with_ftpm_ta/optee_os/lib/libutils/ext/snprintk.c:283 (discriminator 1)
    1324:	6abb      	ldr	r3, [r7, #40]	; 0x28
    1326:	2b00      	cmp	r3, #0
    1328:	d00d      	beq.n	1346 <kprintf+0x9a>
/home/palatrauss/optee_with_ftpm_ta/optee_os/lib/libutils/ext/snprintk.c:283 (discriminator 2)
    132a:	6afb      	ldr	r3, [r7, #44]	; 0x2c
    132c:	2b00      	cmp	r3, #0
    132e:	d003      	beq.n	1338 <kprintf+0x8c>
/home/palatrauss/optee_with_ftpm_ta/optee_os/lib/libutils/ext/snprintk.c:283 (discriminator 4)
    1330:	6aba      	ldr	r2, [r7, #40]	; 0x28
    1332:	6f3b      	ldr	r3, [r7, #112]	; 0x70
    1334:	429a      	cmp	r2, r3
    1336:	d206      	bcs.n	1346 <kprintf+0x9a>
/home/palatrauss/optee_with_ftpm_ta/optee_os/lib/libutils/ext/snprintk.c:283 (discriminator 5)
    1338:	6aba      	ldr	r2, [r7, #40]	; 0x28
    133a:	f102 0301 	add.w	r3, r2, #1
    133e:	62bb      	str	r3, [r7, #40]	; 0x28
    1340:	6bfb      	ldr	r3, [r7, #60]	; 0x3c
    1342:	781b      	ldrb	r3, [r3, #0]
    1344:	7013      	strb	r3, [r2, #0]
/home/palatrauss/optee_with_ftpm_ta/optee_os/lib/libutils/ext/snprintk.c:281
    1346:	6bfb      	ldr	r3, [r7, #60]	; 0x3c
    1348:	f103 0301 	add.w	r3, r3, #1
    134c:	63fb      	str	r3, [r7, #60]	; 0x3c
/home/palatrauss/optee_with_ftpm_ta/optee_os/lib/libutils/ext/snprintk.c:281 (discriminator 1)
    134e:	6bfb      	ldr	r3, [r7, #60]	; 0x3c
    1350:	781b      	ldrb	r3, [r3, #0]
    1352:	2b25      	cmp	r3, #37	; 0x25
    1354:	d003      	beq.n	135e <kprintf+0xb2>
/home/palatrauss/optee_with_ftpm_ta/optee_os/lib/libutils/ext/snprintk.c:281 (discriminator 2)
    1356:	6bfb      	ldr	r3, [r7, #60]	; 0x3c
    1358:	781b      	ldrb	r3, [r3, #0]
    135a:	2b00      	cmp	r3, #0
    135c:	d1db      	bne.n	1316 <kprintf+0x6a>
/home/palatrauss/optee_with_ftpm_ta/optee_os/lib/libutils/ext/snprintk.c:285
    135e:	6bfb      	ldr	r3, [r7, #60]	; 0x3c
    1360:	781b      	ldrb	r3, [r3, #0]
    1362:	2b00      	cmp	r3, #0
    1364:	f000 86bb 	beq.w	20de <kprintf+0xe32>
/home/palatrauss/optee_with_ftpm_ta/optee_os/lib/libutils/ext/snprintk.c:288
    1368:	6bfb      	ldr	r3, [r7, #60]	; 0x3c
    136a:	f103 0301 	add.w	r3, r3, #1
    136e:	63fb      	str	r3, [r7, #60]	; 0x3c
/home/palatrauss/optee_with_ftpm_ta/optee_os/lib/libutils/ext/snprintk.c:290
    1370:	f04f 0300 	mov.w	r3, #0
    1374:	64fb      	str	r3, [r7, #76]	; 0x4c
/home/palatrauss/optee_with_ftpm_ta/optee_os/lib/libutils/ext/snprintk.c:291
    1376:	f04f 0300 	mov.w	r3, #0
    137a:	663b      	str	r3, [r7, #96]	; 0x60
/home/palatrauss/optee_with_ftpm_ta/optee_os/lib/libutils/ext/snprintk.c:292
    137c:	f04f 0300 	mov.w	r3, #0
    1380:	657b      	str	r3, [r7, #84]	; 0x54
/home/palatrauss/optee_with_ftpm_ta/optee_os/lib/libutils/ext/snprintk.c:293
    1382:	f04f 33ff 	mov.w	r3, #4294967295	; 0xffffffff
    1386:	65bb      	str	r3, [r7, #88]	; 0x58
/home/palatrauss/optee_with_ftpm_ta/optee_os/lib/libutils/ext/snprintk.c:294
    1388:	f04f 0300 	mov.w	r3, #0
    138c:	f887 303b 	strb.w	r3, [r7, #59]	; 0x3b
/home/palatrauss/optee_with_ftpm_ta/optee_os/lib/libutils/ext/snprintk.c:296
    1390:	6bfa      	ldr	r2, [r7, #60]	; 0x3c
    1392:	f102 0301 	add.w	r3, r2, #1
    1396:	63fb      	str	r3, [r7, #60]	; 0x3c
    1398:	7813      	ldrb	r3, [r2, #0]
    139a:	643b      	str	r3, [r7, #64]	; 0x40
/home/palatrauss/optee_with_ftpm_ta/optee_os/lib/libutils/ext/snprintk.c:297
    139c:	6c3b      	ldr	r3, [r7, #64]	; 0x40
    139e:	f1a3 0320 	sub.w	r3, r3, #32
    13a2:	2b5a      	cmp	r3, #90	; 0x5a
    13a4:	f200 855e 	bhi.w	1e64 <kprintf+0xbb8>
    13a8:	a202      	add	r2, pc, #8	; (adr r2, 13b4 <kprintf+0x108>)
    13aa:	f852 3023 	ldr.w	r3, [r2, r3, lsl #2]
    13ae:	441a      	add	r2, r3
    13b0:	4710      	bx	r2
    13b2:	bf00      	nop
    13b4:	0000016d 	.word	0x0000016d
    13b8:	00000ab1 	.word	0x00000ab1
    13bc:	00000ab1 	.word	0x00000ab1
    13c0:	00000181 	.word	0x00000181
    13c4:	00000ab1 	.word	0x00000ab1
    13c8:	00000ab1 	.word	0x00000ab1
    13cc:	00000ab1 	.word	0x00000ab1
    13d0:	00000ab1 	.word	0x00000ab1
    13d4:	00000ab1 	.word	0x00000ab1
    13d8:	00000ab1 	.word	0x00000ab1
    13dc:	0000018b 	.word	0x0000018b
    13e0:	000001b5 	.word	0x000001b5
    13e4:	00000ab1 	.word	0x00000ab1
    13e8:	000001ab 	.word	0x000001ab
    13ec:	000001bf 	.word	0x000001bf
    13f0:	00000ab1 	.word	0x00000ab1
    13f4:	0000022d 	.word	0x0000022d
    13f8:	00000237 	.word	0x00000237
    13fc:	00000237 	.word	0x00000237
    1400:	00000237 	.word	0x00000237
    1404:	00000237 	.word	0x00000237
    1408:	00000237 	.word	0x00000237
    140c:	00000237 	.word	0x00000237
    1410:	00000237 	.word	0x00000237
    1414:	00000237 	.word	0x00000237
    1418:	00000237 	.word	0x00000237
    141c:	00000ab1 	.word	0x00000ab1
    1420:	00000ab1 	.word	0x00000ab1
    1424:	00000ab1 	.word	0x00000ab1
    1428:	00000ab1 	.word	0x00000ab1
    142c:	00000ab1 	.word	0x00000ab1
    1430:	00000ab1 	.word	0x00000ab1
    1434:	00000ab1 	.word	0x00000ab1
    1438:	00000ab1 	.word	0x00000ab1
    143c:	00000ab1 	.word	0x00000ab1
    1440:	00000ab1 	.word	0x00000ab1
    1444:	000002f3 	.word	0x000002f3
    1448:	00000ab1 	.word	0x00000ab1
    144c:	00000ab1 	.word	0x00000ab1
    1450:	00000ab1 	.word	0x00000ab1
    1454:	00000ab1 	.word	0x00000ab1
    1458:	00000ab1 	.word	0x00000ab1
    145c:	00000ab1 	.word	0x00000ab1
    1460:	00000ab1 	.word	0x00000ab1
    1464:	00000ab1 	.word	0x00000ab1
    1468:	00000ab1 	.word	0x00000ab1
    146c:	00000ab1 	.word	0x00000ab1
    1470:	0000051b 	.word	0x0000051b
    1474:	00000ab1 	.word	0x00000ab1
    1478:	00000ab1 	.word	0x00000ab1
    147c:	00000ab1 	.word	0x00000ab1
    1480:	00000ab1 	.word	0x00000ab1
    1484:	00000ab1 	.word	0x00000ab1
    1488:	00000715 	.word	0x00000715
    148c:	00000ab1 	.word	0x00000ab1
    1490:	00000ab1 	.word	0x00000ab1
    1494:	00000813 	.word	0x00000813
    1498:	00000ab1 	.word	0x00000ab1
    149c:	00000ab1 	.word	0x00000ab1
    14a0:	00000ab1 	.word	0x00000ab1
    14a4:	00000ab1 	.word	0x00000ab1
    14a8:	00000ab1 	.word	0x00000ab1
    14ac:	00000ab1 	.word	0x00000ab1
    14b0:	00000ab1 	.word	0x00000ab1
    14b4:	00000ab1 	.word	0x00000ab1
    14b8:	00000ab1 	.word	0x00000ab1
    14bc:	00000ab1 	.word	0x00000ab1
    14c0:	000002c9 	.word	0x000002c9
    14c4:	000002fb 	.word	0x000002fb
    14c8:	00000ab1 	.word	0x00000ab1
    14cc:	00000ab1 	.word	0x00000ab1
    14d0:	00000ab1 	.word	0x00000ab1
    14d4:	00000273 	.word	0x00000273
    14d8:	000002fb 	.word	0x000002fb
    14dc:	0000027d 	.word	0x0000027d
    14e0:	00000ab1 	.word	0x00000ab1
    14e4:	00000287 	.word	0x00000287
    14e8:	00000ab1 	.word	0x00000ab1
    14ec:	00000427 	.word	0x00000427
    14f0:	00000523 	.word	0x00000523
    14f4:	00000619 	.word	0x00000619
    14f8:	000002ab 	.word	0x000002ab
    14fc:	00000ab1 	.word	0x00000ab1
    1500:	000006a9 	.word	0x000006a9
    1504:	000002b5 	.word	0x000002b5
    1508:	0000071d 	.word	0x0000071d
    150c:	00000ab1 	.word	0x00000ab1
    1510:	00000ab1 	.word	0x00000ab1
    1514:	0000081b 	.word	0x0000081b
    1518:	00000ab1 	.word	0x00000ab1
    151c:	000002bf 	.word	0x000002bf
/home/palatrauss/optee_with_ftpm_ta/optee_os/lib/libutils/ext/snprintk.c:304
    1520:	f897 303b 	ldrb.w	r3, [r7, #59]	; 0x3b
    1524:	2b00      	cmp	r3, #0
    1526:	f47f af33 	bne.w	1390 <kprintf+0xe4>
/home/palatrauss/optee_with_ftpm_ta/optee_os/lib/libutils/ext/snprintk.c:305
    152a:	f04f 0320 	mov.w	r3, #32
    152e:	f887 303b 	strb.w	r3, [r7, #59]	; 0x3b
/home/palatrauss/optee_with_ftpm_ta/optee_os/lib/libutils/ext/snprintk.c:306
    1532:	e72d      	b.n	1390 <kprintf+0xe4>
/home/palatrauss/optee_with_ftpm_ta/optee_os/lib/libutils/ext/snprintk.c:308
    1534:	6cfb      	ldr	r3, [r7, #76]	; 0x4c
    1536:	f043 0301 	orr.w	r3, r3, #1
    153a:	64fb      	str	r3, [r7, #76]	; 0x4c
/home/palatrauss/optee_with_ftpm_ta/optee_os/lib/libutils/ext/snprintk.c:309
    153c:	e728      	b.n	1390 <kprintf+0xe4>
/home/palatrauss/optee_with_ftpm_ta/optee_os/lib/libutils/ext/snprintk.c:317
    153e:	f8d7 20d0 	ldr.w	r2, [r7, #208]	; 0xd0
    1542:	f102 0304 	add.w	r3, r2, #4
    1546:	f8c7 30d0 	str.w	r3, [r7, #208]	; 0xd0
    154a:	6813      	ldr	r3, [r2, #0]
    154c:	657b      	str	r3, [r7, #84]	; 0x54
    154e:	6d7b      	ldr	r3, [r7, #84]	; 0x54
    1550:	2b00      	cmp	r3, #0
    1552:	db00      	blt.n	1556 <kprintf+0x2aa>
/home/palatrauss/optee_with_ftpm_ta/optee_os/lib/libutils/ext/snprintk.c:318
    1554:	e71c      	b.n	1390 <kprintf+0xe4>
/home/palatrauss/optee_with_ftpm_ta/optee_os/lib/libutils/ext/snprintk.c:319
    1556:	6d7b      	ldr	r3, [r7, #84]	; 0x54
    1558:	f1c3 0300 	rsb	r3, r3, #0
    155c:	657b      	str	r3, [r7, #84]	; 0x54
/home/palatrauss/optee_with_ftpm_ta/optee_os/lib/libutils/ext/snprintk.c:322
    155e:	6cfb      	ldr	r3, [r7, #76]	; 0x4c
    1560:	f043 0304 	orr.w	r3, r3, #4
    1564:	64fb      	str	r3, [r7, #76]	; 0x4c
/home/palatrauss/optee_with_ftpm_ta/optee_os/lib/libutils/ext/snprintk.c:323
    1566:	e713      	b.n	1390 <kprintf+0xe4>
/home/palatrauss/optee_with_ftpm_ta/optee_os/lib/libutils/ext/snprintk.c:325
    1568:	f04f 032b 	mov.w	r3, #43	; 0x2b
    156c:	f887 303b 	strb.w	r3, [r7, #59]	; 0x3b
/home/palatrauss/optee_with_ftpm_ta/optee_os/lib/libutils/ext/snprintk.c:326
    1570:	e70e      	b.n	1390 <kprintf+0xe4>
/home/palatrauss/optee_with_ftpm_ta/optee_os/lib/libutils/ext/snprintk.c:328
    1572:	6bfa      	ldr	r2, [r7, #60]	; 0x3c
    1574:	f102 0301 	add.w	r3, r2, #1
    1578:	63fb      	str	r3, [r7, #60]	; 0x3c
    157a:	7813      	ldrb	r3, [r2, #0]
    157c:	643b      	str	r3, [r7, #64]	; 0x40
    157e:	6c3b      	ldr	r3, [r7, #64]	; 0x40
    1580:	2b2a      	cmp	r3, #42	; 0x2a
    1582:	d10c      	bne.n	159e <kprintf+0x2f2>
/home/palatrauss/optee_with_ftpm_ta/optee_os/lib/libutils/ext/snprintk.c:329
    1584:	f8d7 20d0 	ldr.w	r2, [r7, #208]	; 0xd0
    1588:	f102 0304 	add.w	r3, r2, #4
    158c:	f8c7 30d0 	str.w	r3, [r7, #208]	; 0xd0
    1590:	6813      	ldr	r3, [r2, #0]
    1592:	647b      	str	r3, [r7, #68]	; 0x44
/home/palatrauss/optee_with_ftpm_ta/optee_os/lib/libutils/ext/snprintk.c:330
    1594:	6c7b      	ldr	r3, [r7, #68]	; 0x44
    1596:	ea43 73e3 	orr.w	r3, r3, r3, asr #31
    159a:	65bb      	str	r3, [r7, #88]	; 0x58
/home/palatrauss/optee_with_ftpm_ta/optee_os/lib/libutils/ext/snprintk.c:331
    159c:	e6f8      	b.n	1390 <kprintf+0xe4>
/home/palatrauss/optee_with_ftpm_ta/optee_os/lib/libutils/ext/snprintk.c:333
    159e:	f04f 0300 	mov.w	r3, #0
    15a2:	647b      	str	r3, [r7, #68]	; 0x44
/home/palatrauss/optee_with_ftpm_ta/optee_os/lib/libutils/ext/snprintk.c:334
    15a4:	e012      	b.n	15cc <kprintf+0x320>
/home/palatrauss/optee_with_ftpm_ta/optee_os/lib/libutils/ext/snprintk.c:335
    15a6:	6c7a      	ldr	r2, [r7, #68]	; 0x44
    15a8:	4613      	mov	r3, r2
    15aa:	ea4f 0383 	mov.w	r3, r3, lsl #2
    15ae:	4413      	add	r3, r2
    15b0:	ea4f 0343 	mov.w	r3, r3, lsl #1
    15b4:	461a      	mov	r2, r3
    15b6:	6c3b      	ldr	r3, [r7, #64]	; 0x40
    15b8:	f1a3 0330 	sub.w	r3, r3, #48	; 0x30
    15bc:	4413      	add	r3, r2
    15be:	647b      	str	r3, [r7, #68]	; 0x44
/home/palatrauss/optee_with_ftpm_ta/optee_os/lib/libutils/ext/snprintk.c:336
    15c0:	6bfa      	ldr	r2, [r7, #60]	; 0x3c
    15c2:	f102 0301 	add.w	r3, r2, #1
    15c6:	63fb      	str	r3, [r7, #60]	; 0x3c
    15c8:	7813      	ldrb	r3, [r2, #0]
    15ca:	643b      	str	r3, [r7, #64]	; 0x40
/home/palatrauss/optee_with_ftpm_ta/optee_os/lib/libutils/ext/snprintk.c:334
    15cc:	6c3b      	ldr	r3, [r7, #64]	; 0x40
    15ce:	f1a3 0330 	sub.w	r3, r3, #48	; 0x30
    15d2:	2b09      	cmp	r3, #9
    15d4:	d9e7      	bls.n	15a6 <kprintf+0x2fa>
/home/palatrauss/optee_with_ftpm_ta/optee_os/lib/libutils/ext/snprintk.c:338
    15d6:	6c7b      	ldr	r3, [r7, #68]	; 0x44
    15d8:	ea43 73e3 	orr.w	r3, r3, r3, asr #31
    15dc:	65bb      	str	r3, [r7, #88]	; 0x58
/home/palatrauss/optee_with_ftpm_ta/optee_os/lib/libutils/ext/snprintk.c:339
    15de:	e6dd      	b.n	139c <kprintf+0xf0>
/home/palatrauss/optee_with_ftpm_ta/optee_os/lib/libutils/ext/snprintk.c:346
    15e0:	6cfb      	ldr	r3, [r7, #76]	; 0x4c
    15e2:	f443 6380 	orr.w	r3, r3, #1024	; 0x400
    15e6:	64fb      	str	r3, [r7, #76]	; 0x4c
/home/palatrauss/optee_with_ftpm_ta/optee_os/lib/libutils/ext/snprintk.c:347
    15e8:	e6d2      	b.n	1390 <kprintf+0xe4>
/home/palatrauss/optee_with_ftpm_ta/optee_os/lib/libutils/ext/snprintk.c:350
    15ea:	f04f 0300 	mov.w	r3, #0
    15ee:	647b      	str	r3, [r7, #68]	; 0x44
/home/palatrauss/optee_with_ftpm_ta/optee_os/lib/libutils/ext/snprintk.c:352 (discriminator 1)
    15f0:	6c7a      	ldr	r2, [r7, #68]	; 0x44
    15f2:	4613      	mov	r3, r2
    15f4:	ea4f 0383 	mov.w	r3, r3, lsl #2
    15f8:	4413      	add	r3, r2
    15fa:	ea4f 0343 	mov.w	r3, r3, lsl #1
    15fe:	461a      	mov	r2, r3
    1600:	6c3b      	ldr	r3, [r7, #64]	; 0x40
    1602:	f1a3 0330 	sub.w	r3, r3, #48	; 0x30
    1606:	4413      	add	r3, r2
    1608:	647b      	str	r3, [r7, #68]	; 0x44
/home/palatrauss/optee_with_ftpm_ta/optee_os/lib/libutils/ext/snprintk.c:353 (discriminator 1)
    160a:	6bfa      	ldr	r2, [r7, #60]	; 0x3c
    160c:	f102 0301 	add.w	r3, r2, #1
    1610:	63fb      	str	r3, [r7, #60]	; 0x3c
    1612:	7813      	ldrb	r3, [r2, #0]
    1614:	643b      	str	r3, [r7, #64]	; 0x40
/home/palatrauss/optee_with_ftpm_ta/optee_os/lib/libutils/ext/snprintk.c:354 (discriminator 1)
    1616:	6c3b      	ldr	r3, [r7, #64]	; 0x40
    1618:	f1a3 0330 	sub.w	r3, r3, #48	; 0x30
    161c:	2b09      	cmp	r3, #9
    161e:	d9e7      	bls.n	15f0 <kprintf+0x344>
/home/palatrauss/optee_with_ftpm_ta/optee_os/lib/libutils/ext/snprintk.c:355
    1620:	6c7b      	ldr	r3, [r7, #68]	; 0x44
    1622:	657b      	str	r3, [r7, #84]	; 0x54
/home/palatrauss/optee_with_ftpm_ta/optee_os/lib/libutils/ext/snprintk.c:356
    1624:	e6ba      	b.n	139c <kprintf+0xf0>
/home/palatrauss/optee_with_ftpm_ta/optee_os/lib/libutils/ext/snprintk.c:358
    1626:	6cfb      	ldr	r3, [r7, #76]	; 0x4c
    1628:	f043 0340 	orr.w	r3, r3, #64	; 0x40
    162c:	64fb      	str	r3, [r7, #76]	; 0x4c
/home/palatrauss/optee_with_ftpm_ta/optee_os/lib/libutils/ext/snprintk.c:359
    162e:	e6af      	b.n	1390 <kprintf+0xe4>
/home/palatrauss/optee_with_ftpm_ta/optee_os/lib/libutils/ext/snprintk.c:361
    1630:	6cfb      	ldr	r3, [r7, #76]	; 0x4c
    1632:	f043 0380 	orr.w	r3, r3, #128	; 0x80
    1636:	64fb      	str	r3, [r7, #76]	; 0x4c
/home/palatrauss/optee_with_ftpm_ta/optee_os/lib/libutils/ext/snprintk.c:362
    1638:	e6aa      	b.n	1390 <kprintf+0xe4>
/home/palatrauss/optee_with_ftpm_ta/optee_os/lib/libutils/ext/snprintk.c:364
    163a:	6bfb      	ldr	r3, [r7, #60]	; 0x3c
    163c:	781b      	ldrb	r3, [r3, #0]
    163e:	2b6c      	cmp	r3, #108	; 0x6c
    1640:	d108      	bne.n	1654 <kprintf+0x3a8>
/home/palatrauss/optee_with_ftpm_ta/optee_os/lib/libutils/ext/snprintk.c:365
    1642:	6bfb      	ldr	r3, [r7, #60]	; 0x3c
    1644:	f103 0301 	add.w	r3, r3, #1
    1648:	63fb      	str	r3, [r7, #60]	; 0x3c
/home/palatrauss/optee_with_ftpm_ta/optee_os/lib/libutils/ext/snprintk.c:366
    164a:	6cfb      	ldr	r3, [r7, #76]	; 0x4c
    164c:	f043 0320 	orr.w	r3, r3, #32
    1650:	64fb      	str	r3, [r7, #76]	; 0x4c
    1652:	e69d      	b.n	1390 <kprintf+0xe4>
/home/palatrauss/optee_with_ftpm_ta/optee_os/lib/libutils/ext/snprintk.c:368
    1654:	6cfb      	ldr	r3, [r7, #76]	; 0x4c
    1656:	f043 0310 	orr.w	r3, r3, #16
    165a:	64fb      	str	r3, [r7, #76]	; 0x4c
/home/palatrauss/optee_with_ftpm_ta/optee_os/lib/libutils/ext/snprintk.c:370
    165c:	e698      	b.n	1390 <kprintf+0xe4>
/home/palatrauss/optee_with_ftpm_ta/optee_os/lib/libutils/ext/snprintk.c:372
    165e:	6cfb      	ldr	r3, [r7, #76]	; 0x4c
    1660:	f043 0320 	orr.w	r3, r3, #32
    1664:	64fb      	str	r3, [r7, #76]	; 0x4c
/home/palatrauss/optee_with_ftpm_ta/optee_os/lib/libutils/ext/snprintk.c:373
    1666:	e693      	b.n	1390 <kprintf+0xe4>
/home/palatrauss/optee_with_ftpm_ta/optee_os/lib/libutils/ext/snprintk.c:375
    1668:	6cfb      	ldr	r3, [r7, #76]	; 0x4c
    166a:	f443 7380 	orr.w	r3, r3, #256	; 0x100
    166e:	64fb      	str	r3, [r7, #76]	; 0x4c
/home/palatrauss/optee_with_ftpm_ta/optee_os/lib/libutils/ext/snprintk.c:376
    1670:	e68e      	b.n	1390 <kprintf+0xe4>
/home/palatrauss/optee_with_ftpm_ta/optee_os/lib/libutils/ext/snprintk.c:378
    1672:	6cfb      	ldr	r3, [r7, #76]	; 0x4c
    1674:	f443 7300 	orr.w	r3, r3, #512	; 0x200
    1678:	64fb      	str	r3, [r7, #76]	; 0x4c
/home/palatrauss/optee_with_ftpm_ta/optee_os/lib/libutils/ext/snprintk.c:379
    167a:	e689      	b.n	1390 <kprintf+0xe4>
/home/palatrauss/optee_with_ftpm_ta/optee_os/lib/libutils/ext/snprintk.c:381
    167c:	f8d7 20d0 	ldr.w	r2, [r7, #208]	; 0xd0
    1680:	f102 0304 	add.w	r3, r2, #4
    1684:	f8c7 30d0 	str.w	r3, [r7, #208]	; 0xd0
    1688:	6812      	ldr	r2, [r2, #0]
    168a:	f107 0384 	add.w	r3, r7, #132	; 0x84
    168e:	64bb      	str	r3, [r7, #72]	; 0x48
    1690:	b2d3      	uxtb	r3, r2
    1692:	6cba      	ldr	r2, [r7, #72]	; 0x48
    1694:	7013      	strb	r3, [r2, #0]
/home/palatrauss/optee_with_ftpm_ta/optee_os/lib/libutils/ext/snprintk.c:382
    1696:	f04f 0301 	mov.w	r3, #1
    169a:	66bb      	str	r3, [r7, #104]	; 0x68
/home/palatrauss/optee_with_ftpm_ta/optee_os/lib/libutils/ext/snprintk.c:383
    169c:	f04f 0300 	mov.w	r3, #0
    16a0:	f887 303b 	strb.w	r3, [r7, #59]	; 0x3b
/home/palatrauss/optee_with_ftpm_ta/optee_os/lib/libutils/ext/snprintk.c:384
    16a4:	e3f1      	b.n	1e8a <kprintf+0xbde>
/home/palatrauss/optee_with_ftpm_ta/optee_os/lib/libutils/ext/snprintk.c:386
    16a6:	6cfb      	ldr	r3, [r7, #76]	; 0x4c
    16a8:	f043 0310 	orr.w	r3, r3, #16
    16ac:	64fb      	str	r3, [r7, #76]	; 0x4c
/home/palatrauss/optee_with_ftpm_ta/optee_os/lib/libutils/ext/snprintk.c:390
    16ae:	6cfb      	ldr	r3, [r7, #76]	; 0x4c
    16b0:	f003 0380 	and.w	r3, r3, #128	; 0x80
    16b4:	2b00      	cmp	r3, #0
    16b6:	d00e      	beq.n	16d6 <kprintf+0x42a>
    16b8:	f8d7 30d0 	ldr.w	r3, [r7, #208]	; 0xd0
    16bc:	f103 0307 	add.w	r3, r3, #7
    16c0:	f023 0207 	bic.w	r2, r3, #7
    16c4:	f102 0308 	add.w	r3, r2, #8
    16c8:	f8c7 30d0 	str.w	r3, [r7, #208]	; 0xd0
    16cc:	e9d2 2300 	ldrd	r2, r3, [r2]
    16d0:	e9c7 2308 	strd	r2, r3, [r7, #32]
    16d4:	e064      	b.n	17a0 <kprintf+0x4f4>
/home/palatrauss/optee_with_ftpm_ta/optee_os/lib/libutils/ext/snprintk.c:390 (discriminator 2)
    16d6:	6cfb      	ldr	r3, [r7, #76]	; 0x4c
    16d8:	f403 7380 	and.w	r3, r3, #256	; 0x100
    16dc:	2b00      	cmp	r3, #0
    16de:	d00b      	beq.n	16f8 <kprintf+0x44c>
/home/palatrauss/optee_with_ftpm_ta/optee_os/lib/libutils/ext/snprintk.c:390
    16e0:	f8d7 20d0 	ldr.w	r2, [r7, #208]	; 0xd0
    16e4:	f102 0304 	add.w	r3, r2, #4
    16e8:	f8c7 30d0 	str.w	r3, [r7, #208]	; 0xd0
    16ec:	6813      	ldr	r3, [r2, #0]
    16ee:	ea4f 72e3 	mov.w	r2, r3, asr #31
    16f2:	623b      	str	r3, [r7, #32]
    16f4:	627a      	str	r2, [r7, #36]	; 0x24
    16f6:	e053      	b.n	17a0 <kprintf+0x4f4>
/home/palatrauss/optee_with_ftpm_ta/optee_os/lib/libutils/ext/snprintk.c:390 (discriminator 5)
    16f8:	6cfb      	ldr	r3, [r7, #76]	; 0x4c
    16fa:	f403 7300 	and.w	r3, r3, #512	; 0x200
    16fe:	2b00      	cmp	r3, #0
    1700:	d00b      	beq.n	171a <kprintf+0x46e>
/home/palatrauss/optee_with_ftpm_ta/optee_os/lib/libutils/ext/snprintk.c:390
    1702:	f8d7 20d0 	ldr.w	r2, [r7, #208]	; 0xd0
    1706:	f102 0304 	add.w	r3, r2, #4
    170a:	f8c7 30d0 	str.w	r3, [r7, #208]	; 0xd0
    170e:	6813      	ldr	r3, [r2, #0]
    1710:	ea4f 72e3 	mov.w	r2, r3, asr #31
    1714:	623b      	str	r3, [r7, #32]
    1716:	627a      	str	r2, [r7, #36]	; 0x24
    1718:	e042      	b.n	17a0 <kprintf+0x4f4>
/home/palatrauss/optee_with_ftpm_ta/optee_os/lib/libutils/ext/snprintk.c:390 (discriminator 8)
    171a:	6cfb      	ldr	r3, [r7, #76]	; 0x4c
    171c:	f003 0320 	and.w	r3, r3, #32
    1720:	2b00      	cmp	r3, #0
    1722:	d00e      	beq.n	1742 <kprintf+0x496>
/home/palatrauss/optee_with_ftpm_ta/optee_os/lib/libutils/ext/snprintk.c:390
    1724:	f8d7 30d0 	ldr.w	r3, [r7, #208]	; 0xd0
    1728:	f103 0307 	add.w	r3, r3, #7
    172c:	f023 0207 	bic.w	r2, r3, #7
    1730:	f102 0308 	add.w	r3, r2, #8
    1734:	f8c7 30d0 	str.w	r3, [r7, #208]	; 0xd0
    1738:	e9d2 2300 	ldrd	r2, r3, [r2]
    173c:	e9c7 2308 	strd	r2, r3, [r7, #32]
    1740:	e02e      	b.n	17a0 <kprintf+0x4f4>
/home/palatrauss/optee_with_ftpm_ta/optee_os/lib/libutils/ext/snprintk.c:390 (discriminator 11)
    1742:	6cfb      	ldr	r3, [r7, #76]	; 0x4c
    1744:	f003 0310 	and.w	r3, r3, #16
    1748:	2b00      	cmp	r3, #0
    174a:	d00b      	beq.n	1764 <kprintf+0x4b8>
/home/palatrauss/optee_with_ftpm_ta/optee_os/lib/libutils/ext/snprintk.c:390
    174c:	f8d7 20d0 	ldr.w	r2, [r7, #208]	; 0xd0
    1750:	f102 0304 	add.w	r3, r2, #4
    1754:	f8c7 30d0 	str.w	r3, [r7, #208]	; 0xd0
    1758:	6813      	ldr	r3, [r2, #0]
    175a:	ea4f 72e3 	mov.w	r2, r3, asr #31
    175e:	623b      	str	r3, [r7, #32]
    1760:	627a      	str	r2, [r7, #36]	; 0x24
    1762:	e01d      	b.n	17a0 <kprintf+0x4f4>
/home/palatrauss/optee_with_ftpm_ta/optee_os/lib/libutils/ext/snprintk.c:390 (discriminator 14)
    1764:	6cfb      	ldr	r3, [r7, #76]	; 0x4c
    1766:	f003 0340 	and.w	r3, r3, #64	; 0x40
    176a:	2b00      	cmp	r3, #0
    176c:	d00d      	beq.n	178a <kprintf+0x4de>
/home/palatrauss/optee_with_ftpm_ta/optee_os/lib/libutils/ext/snprintk.c:390
    176e:	f8d7 20d0 	ldr.w	r2, [r7, #208]	; 0xd0
    1772:	f102 0304 	add.w	r3, r2, #4
    1776:	f8c7 30d0 	str.w	r3, [r7, #208]	; 0xd0
    177a:	6813      	ldr	r3, [r2, #0]
    177c:	b21b      	sxth	r3, r3
    177e:	b21b      	sxth	r3, r3
    1780:	ea4f 72e3 	mov.w	r2, r3, asr #31
    1784:	623b      	str	r3, [r7, #32]
    1786:	627a      	str	r2, [r7, #36]	; 0x24
    1788:	e00a      	b.n	17a0 <kprintf+0x4f4>
    178a:	f8d7 20d0 	ldr.w	r2, [r7, #208]	; 0xd0
    178e:	f102 0304 	add.w	r3, r2, #4
    1792:	f8c7 30d0 	str.w	r3, [r7, #208]	; 0xd0
    1796:	6813      	ldr	r3, [r2, #0]
    1798:	ea4f 72e3 	mov.w	r2, r3, asr #31
    179c:	623b      	str	r3, [r7, #32]
    179e:	627a      	str	r2, [r7, #36]	; 0x24
/home/palatrauss/optee_with_ftpm_ta/optee_os/lib/libutils/ext/snprintk.c:390 (discriminator 24)
    17a0:	e9d7 2308 	ldrd	r2, r3, [r7, #32]
    17a4:	e9c7 231e 	strd	r2, r3, [r7, #120]	; 0x78
/home/palatrauss/optee_with_ftpm_ta/optee_os/lib/libutils/ext/snprintk.c:391 (discriminator 24)
    17a8:	e9d7 231e 	ldrd	r2, r3, [r7, #120]	; 0x78
    17ac:	2b00      	cmp	r3, #0
    17ae:	da10      	bge.n	17d2 <kprintf+0x526>
/home/palatrauss/optee_with_ftpm_ta/optee_os/lib/libutils/ext/snprintk.c:392
    17b0:	e9d7 231e 	ldrd	r2, r3, [r7, #120]	; 0x78
    17b4:	f04f 0100 	mov.w	r1, #0
    17b8:	4250      	negs	r0, r2
    17ba:	60b8      	str	r0, [r7, #8]
    17bc:	eb61 0303 	sbc.w	r3, r1, r3
    17c0:	60fb      	str	r3, [r7, #12]
    17c2:	e9d7 2302 	ldrd	r2, r3, [r7, #8]
    17c6:	e9c7 231e 	strd	r2, r3, [r7, #120]	; 0x78
/home/palatrauss/optee_with_ftpm_ta/optee_os/lib/libutils/ext/snprintk.c:393
    17ca:	f04f 032d 	mov.w	r3, #45	; 0x2d
    17ce:	f887 303b 	strb.w	r3, [r7, #59]	; 0x3b
/home/palatrauss/optee_with_ftpm_ta/optee_os/lib/libutils/ext/snprintk.c:395
    17d2:	f04f 0301 	mov.w	r3, #1
    17d6:	65fb      	str	r3, [r7, #92]	; 0x5c
/home/palatrauss/optee_with_ftpm_ta/optee_os/lib/libutils/ext/snprintk.c:396
    17d8:	e289      	b.n	1cee <kprintf+0xa42>
/home/palatrauss/optee_with_ftpm_ta/optee_os/lib/libutils/ext/snprintk.c:398
    17da:	6cfb      	ldr	r3, [r7, #76]	; 0x4c
    17dc:	f003 0380 	and.w	r3, r3, #128	; 0x80
    17e0:	2b00      	cmp	r3, #0
    17e2:	d011      	beq.n	1808 <kprintf+0x55c>
/home/palatrauss/optee_with_ftpm_ta/optee_os/lib/libutils/ext/snprintk.c:399
    17e4:	f8d7 20d0 	ldr.w	r2, [r7, #208]	; 0xd0
    17e8:	f102 0304 	add.w	r3, r2, #4
    17ec:	f8c7 30d0 	str.w	r3, [r7, #208]	; 0xd0
    17f0:	6811      	ldr	r1, [r2, #0]
    17f2:	6d3b      	ldr	r3, [r7, #80]	; 0x50
    17f4:	ea4f 72e3 	mov.w	r2, r3, asr #31
    17f8:	61bb      	str	r3, [r7, #24]
    17fa:	61fa      	str	r2, [r7, #28]
    17fc:	e9d7 2306 	ldrd	r2, r3, [r7, #24]
    1800:	e9c1 2300 	strd	r2, r3, [r1]
/home/palatrauss/optee_with_ftpm_ta/optee_os/lib/libutils/ext/snprintk.c:412
    1804:	f000 bc69 	b.w	20da <kprintf+0xe2e>
/home/palatrauss/optee_with_ftpm_ta/optee_os/lib/libutils/ext/snprintk.c:400
    1808:	6cfb      	ldr	r3, [r7, #76]	; 0x4c
    180a:	f403 7380 	and.w	r3, r3, #256	; 0x100
    180e:	2b00      	cmp	r3, #0
    1810:	d00a      	beq.n	1828 <kprintf+0x57c>
/home/palatrauss/optee_with_ftpm_ta/optee_os/lib/libutils/ext/snprintk.c:401
    1812:	f8d7 20d0 	ldr.w	r2, [r7, #208]	; 0xd0
    1816:	f102 0304 	add.w	r3, r2, #4
    181a:	f8c7 30d0 	str.w	r3, [r7, #208]	; 0xd0
    181e:	6812      	ldr	r2, [r2, #0]
    1820:	6d3b      	ldr	r3, [r7, #80]	; 0x50
    1822:	6013      	str	r3, [r2, #0]
/home/palatrauss/optee_with_ftpm_ta/optee_os/lib/libutils/ext/snprintk.c:412
    1824:	f000 bc59 	b.w	20da <kprintf+0xe2e>
/home/palatrauss/optee_with_ftpm_ta/optee_os/lib/libutils/ext/snprintk.c:402
    1828:	6cfb      	ldr	r3, [r7, #76]	; 0x4c
    182a:	f403 7300 	and.w	r3, r3, #512	; 0x200
    182e:	2b00      	cmp	r3, #0
    1830:	d00a      	beq.n	1848 <kprintf+0x59c>
/home/palatrauss/optee_with_ftpm_ta/optee_os/lib/libutils/ext/snprintk.c:403
    1832:	f8d7 20d0 	ldr.w	r2, [r7, #208]	; 0xd0
    1836:	f102 0304 	add.w	r3, r2, #4
    183a:	f8c7 30d0 	str.w	r3, [r7, #208]	; 0xd0
    183e:	6812      	ldr	r2, [r2, #0]
    1840:	6d3b      	ldr	r3, [r7, #80]	; 0x50
    1842:	6013      	str	r3, [r2, #0]
/home/palatrauss/optee_with_ftpm_ta/optee_os/lib/libutils/ext/snprintk.c:412
    1844:	f000 bc49 	b.w	20da <kprintf+0xe2e>
/home/palatrauss/optee_with_ftpm_ta/optee_os/lib/libutils/ext/snprintk.c:404
    1848:	6cfb      	ldr	r3, [r7, #76]	; 0x4c
    184a:	f003 0320 	and.w	r3, r3, #32
    184e:	2b00      	cmp	r3, #0
    1850:	d011      	beq.n	1876 <kprintf+0x5ca>
/home/palatrauss/optee_with_ftpm_ta/optee_os/lib/libutils/ext/snprintk.c:405
    1852:	f8d7 20d0 	ldr.w	r2, [r7, #208]	; 0xd0
    1856:	f102 0304 	add.w	r3, r2, #4
    185a:	f8c7 30d0 	str.w	r3, [r7, #208]	; 0xd0
    185e:	6811      	ldr	r1, [r2, #0]
    1860:	6d3b      	ldr	r3, [r7, #80]	; 0x50
    1862:	ea4f 72e3 	mov.w	r2, r3, asr #31
    1866:	613b      	str	r3, [r7, #16]
    1868:	617a      	str	r2, [r7, #20]
    186a:	e9d7 2304 	ldrd	r2, r3, [r7, #16]
    186e:	e9c1 2300 	strd	r2, r3, [r1]
/home/palatrauss/optee_with_ftpm_ta/optee_os/lib/libutils/ext/snprintk.c:412
    1872:	f000 bc32 	b.w	20da <kprintf+0xe2e>
/home/palatrauss/optee_with_ftpm_ta/optee_os/lib/libutils/ext/snprintk.c:406
    1876:	6cfb      	ldr	r3, [r7, #76]	; 0x4c
    1878:	f003 0310 	and.w	r3, r3, #16
    187c:	2b00      	cmp	r3, #0
    187e:	d00a      	beq.n	1896 <kprintf+0x5ea>
/home/palatrauss/optee_with_ftpm_ta/optee_os/lib/libutils/ext/snprintk.c:407
    1880:	f8d7 20d0 	ldr.w	r2, [r7, #208]	; 0xd0
    1884:	f102 0304 	add.w	r3, r2, #4
    1888:	f8c7 30d0 	str.w	r3, [r7, #208]	; 0xd0
    188c:	6812      	ldr	r2, [r2, #0]
    188e:	6d3b      	ldr	r3, [r7, #80]	; 0x50
    1890:	6013      	str	r3, [r2, #0]
/home/palatrauss/optee_with_ftpm_ta/optee_os/lib/libutils/ext/snprintk.c:412
    1892:	f000 bc22 	b.w	20da <kprintf+0xe2e>
/home/palatrauss/optee_with_ftpm_ta/optee_os/lib/libutils/ext/snprintk.c:408
    1896:	6cfb      	ldr	r3, [r7, #76]	; 0x4c
    1898:	f003 0340 	and.w	r3, r3, #64	; 0x40
    189c:	2b00      	cmp	r3, #0
    189e:	d00b      	beq.n	18b8 <kprintf+0x60c>
/home/palatrauss/optee_with_ftpm_ta/optee_os/lib/libutils/ext/snprintk.c:409
    18a0:	f8d7 20d0 	ldr.w	r2, [r7, #208]	; 0xd0
    18a4:	f102 0304 	add.w	r3, r2, #4
    18a8:	f8c7 30d0 	str.w	r3, [r7, #208]	; 0xd0
    18ac:	6812      	ldr	r2, [r2, #0]
    18ae:	6d3b      	ldr	r3, [r7, #80]	; 0x50
    18b0:	b21b      	sxth	r3, r3
    18b2:	8013      	strh	r3, [r2, #0]
/home/palatrauss/optee_with_ftpm_ta/optee_os/lib/libutils/ext/snprintk.c:412
    18b4:	f000 bc11 	b.w	20da <kprintf+0xe2e>
/home/palatrauss/optee_with_ftpm_ta/optee_os/lib/libutils/ext/snprintk.c:411
    18b8:	f8d7 20d0 	ldr.w	r2, [r7, #208]	; 0xd0
    18bc:	f102 0304 	add.w	r3, r2, #4
    18c0:	f8c7 30d0 	str.w	r3, [r7, #208]	; 0xd0
    18c4:	6812      	ldr	r2, [r2, #0]
    18c6:	6d3b      	ldr	r3, [r7, #80]	; 0x50
    18c8:	6013      	str	r3, [r2, #0]
/home/palatrauss/optee_with_ftpm_ta/optee_os/lib/libutils/ext/snprintk.c:412
    18ca:	f000 bc06 	b.w	20da <kprintf+0xe2e>
/home/palatrauss/optee_with_ftpm_ta/optee_os/lib/libutils/ext/snprintk.c:414
    18ce:	6cfb      	ldr	r3, [r7, #76]	; 0x4c
    18d0:	f043 0310 	orr.w	r3, r3, #16
    18d4:	64fb      	str	r3, [r7, #76]	; 0x4c
/home/palatrauss/optee_with_ftpm_ta/optee_os/lib/libutils/ext/snprintk.c:417
    18d6:	6cfb      	ldr	r3, [r7, #76]	; 0x4c
    18d8:	f003 0380 	and.w	r3, r3, #128	; 0x80
    18dc:	2b00      	cmp	r3, #0
    18de:	d00c      	beq.n	18fa <kprintf+0x64e>
    18e0:	f8d7 30d0 	ldr.w	r3, [r7, #208]	; 0xd0
    18e4:	f103 0307 	add.w	r3, r3, #7
    18e8:	f023 0207 	bic.w	r2, r3, #7
    18ec:	f102 0308 	add.w	r3, r2, #8
    18f0:	f8c7 30d0 	str.w	r3, [r7, #208]	; 0xd0
    18f4:	e9d2 4500 	ldrd	r4, r5, [r2]
    18f8:	e062      	b.n	19c0 <kprintf+0x714>
/home/palatrauss/optee_with_ftpm_ta/optee_os/lib/libutils/ext/snprintk.c:417 (discriminator 2)
    18fa:	6cfb      	ldr	r3, [r7, #76]	; 0x4c
    18fc:	f403 7380 	and.w	r3, r3, #256	; 0x100
    1900:	2b00      	cmp	r3, #0
    1902:	d00b      	beq.n	191c <kprintf+0x670>
/home/palatrauss/optee_with_ftpm_ta/optee_os/lib/libutils/ext/snprintk.c:417
    1904:	f8d7 20d0 	ldr.w	r2, [r7, #208]	; 0xd0
    1908:	f102 0304 	add.w	r3, r2, #4
    190c:	f8c7 30d0 	str.w	r3, [r7, #208]	; 0xd0
    1910:	6813      	ldr	r3, [r2, #0]
    1912:	f04f 0200 	mov.w	r2, #0
    1916:	461c      	mov	r4, r3
    1918:	4615      	mov	r5, r2
    191a:	e051      	b.n	19c0 <kprintf+0x714>
/home/palatrauss/optee_with_ftpm_ta/optee_os/lib/libutils/ext/snprintk.c:417 (discriminator 5)
    191c:	6cfb      	ldr	r3, [r7, #76]	; 0x4c
    191e:	f403 7300 	and.w	r3, r3, #512	; 0x200
    1922:	2b00      	cmp	r3, #0
    1924:	d00b      	beq.n	193e <kprintf+0x692>
/home/palatrauss/optee_with_ftpm_ta/optee_os/lib/libutils/ext/snprintk.c:417
    1926:	f8d7 20d0 	ldr.w	r2, [r7, #208]	; 0xd0
    192a:	f102 0304 	add.w	r3, r2, #4
    192e:	f8c7 30d0 	str.w	r3, [r7, #208]	; 0xd0
    1932:	6813      	ldr	r3, [r2, #0]
    1934:	f04f 0200 	mov.w	r2, #0
    1938:	461c      	mov	r4, r3
    193a:	4615      	mov	r5, r2
    193c:	e040      	b.n	19c0 <kprintf+0x714>
/home/palatrauss/optee_with_ftpm_ta/optee_os/lib/libutils/ext/snprintk.c:417 (discriminator 8)
    193e:	6cfb      	ldr	r3, [r7, #76]	; 0x4c
    1940:	f003 0320 	and.w	r3, r3, #32
    1944:	2b00      	cmp	r3, #0
    1946:	d00c      	beq.n	1962 <kprintf+0x6b6>
/home/palatrauss/optee_with_ftpm_ta/optee_os/lib/libutils/ext/snprintk.c:417
    1948:	f8d7 30d0 	ldr.w	r3, [r7, #208]	; 0xd0
    194c:	f103 0307 	add.w	r3, r3, #7
    1950:	f023 0207 	bic.w	r2, r3, #7
    1954:	f102 0308 	add.w	r3, r2, #8
    1958:	f8c7 30d0 	str.w	r3, [r7, #208]	; 0xd0
    195c:	e9d2 4500 	ldrd	r4, r5, [r2]
    1960:	e02e      	b.n	19c0 <kprintf+0x714>
/home/palatrauss/optee_with_ftpm_ta/optee_os/lib/libutils/ext/snprintk.c:417 (discriminator 11)
    1962:	6cfb      	ldr	r3, [r7, #76]	; 0x4c
    1964:	f003 0310 	and.w	r3, r3, #16
    1968:	2b00      	cmp	r3, #0
    196a:	d00b      	beq.n	1984 <kprintf+0x6d8>
/home/palatrauss/optee_with_ftpm_ta/optee_os/lib/libutils/ext/snprintk.c:417
    196c:	f8d7 20d0 	ldr.w	r2, [r7, #208]	; 0xd0
    1970:	f102 0304 	add.w	r3, r2, #4
    1974:	f8c7 30d0 	str.w	r3, [r7, #208]	; 0xd0
    1978:	6813      	ldr	r3, [r2, #0]
    197a:	f04f 0200 	mov.w	r2, #0
    197e:	461c      	mov	r4, r3
    1980:	4615      	mov	r5, r2
    1982:	e01d      	b.n	19c0 <kprintf+0x714>
/home/palatrauss/optee_with_ftpm_ta/optee_os/lib/libutils/ext/snprintk.c:417 (discriminator 14)
    1984:	6cfb      	ldr	r3, [r7, #76]	; 0x4c
    1986:	f003 0340 	and.w	r3, r3, #64	; 0x40
    198a:	2b00      	cmp	r3, #0
    198c:	d00d      	beq.n	19aa <kprintf+0x6fe>
/home/palatrauss/optee_with_ftpm_ta/optee_os/lib/libutils/ext/snprintk.c:417
    198e:	f8d7 20d0 	ldr.w	r2, [r7, #208]	; 0xd0
    1992:	f102 0304 	add.w	r3, r2, #4
    1996:	f8c7 30d0 	str.w	r3, [r7, #208]	; 0xd0
    199a:	6813      	ldr	r3, [r2, #0]
    199c:	b29b      	uxth	r3, r3
    199e:	b29b      	uxth	r3, r3
    19a0:	f04f 0200 	mov.w	r2, #0
    19a4:	461c      	mov	r4, r3
    19a6:	4615      	mov	r5, r2
    19a8:	e00a      	b.n	19c0 <kprintf+0x714>
    19aa:	f8d7 20d0 	ldr.w	r2, [r7, #208]	; 0xd0
    19ae:	f102 0304 	add.w	r3, r2, #4
    19b2:	f8c7 30d0 	str.w	r3, [r7, #208]	; 0xd0
    19b6:	6813      	ldr	r3, [r2, #0]
    19b8:	f04f 0200 	mov.w	r2, #0
    19bc:	461c      	mov	r4, r3
    19be:	4615      	mov	r5, r2
/home/palatrauss/optee_with_ftpm_ta/optee_os/lib/libutils/ext/snprintk.c:417 (discriminator 24)
    19c0:	e9c7 451e 	strd	r4, r5, [r7, #120]	; 0x78
/home/palatrauss/optee_with_ftpm_ta/optee_os/lib/libutils/ext/snprintk.c:418 (discriminator 24)
    19c4:	f04f 0300 	mov.w	r3, #0
    19c8:	65fb      	str	r3, [r7, #92]	; 0x5c
/home/palatrauss/optee_with_ftpm_ta/optee_os/lib/libutils/ext/snprintk.c:419 (discriminator 24)
    19ca:	e18c      	b.n	1ce6 <kprintf+0xa3a>
/home/palatrauss/optee_with_ftpm_ta/optee_os/lib/libutils/ext/snprintk.c:421
    19cc:	f897 30d4 	ldrb.w	r3, [r7, #212]	; 0xd4
    19d0:	2b00      	cmp	r3, #0
    19d2:	d024      	beq.n	1a1e <kprintf+0x772>
/home/palatrauss/optee_with_ftpm_ta/optee_os/lib/libutils/ext/snprintk.c:421 (discriminator 1)
    19d4:	6bfb      	ldr	r3, [r7, #60]	; 0x3c
    19d6:	781b      	ldrb	r3, [r3, #0]
    19d8:	2b55      	cmp	r3, #85	; 0x55
    19da:	d120      	bne.n	1a1e <kprintf+0x772>
/home/palatrauss/optee_with_ftpm_ta/optee_os/lib/libutils/ext/snprintk.c:421 (discriminator 2)
    19dc:	6bfb      	ldr	r3, [r7, #60]	; 0x3c
    19de:	f103 0301 	add.w	r3, r3, #1
    19e2:	781b      	ldrb	r3, [r3, #0]
    19e4:	2b6c      	cmp	r3, #108	; 0x6c
    19e6:	d11a      	bne.n	1a1e <kprintf+0x772>
/home/palatrauss/optee_with_ftpm_ta/optee_os/lib/libutils/ext/snprintk.c:426
    19e8:	6bfb      	ldr	r3, [r7, #60]	; 0x3c
    19ea:	f103 0302 	add.w	r3, r3, #2
    19ee:	63fb      	str	r3, [r7, #60]	; 0x3c
/home/palatrauss/optee_with_ftpm_ta/optee_os/lib/libutils/ext/snprintk.c:427
    19f0:	f8d7 20d0 	ldr.w	r2, [r7, #208]	; 0xd0
    19f4:	f102 0304 	add.w	r3, r2, #4
    19f8:	f8c7 30d0 	str.w	r3, [r7, #208]	; 0xd0
    19fc:	6813      	ldr	r3, [r2, #0]
    19fe:	f107 0084 	add.w	r0, r7, #132	; 0x84
    1a02:	461a      	mov	r2, r3
    1a04:	f04f 0125 	mov.w	r1, #37	; 0x25
    1a08:	f7ff fc00 	bl	120c <uuid2str>
    1a0c:	66b8      	str	r0, [r7, #104]	; 0x68
/home/palatrauss/optee_with_ftpm_ta/optee_os/lib/libutils/ext/snprintk.c:429
    1a0e:	f107 0384 	add.w	r3, r7, #132	; 0x84
    1a12:	64bb      	str	r3, [r7, #72]	; 0x48
/home/palatrauss/optee_with_ftpm_ta/optee_os/lib/libutils/ext/snprintk.c:430
    1a14:	f04f 0300 	mov.w	r3, #0
    1a18:	f887 303b 	strb.w	r3, [r7, #59]	; 0x3b
/home/palatrauss/optee_with_ftpm_ta/optee_os/lib/libutils/ext/snprintk.c:431
    1a1c:	e235      	b.n	1e8a <kprintf+0xbde>
/home/palatrauss/optee_with_ftpm_ta/optee_os/lib/libutils/ext/snprintk.c:441
    1a1e:	f8d7 20d0 	ldr.w	r2, [r7, #208]	; 0xd0
    1a22:	f102 0304 	add.w	r3, r2, #4
    1a26:	f8c7 30d0 	str.w	r3, [r7, #208]	; 0xd0
    1a2a:	6813      	ldr	r3, [r2, #0]
    1a2c:	461a      	mov	r2, r3
    1a2e:	f04f 0300 	mov.w	r3, #0
    1a32:	603a      	str	r2, [r7, #0]
    1a34:	607b      	str	r3, [r7, #4]
    1a36:	e9d7 2300 	ldrd	r2, r3, [r7]
    1a3a:	e9c7 231e 	strd	r2, r3, [r7, #120]	; 0x78
/home/palatrauss/optee_with_ftpm_ta/optee_os/lib/libutils/ext/snprintk.c:442
    1a3e:	f04f 0302 	mov.w	r3, #2
    1a42:	65fb      	str	r3, [r7, #92]	; 0x5c
/home/palatrauss/optee_with_ftpm_ta/optee_os/lib/libutils/ext/snprintk.c:443
    1a44:	f8df 3468 	ldr.w	r3, [pc, #1128]	; 1eb0 <kprintf+0xc04>
    1a48:	447b      	add	r3, pc
    1a4a:	66fb      	str	r3, [r7, #108]	; 0x6c
/home/palatrauss/optee_with_ftpm_ta/optee_os/lib/libutils/ext/snprintk.c:444
    1a4c:	6cfb      	ldr	r3, [r7, #76]	; 0x4c
    1a4e:	f043 0302 	orr.w	r3, r3, #2
    1a52:	64fb      	str	r3, [r7, #76]	; 0x4c
/home/palatrauss/optee_with_ftpm_ta/optee_os/lib/libutils/ext/snprintk.c:445
    1a54:	f04f 0378 	mov.w	r3, #120	; 0x78
    1a58:	643b      	str	r3, [r7, #64]	; 0x40
/home/palatrauss/optee_with_ftpm_ta/optee_os/lib/libutils/ext/snprintk.c:446
    1a5a:	e144      	b.n	1ce6 <kprintf+0xa3a>
/home/palatrauss/optee_with_ftpm_ta/optee_os/lib/libutils/ext/snprintk.c:448
    1a5c:	f8d7 20d0 	ldr.w	r2, [r7, #208]	; 0xd0
    1a60:	f102 0304 	add.w	r3, r2, #4
    1a64:	f8c7 30d0 	str.w	r3, [r7, #208]	; 0xd0
    1a68:	6813      	ldr	r3, [r2, #0]
    1a6a:	64bb      	str	r3, [r7, #72]	; 0x48
    1a6c:	6cbb      	ldr	r3, [r7, #72]	; 0x48
    1a6e:	2b00      	cmp	r3, #0
    1a70:	d103      	bne.n	1a7a <kprintf+0x7ce>
/home/palatrauss/optee_with_ftpm_ta/optee_os/lib/libutils/ext/snprintk.c:450
    1a72:	f8df 3440 	ldr.w	r3, [pc, #1088]	; 1eb4 <kprintf+0xc08>
    1a76:	447b      	add	r3, pc
    1a78:	64bb      	str	r3, [r7, #72]	; 0x48
/home/palatrauss/optee_with_ftpm_ta/optee_os/lib/libutils/ext/snprintk.c:451
    1a7a:	6dbb      	ldr	r3, [r7, #88]	; 0x58
    1a7c:	2b00      	cmp	r3, #0
    1a7e:	db19      	blt.n	1ab4 <kprintf+0x808>
/home/palatrauss/optee_with_ftpm_ta/optee_os/lib/libutils/ext/snprintk.c:457
    1a80:	6dbb      	ldr	r3, [r7, #88]	; 0x58
    1a82:	461a      	mov	r2, r3
    1a84:	f04f 0100 	mov.w	r1, #0
    1a88:	6cb8      	ldr	r0, [r7, #72]	; 0x48
    1a8a:	f018 fad7 	bl	1a03c <memchr>
    1a8e:	6778      	str	r0, [r7, #116]	; 0x74
/home/palatrauss/optee_with_ftpm_ta/optee_os/lib/libutils/ext/snprintk.c:459
    1a90:	6f7b      	ldr	r3, [r7, #116]	; 0x74
    1a92:	2b00      	cmp	r3, #0
    1a94:	d00b      	beq.n	1aae <kprintf+0x802>
/home/palatrauss/optee_with_ftpm_ta/optee_os/lib/libutils/ext/snprintk.c:460
    1a96:	6f7a      	ldr	r2, [r7, #116]	; 0x74
    1a98:	6cbb      	ldr	r3, [r7, #72]	; 0x48
    1a9a:	eba2 0303 	sub.w	r3, r2, r3
    1a9e:	66bb      	str	r3, [r7, #104]	; 0x68
/home/palatrauss/optee_with_ftpm_ta/optee_os/lib/libutils/ext/snprintk.c:461
    1aa0:	6eba      	ldr	r2, [r7, #104]	; 0x68
    1aa2:	6dbb      	ldr	r3, [r7, #88]	; 0x58
    1aa4:	429a      	cmp	r2, r3
    1aa6:	dd0a      	ble.n	1abe <kprintf+0x812>
/home/palatrauss/optee_with_ftpm_ta/optee_os/lib/libutils/ext/snprintk.c:462
    1aa8:	6dbb      	ldr	r3, [r7, #88]	; 0x58
    1aaa:	66bb      	str	r3, [r7, #104]	; 0x68
    1aac:	e007      	b.n	1abe <kprintf+0x812>
/home/palatrauss/optee_with_ftpm_ta/optee_os/lib/libutils/ext/snprintk.c:464
    1aae:	6dbb      	ldr	r3, [r7, #88]	; 0x58
    1ab0:	66bb      	str	r3, [r7, #104]	; 0x68
    1ab2:	e004      	b.n	1abe <kprintf+0x812>
/home/palatrauss/optee_with_ftpm_ta/optee_os/lib/libutils/ext/snprintk.c:466
    1ab4:	6cb8      	ldr	r0, [r7, #72]	; 0x48
    1ab6:	f018 fb4b 	bl	1a150 <strlen>
    1aba:	4603      	mov	r3, r0
    1abc:	66bb      	str	r3, [r7, #104]	; 0x68
/home/palatrauss/optee_with_ftpm_ta/optee_os/lib/libutils/ext/snprintk.c:467
    1abe:	f04f 0300 	mov.w	r3, #0
    1ac2:	f887 303b 	strb.w	r3, [r7, #59]	; 0x3b
/home/palatrauss/optee_with_ftpm_ta/optee_os/lib/libutils/ext/snprintk.c:468
    1ac6:	e1e0      	b.n	1e8a <kprintf+0xbde>
/home/palatrauss/optee_with_ftpm_ta/optee_os/lib/libutils/ext/snprintk.c:470
    1ac8:	6cfb      	ldr	r3, [r7, #76]	; 0x4c
    1aca:	f043 0310 	orr.w	r3, r3, #16
    1ace:	64fb      	str	r3, [r7, #76]	; 0x4c
/home/palatrauss/optee_with_ftpm_ta/optee_os/lib/libutils/ext/snprintk.c:473
    1ad0:	6cfb      	ldr	r3, [r7, #76]	; 0x4c
    1ad2:	f003 0380 	and.w	r3, r3, #128	; 0x80
    1ad6:	2b00      	cmp	r3, #0
    1ad8:	d00c      	beq.n	1af4 <kprintf+0x848>
    1ada:	f8d7 30d0 	ldr.w	r3, [r7, #208]	; 0xd0
    1ade:	f103 0307 	add.w	r3, r3, #7
    1ae2:	f023 0207 	bic.w	r2, r3, #7
    1ae6:	f102 0308 	add.w	r3, r2, #8
    1aea:	f8c7 30d0 	str.w	r3, [r7, #208]	; 0xd0
    1aee:	e9d2 8900 	ldrd	r8, r9, [r2]
    1af2:	e062      	b.n	1bba <kprintf+0x90e>
/home/palatrauss/optee_with_ftpm_ta/optee_os/lib/libutils/ext/snprintk.c:473 (discriminator 2)
    1af4:	6cfb      	ldr	r3, [r7, #76]	; 0x4c
    1af6:	f403 7380 	and.w	r3, r3, #256	; 0x100
    1afa:	2b00      	cmp	r3, #0
    1afc:	d00b      	beq.n	1b16 <kprintf+0x86a>
/home/palatrauss/optee_with_ftpm_ta/optee_os/lib/libutils/ext/snprintk.c:473
    1afe:	f8d7 20d0 	ldr.w	r2, [r7, #208]	; 0xd0
    1b02:	f102 0304 	add.w	r3, r2, #4
    1b06:	f8c7 30d0 	str.w	r3, [r7, #208]	; 0xd0
    1b0a:	6813      	ldr	r3, [r2, #0]
    1b0c:	f04f 0200 	mov.w	r2, #0
    1b10:	4698      	mov	r8, r3
    1b12:	4691      	mov	r9, r2
    1b14:	e051      	b.n	1bba <kprintf+0x90e>
/home/palatrauss/optee_with_ftpm_ta/optee_os/lib/libutils/ext/snprintk.c:473 (discriminator 5)
    1b16:	6cfb      	ldr	r3, [r7, #76]	; 0x4c
    1b18:	f403 7300 	and.w	r3, r3, #512	; 0x200
    1b1c:	2b00      	cmp	r3, #0
    1b1e:	d00b      	beq.n	1b38 <kprintf+0x88c>
/home/palatrauss/optee_with_ftpm_ta/optee_os/lib/libutils/ext/snprintk.c:473
    1b20:	f8d7 20d0 	ldr.w	r2, [r7, #208]	; 0xd0
    1b24:	f102 0304 	add.w	r3, r2, #4
    1b28:	f8c7 30d0 	str.w	r3, [r7, #208]	; 0xd0
    1b2c:	6813      	ldr	r3, [r2, #0]
    1b2e:	f04f 0200 	mov.w	r2, #0
    1b32:	4698      	mov	r8, r3
    1b34:	4691      	mov	r9, r2
    1b36:	e040      	b.n	1bba <kprintf+0x90e>
/home/palatrauss/optee_with_ftpm_ta/optee_os/lib/libutils/ext/snprintk.c:473 (discriminator 8)
    1b38:	6cfb      	ldr	r3, [r7, #76]	; 0x4c
    1b3a:	f003 0320 	and.w	r3, r3, #32
    1b3e:	2b00      	cmp	r3, #0
    1b40:	d00c      	beq.n	1b5c <kprintf+0x8b0>
/home/palatrauss/optee_with_ftpm_ta/optee_os/lib/libutils/ext/snprintk.c:473
    1b42:	f8d7 30d0 	ldr.w	r3, [r7, #208]	; 0xd0
    1b46:	f103 0307 	add.w	r3, r3, #7
    1b4a:	f023 0207 	bic.w	r2, r3, #7
    1b4e:	f102 0308 	add.w	r3, r2, #8
    1b52:	f8c7 30d0 	str.w	r3, [r7, #208]	; 0xd0
    1b56:	e9d2 8900 	ldrd	r8, r9, [r2]
    1b5a:	e02e      	b.n	1bba <kprintf+0x90e>
/home/palatrauss/optee_with_ftpm_ta/optee_os/lib/libutils/ext/snprintk.c:473 (discriminator 11)
    1b5c:	6cfb      	ldr	r3, [r7, #76]	; 0x4c
    1b5e:	f003 0310 	and.w	r3, r3, #16
    1b62:	2b00      	cmp	r3, #0
    1b64:	d00b      	beq.n	1b7e <kprintf+0x8d2>
/home/palatrauss/optee_with_ftpm_ta/optee_os/lib/libutils/ext/snprintk.c:473
    1b66:	f8d7 20d0 	ldr.w	r2, [r7, #208]	; 0xd0
    1b6a:	f102 0304 	add.w	r3, r2, #4
    1b6e:	f8c7 30d0 	str.w	r3, [r7, #208]	; 0xd0
    1b72:	6813      	ldr	r3, [r2, #0]
    1b74:	f04f 0200 	mov.w	r2, #0
    1b78:	4698      	mov	r8, r3
    1b7a:	4691      	mov	r9, r2
    1b7c:	e01d      	b.n	1bba <kprintf+0x90e>
/home/palatrauss/optee_with_ftpm_ta/optee_os/lib/libutils/ext/snprintk.c:473 (discriminator 14)
    1b7e:	6cfb      	ldr	r3, [r7, #76]	; 0x4c
    1b80:	f003 0340 	and.w	r3, r3, #64	; 0x40
    1b84:	2b00      	cmp	r3, #0
    1b86:	d00d      	beq.n	1ba4 <kprintf+0x8f8>
/home/palatrauss/optee_with_ftpm_ta/optee_os/lib/libutils/ext/snprintk.c:473
    1b88:	f8d7 20d0 	ldr.w	r2, [r7, #208]	; 0xd0
    1b8c:	f102 0304 	add.w	r3, r2, #4
    1b90:	f8c7 30d0 	str.w	r3, [r7, #208]	; 0xd0
    1b94:	6813      	ldr	r3, [r2, #0]
    1b96:	b29b      	uxth	r3, r3
    1b98:	b29b      	uxth	r3, r3
    1b9a:	f04f 0200 	mov.w	r2, #0
    1b9e:	4698      	mov	r8, r3
    1ba0:	4691      	mov	r9, r2
    1ba2:	e00a      	b.n	1bba <kprintf+0x90e>
    1ba4:	f8d7 20d0 	ldr.w	r2, [r7, #208]	; 0xd0
    1ba8:	f102 0304 	add.w	r3, r2, #4
    1bac:	f8c7 30d0 	str.w	r3, [r7, #208]	; 0xd0
    1bb0:	6813      	ldr	r3, [r2, #0]
    1bb2:	f04f 0200 	mov.w	r2, #0
    1bb6:	4698      	mov	r8, r3
    1bb8:	4691      	mov	r9, r2
/home/palatrauss/optee_with_ftpm_ta/optee_os/lib/libutils/ext/snprintk.c:473 (discriminator 24)
    1bba:	e9c7 891e 	strd	r8, r9, [r7, #120]	; 0x78
/home/palatrauss/optee_with_ftpm_ta/optee_os/lib/libutils/ext/snprintk.c:474 (discriminator 24)
    1bbe:	f04f 0301 	mov.w	r3, #1
    1bc2:	65fb      	str	r3, [r7, #92]	; 0x5c
/home/palatrauss/optee_with_ftpm_ta/optee_os/lib/libutils/ext/snprintk.c:475 (discriminator 24)
    1bc4:	e08f      	b.n	1ce6 <kprintf+0xa3a>
/home/palatrauss/optee_with_ftpm_ta/optee_os/lib/libutils/ext/snprintk.c:477
    1bc6:	4bbc      	ldr	r3, [pc, #752]	; (1eb8 <kprintf+0xc0c>)
    1bc8:	447b      	add	r3, pc
    1bca:	66fb      	str	r3, [r7, #108]	; 0x6c
/home/palatrauss/optee_with_ftpm_ta/optee_os/lib/libutils/ext/snprintk.c:478
    1bcc:	e002      	b.n	1bd4 <kprintf+0x928>
/home/palatrauss/optee_with_ftpm_ta/optee_os/lib/libutils/ext/snprintk.c:480
    1bce:	4bbb      	ldr	r3, [pc, #748]	; (1ebc <kprintf+0xc10>)
    1bd0:	447b      	add	r3, pc
    1bd2:	66fb      	str	r3, [r7, #108]	; 0x6c
/home/palatrauss/optee_with_ftpm_ta/optee_os/lib/libutils/ext/snprintk.c:481
    1bd4:	6cfb      	ldr	r3, [r7, #76]	; 0x4c
    1bd6:	f003 0380 	and.w	r3, r3, #128	; 0x80
    1bda:	2b00      	cmp	r3, #0
    1bdc:	d00c      	beq.n	1bf8 <kprintf+0x94c>
    1bde:	f8d7 30d0 	ldr.w	r3, [r7, #208]	; 0xd0
    1be2:	f103 0307 	add.w	r3, r3, #7
    1be6:	f023 0207 	bic.w	r2, r3, #7
    1bea:	f102 0308 	add.w	r3, r2, #8
    1bee:	f8c7 30d0 	str.w	r3, [r7, #208]	; 0xd0
    1bf2:	e9d2 ab00 	ldrd	sl, fp, [r2]
    1bf6:	e062      	b.n	1cbe <kprintf+0xa12>
/home/palatrauss/optee_with_ftpm_ta/optee_os/lib/libutils/ext/snprintk.c:481 (discriminator 2)
    1bf8:	6cfb      	ldr	r3, [r7, #76]	; 0x4c
    1bfa:	f403 7380 	and.w	r3, r3, #256	; 0x100
    1bfe:	2b00      	cmp	r3, #0
    1c00:	d00b      	beq.n	1c1a <kprintf+0x96e>
/home/palatrauss/optee_with_ftpm_ta/optee_os/lib/libutils/ext/snprintk.c:481
    1c02:	f8d7 20d0 	ldr.w	r2, [r7, #208]	; 0xd0
    1c06:	f102 0304 	add.w	r3, r2, #4
    1c0a:	f8c7 30d0 	str.w	r3, [r7, #208]	; 0xd0
    1c0e:	6813      	ldr	r3, [r2, #0]
    1c10:	f04f 0200 	mov.w	r2, #0
    1c14:	469a      	mov	sl, r3
    1c16:	4693      	mov	fp, r2
    1c18:	e051      	b.n	1cbe <kprintf+0xa12>
/home/palatrauss/optee_with_ftpm_ta/optee_os/lib/libutils/ext/snprintk.c:481 (discriminator 5)
    1c1a:	6cfb      	ldr	r3, [r7, #76]	; 0x4c
    1c1c:	f403 7300 	and.w	r3, r3, #512	; 0x200
    1c20:	2b00      	cmp	r3, #0
    1c22:	d00b      	beq.n	1c3c <kprintf+0x990>
/home/palatrauss/optee_with_ftpm_ta/optee_os/lib/libutils/ext/snprintk.c:481
    1c24:	f8d7 20d0 	ldr.w	r2, [r7, #208]	; 0xd0
    1c28:	f102 0304 	add.w	r3, r2, #4
    1c2c:	f8c7 30d0 	str.w	r3, [r7, #208]	; 0xd0
    1c30:	6813      	ldr	r3, [r2, #0]
    1c32:	f04f 0200 	mov.w	r2, #0
    1c36:	469a      	mov	sl, r3
    1c38:	4693      	mov	fp, r2
    1c3a:	e040      	b.n	1cbe <kprintf+0xa12>
/home/palatrauss/optee_with_ftpm_ta/optee_os/lib/libutils/ext/snprintk.c:481 (discriminator 8)
    1c3c:	6cfb      	ldr	r3, [r7, #76]	; 0x4c
    1c3e:	f003 0320 	and.w	r3, r3, #32
    1c42:	2b00      	cmp	r3, #0
    1c44:	d00c      	beq.n	1c60 <kprintf+0x9b4>
/home/palatrauss/optee_with_ftpm_ta/optee_os/lib/libutils/ext/snprintk.c:481
    1c46:	f8d7 30d0 	ldr.w	r3, [r7, #208]	; 0xd0
    1c4a:	f103 0307 	add.w	r3, r3, #7
    1c4e:	f023 0207 	bic.w	r2, r3, #7
    1c52:	f102 0308 	add.w	r3, r2, #8
    1c56:	f8c7 30d0 	str.w	r3, [r7, #208]	; 0xd0
    1c5a:	e9d2 ab00 	ldrd	sl, fp, [r2]
    1c5e:	e02e      	b.n	1cbe <kprintf+0xa12>
/home/palatrauss/optee_with_ftpm_ta/optee_os/lib/libutils/ext/snprintk.c:481 (discriminator 11)
    1c60:	6cfb      	ldr	r3, [r7, #76]	; 0x4c
    1c62:	f003 0310 	and.w	r3, r3, #16
    1c66:	2b00      	cmp	r3, #0
    1c68:	d00b      	beq.n	1c82 <kprintf+0x9d6>
/home/palatrauss/optee_with_ftpm_ta/optee_os/lib/libutils/ext/snprintk.c:481
    1c6a:	f8d7 20d0 	ldr.w	r2, [r7, #208]	; 0xd0
    1c6e:	f102 0304 	add.w	r3, r2, #4
    1c72:	f8c7 30d0 	str.w	r3, [r7, #208]	; 0xd0
    1c76:	6813      	ldr	r3, [r2, #0]
    1c78:	f04f 0200 	mov.w	r2, #0
    1c7c:	469a      	mov	sl, r3
    1c7e:	4693      	mov	fp, r2
    1c80:	e01d      	b.n	1cbe <kprintf+0xa12>
/home/palatrauss/optee_with_ftpm_ta/optee_os/lib/libutils/ext/snprintk.c:481 (discriminator 14)
    1c82:	6cfb      	ldr	r3, [r7, #76]	; 0x4c
    1c84:	f003 0340 	and.w	r3, r3, #64	; 0x40
    1c88:	2b00      	cmp	r3, #0
    1c8a:	d00d      	beq.n	1ca8 <kprintf+0x9fc>
/home/palatrauss/optee_with_ftpm_ta/optee_os/lib/libutils/ext/snprintk.c:481
    1c8c:	f8d7 20d0 	ldr.w	r2, [r7, #208]	; 0xd0
    1c90:	f102 0304 	add.w	r3, r2, #4
    1c94:	f8c7 30d0 	str.w	r3, [r7, #208]	; 0xd0
    1c98:	6813      	ldr	r3, [r2, #0]
    1c9a:	b29b      	uxth	r3, r3
    1c9c:	b29b      	uxth	r3, r3
    1c9e:	f04f 0200 	mov.w	r2, #0
    1ca2:	469a      	mov	sl, r3
    1ca4:	4693      	mov	fp, r2
    1ca6:	e00a      	b.n	1cbe <kprintf+0xa12>
    1ca8:	f8d7 20d0 	ldr.w	r2, [r7, #208]	; 0xd0
    1cac:	f102 0304 	add.w	r3, r2, #4
    1cb0:	f8c7 30d0 	str.w	r3, [r7, #208]	; 0xd0
    1cb4:	6813      	ldr	r3, [r2, #0]
    1cb6:	f04f 0200 	mov.w	r2, #0
    1cba:	469a      	mov	sl, r3
    1cbc:	4693      	mov	fp, r2
/home/palatrauss/optee_with_ftpm_ta/optee_os/lib/libutils/ext/snprintk.c:481 (discriminator 24)
    1cbe:	e9c7 ab1e 	strd	sl, fp, [r7, #120]	; 0x78
/home/palatrauss/optee_with_ftpm_ta/optee_os/lib/libutils/ext/snprintk.c:482 (discriminator 24)
    1cc2:	f04f 0302 	mov.w	r3, #2
    1cc6:	65fb      	str	r3, [r7, #92]	; 0x5c
/home/palatrauss/optee_with_ftpm_ta/optee_os/lib/libutils/ext/snprintk.c:484 (discriminator 24)
    1cc8:	6cfb      	ldr	r3, [r7, #76]	; 0x4c
    1cca:	f003 0301 	and.w	r3, r3, #1
    1cce:	2b00      	cmp	r3, #0
    1cd0:	d008      	beq.n	1ce4 <kprintf+0xa38>
/home/palatrauss/optee_with_ftpm_ta/optee_os/lib/libutils/ext/snprintk.c:484 (discriminator 1)
    1cd2:	e9d7 231e 	ldrd	r2, r3, [r7, #120]	; 0x78
    1cd6:	4313      	orrs	r3, r2
    1cd8:	d004      	beq.n	1ce4 <kprintf+0xa38>
/home/palatrauss/optee_with_ftpm_ta/optee_os/lib/libutils/ext/snprintk.c:485
    1cda:	6cfb      	ldr	r3, [r7, #76]	; 0x4c
    1cdc:	f043 0302 	orr.w	r3, r3, #2
    1ce0:	64fb      	str	r3, [r7, #76]	; 0x4c
    1ce2:	e000      	b.n	1ce6 <kprintf+0xa3a>
/home/palatrauss/optee_with_ftpm_ta/optee_os/lib/libutils/ext/snprintk.c:488
    1ce4:	bf00      	nop
    1ce6:	f04f 0300 	mov.w	r3, #0
    1cea:	f887 303b 	strb.w	r3, [r7, #59]	; 0x3b
/home/palatrauss/optee_with_ftpm_ta/optee_os/lib/libutils/ext/snprintk.c:494
    1cee:	6dbb      	ldr	r3, [r7, #88]	; 0x58
    1cf0:	663b      	str	r3, [r7, #96]	; 0x60
    1cf2:	6e3b      	ldr	r3, [r7, #96]	; 0x60
    1cf4:	2b00      	cmp	r3, #0
    1cf6:	db03      	blt.n	1d00 <kprintf+0xa54>
/home/palatrauss/optee_with_ftpm_ta/optee_os/lib/libutils/ext/snprintk.c:495
    1cf8:	6cfb      	ldr	r3, [r7, #76]	; 0x4c
    1cfa:	f423 6380 	bic.w	r3, r3, #1024	; 0x400
    1cfe:	64fb      	str	r3, [r7, #76]	; 0x4c
/home/palatrauss/optee_with_ftpm_ta/optee_os/lib/libutils/ext/snprintk.c:502
    1d00:	f107 0384 	add.w	r3, r7, #132	; 0x84
    1d04:	f103 0325 	add.w	r3, r3, #37	; 0x25
    1d08:	64bb      	str	r3, [r7, #72]	; 0x48
/home/palatrauss/optee_with_ftpm_ta/optee_os/lib/libutils/ext/snprintk.c:503
    1d0a:	e9d7 231e 	ldrd	r2, r3, [r7, #120]	; 0x78
    1d0e:	4313      	orrs	r3, r2
    1d10:	d103      	bne.n	1d1a <kprintf+0xa6e>
/home/palatrauss/optee_with_ftpm_ta/optee_os/lib/libutils/ext/snprintk.c:503 (discriminator 1)
    1d12:	6dbb      	ldr	r3, [r7, #88]	; 0x58
    1d14:	2b00      	cmp	r3, #0
    1d16:	f000 809c 	beq.w	1e52 <kprintf+0xba6>
    1d1a:	6dfb      	ldr	r3, [r7, #92]	; 0x5c
    1d1c:	2b02      	cmp	r3, #2
    1d1e:	d06e      	beq.n	1dfe <kprintf+0xb52>
    1d20:	6dfb      	ldr	r3, [r7, #92]	; 0x5c
    1d22:	2b02      	cmp	r3, #2
    1d24:	f200 808a 	bhi.w	1e3c <kprintf+0xb90>
    1d28:	6dfb      	ldr	r3, [r7, #92]	; 0x5c
    1d2a:	2b00      	cmp	r3, #0
    1d2c:	d004      	beq.n	1d38 <kprintf+0xa8c>
    1d2e:	6dfb      	ldr	r3, [r7, #92]	; 0x5c
    1d30:	2b01      	cmp	r3, #1
    1d32:	d051      	beq.n	1dd8 <kprintf+0xb2c>
    1d34:	e082      	b.n	1e3c <kprintf+0xb90>
/home/palatrauss/optee_with_ftpm_ta/optee_os/lib/libutils/ext/snprintk.c:510
    1d36:	bf00      	nop
/home/palatrauss/optee_with_ftpm_ta/optee_os/lib/libutils/ext/snprintk.c:512 (discriminator 1)
    1d38:	f897 3078 	ldrb.w	r3, [r7, #120]	; 0x78
    1d3c:	f003 0307 	and.w	r3, r3, #7
    1d40:	b2da      	uxtb	r2, r3
    1d42:	6cbb      	ldr	r3, [r7, #72]	; 0x48
    1d44:	f103 33ff 	add.w	r3, r3, #4294967295	; 0xffffffff
    1d48:	64bb      	str	r3, [r7, #72]	; 0x48
    1d4a:	f102 0330 	add.w	r3, r2, #48	; 0x30
    1d4e:	b2db      	uxtb	r3, r3
    1d50:	6cba      	ldr	r2, [r7, #72]	; 0x48
    1d52:	7013      	strb	r3, [r2, #0]
/home/palatrauss/optee_with_ftpm_ta/optee_os/lib/libutils/ext/snprintk.c:513 (discriminator 1)
    1d54:	e9d7 231e 	ldrd	r2, r3, [r7, #120]	; 0x78
    1d58:	f04f 0000 	mov.w	r0, #0
    1d5c:	f04f 0100 	mov.w	r1, #0
    1d60:	ea4f 00d2 	mov.w	r0, r2, lsr #3
    1d64:	ea40 7043 	orr.w	r0, r0, r3, lsl #29
    1d68:	ea4f 01d3 	mov.w	r1, r3, lsr #3
    1d6c:	e9c7 011e 	strd	r0, r1, [r7, #120]	; 0x78
/home/palatrauss/optee_with_ftpm_ta/optee_os/lib/libutils/ext/snprintk.c:514 (discriminator 1)
    1d70:	e9d7 231e 	ldrd	r2, r3, [r7, #120]	; 0x78
    1d74:	4313      	orrs	r3, r2
    1d76:	d1de      	bne.n	1d36 <kprintf+0xa8a>
/home/palatrauss/optee_with_ftpm_ta/optee_os/lib/libutils/ext/snprintk.c:516
    1d78:	6cfb      	ldr	r3, [r7, #76]	; 0x4c
    1d7a:	f003 0301 	and.w	r3, r3, #1
    1d7e:	2b00      	cmp	r3, #0
    1d80:	d066      	beq.n	1e50 <kprintf+0xba4>
/home/palatrauss/optee_with_ftpm_ta/optee_os/lib/libutils/ext/snprintk.c:516 (discriminator 1)
    1d82:	6cbb      	ldr	r3, [r7, #72]	; 0x48
    1d84:	781b      	ldrb	r3, [r3, #0]
    1d86:	2b30      	cmp	r3, #48	; 0x30
    1d88:	d062      	beq.n	1e50 <kprintf+0xba4>
/home/palatrauss/optee_with_ftpm_ta/optee_os/lib/libutils/ext/snprintk.c:517
    1d8a:	6cbb      	ldr	r3, [r7, #72]	; 0x48
    1d8c:	f103 33ff 	add.w	r3, r3, #4294967295	; 0xffffffff
    1d90:	64bb      	str	r3, [r7, #72]	; 0x48
    1d92:	6cba      	ldr	r2, [r7, #72]	; 0x48
    1d94:	f04f 0330 	mov.w	r3, #48	; 0x30
    1d98:	7013      	strb	r3, [r2, #0]
/home/palatrauss/optee_with_ftpm_ta/optee_os/lib/libutils/ext/snprintk.c:518
    1d9a:	e059      	b.n	1e50 <kprintf+0xba4>
/home/palatrauss/optee_with_ftpm_ta/optee_os/lib/libutils/ext/snprintk.c:523
    1d9c:	e9d7 011e 	ldrd	r0, r1, [r7, #120]	; 0x78
    1da0:	f04f 020a 	mov.w	r2, #10
    1da4:	f04f 0300 	mov.w	r3, #0
    1da8:	f000 e9d0 	blx	214c <__aeabi_uldivmod>
    1dac:	b2d2      	uxtb	r2, r2
    1dae:	6cbb      	ldr	r3, [r7, #72]	; 0x48
    1db0:	f103 33ff 	add.w	r3, r3, #4294967295	; 0xffffffff
    1db4:	64bb      	str	r3, [r7, #72]	; 0x48
    1db6:	f102 0330 	add.w	r3, r2, #48	; 0x30
    1dba:	b2db      	uxtb	r3, r3
    1dbc:	6cba      	ldr	r2, [r7, #72]	; 0x48
    1dbe:	7013      	strb	r3, [r2, #0]
/home/palatrauss/optee_with_ftpm_ta/optee_os/lib/libutils/ext/snprintk.c:524
    1dc0:	e9d7 011e 	ldrd	r0, r1, [r7, #120]	; 0x78
    1dc4:	f04f 020a 	mov.w	r2, #10
    1dc8:	f04f 0300 	mov.w	r3, #0
    1dcc:	f000 e9be 	blx	214c <__aeabi_uldivmod>
    1dd0:	4602      	mov	r2, r0
    1dd2:	460b      	mov	r3, r1
    1dd4:	e9c7 231e 	strd	r2, r3, [r7, #120]	; 0x78
/home/palatrauss/optee_with_ftpm_ta/optee_os/lib/libutils/ext/snprintk.c:522
    1dd8:	e9d7 231e 	ldrd	r2, r3, [r7, #120]	; 0x78
    1ddc:	2a0a      	cmp	r2, #10
    1dde:	f173 0300 	sbcs.w	r3, r3, #0
    1de2:	d2db      	bcs.n	1d9c <kprintf+0xaf0>
/home/palatrauss/optee_with_ftpm_ta/optee_os/lib/libutils/ext/snprintk.c:526
    1de4:	f897 2078 	ldrb.w	r2, [r7, #120]	; 0x78
    1de8:	6cbb      	ldr	r3, [r7, #72]	; 0x48
    1dea:	f103 33ff 	add.w	r3, r3, #4294967295	; 0xffffffff
    1dee:	64bb      	str	r3, [r7, #72]	; 0x48
    1df0:	f102 0330 	add.w	r3, r2, #48	; 0x30
    1df4:	b2db      	uxtb	r3, r3
    1df6:	6cba      	ldr	r2, [r7, #72]	; 0x48
    1df8:	7013      	strb	r3, [r2, #0]
/home/palatrauss/optee_with_ftpm_ta/optee_os/lib/libutils/ext/snprintk.c:527
    1dfa:	e02a      	b.n	1e52 <kprintf+0xba6>
/home/palatrauss/optee_with_ftpm_ta/optee_os/lib/libutils/ext/snprintk.c:529
    1dfc:	bf00      	nop
/home/palatrauss/optee_with_ftpm_ta/optee_os/lib/libutils/ext/snprintk.c:531 (discriminator 1)
    1dfe:	6fbb      	ldr	r3, [r7, #120]	; 0x78
    1e00:	f003 020f 	and.w	r2, r3, #15
    1e04:	6efb      	ldr	r3, [r7, #108]	; 0x6c
    1e06:	441a      	add	r2, r3
    1e08:	6cbb      	ldr	r3, [r7, #72]	; 0x48
    1e0a:	f103 33ff 	add.w	r3, r3, #4294967295	; 0xffffffff
    1e0e:	64bb      	str	r3, [r7, #72]	; 0x48
    1e10:	7813      	ldrb	r3, [r2, #0]
    1e12:	6cba      	ldr	r2, [r7, #72]	; 0x48
    1e14:	7013      	strb	r3, [r2, #0]
/home/palatrauss/optee_with_ftpm_ta/optee_os/lib/libutils/ext/snprintk.c:532 (discriminator 1)
    1e16:	e9d7 231e 	ldrd	r2, r3, [r7, #120]	; 0x78
    1e1a:	f04f 0000 	mov.w	r0, #0
    1e1e:	f04f 0100 	mov.w	r1, #0
    1e22:	ea4f 1012 	mov.w	r0, r2, lsr #4
    1e26:	ea40 7003 	orr.w	r0, r0, r3, lsl #28
    1e2a:	ea4f 1113 	mov.w	r1, r3, lsr #4
    1e2e:	e9c7 011e 	strd	r0, r1, [r7, #120]	; 0x78
/home/palatrauss/optee_with_ftpm_ta/optee_os/lib/libutils/ext/snprintk.c:533 (discriminator 1)
    1e32:	e9d7 231e 	ldrd	r2, r3, [r7, #120]	; 0x78
    1e36:	4313      	orrs	r3, r2
    1e38:	d1e0      	bne.n	1dfc <kprintf+0xb50>
/home/palatrauss/optee_with_ftpm_ta/optee_os/lib/libutils/ext/snprintk.c:534
    1e3a:	e00a      	b.n	1e52 <kprintf+0xba6>
/home/palatrauss/optee_with_ftpm_ta/optee_os/lib/libutils/ext/snprintk.c:538
    1e3c:	4b20      	ldr	r3, [pc, #128]	; (1ec0 <kprintf+0xc14>)
    1e3e:	447b      	add	r3, pc
    1e40:	64bb      	str	r3, [r7, #72]	; 0x48
/home/palatrauss/optee_with_ftpm_ta/optee_os/lib/libutils/ext/snprintk.c:539
    1e42:	6cb8      	ldr	r0, [r7, #72]	; 0x48
    1e44:	f018 f984 	bl	1a150 <strlen>
    1e48:	4603      	mov	r3, r0
    1e4a:	66bb      	str	r3, [r7, #104]	; 0x68
/home/palatrauss/optee_with_ftpm_ta/optee_os/lib/libutils/ext/snprintk.c:540
    1e4c:	bf00      	nop
/home/palatrauss/optee_with_ftpm_ta/optee_os/lib/libutils/ext/snprintk.c:545
    1e4e:	e01c      	b.n	1e8a <kprintf+0xbde>
/home/palatrauss/optee_with_ftpm_ta/optee_os/lib/libutils/ext/snprintk.c:518
    1e50:	bf00      	nop
/home/palatrauss/optee_with_ftpm_ta/optee_os/lib/libutils/ext/snprintk.c:543
    1e52:	f107 0284 	add.w	r2, r7, #132	; 0x84
    1e56:	f102 0225 	add.w	r2, r2, #37	; 0x25
    1e5a:	6cbb      	ldr	r3, [r7, #72]	; 0x48
    1e5c:	eba2 0303 	sub.w	r3, r2, r3
    1e60:	66bb      	str	r3, [r7, #104]	; 0x68
/home/palatrauss/optee_with_ftpm_ta/optee_os/lib/libutils/ext/snprintk.c:545
    1e62:	e012      	b.n	1e8a <kprintf+0xbde>
/home/palatrauss/optee_with_ftpm_ta/optee_os/lib/libutils/ext/snprintk.c:547
    1e64:	6c3b      	ldr	r3, [r7, #64]	; 0x40
    1e66:	2b00      	cmp	r3, #0
    1e68:	f000 813b 	beq.w	20e2 <kprintf+0xe36>
/home/palatrauss/optee_with_ftpm_ta/optee_os/lib/libutils/ext/snprintk.c:550
    1e6c:	f107 0384 	add.w	r3, r7, #132	; 0x84
    1e70:	64bb      	str	r3, [r7, #72]	; 0x48
/home/palatrauss/optee_with_ftpm_ta/optee_os/lib/libutils/ext/snprintk.c:551
    1e72:	6c3b      	ldr	r3, [r7, #64]	; 0x40
    1e74:	b2db      	uxtb	r3, r3
    1e76:	6cba      	ldr	r2, [r7, #72]	; 0x48
    1e78:	7013      	strb	r3, [r2, #0]
/home/palatrauss/optee_with_ftpm_ta/optee_os/lib/libutils/ext/snprintk.c:552
    1e7a:	f04f 0301 	mov.w	r3, #1
    1e7e:	66bb      	str	r3, [r7, #104]	; 0x68
/home/palatrauss/optee_with_ftpm_ta/optee_os/lib/libutils/ext/snprintk.c:553
    1e80:	f04f 0300 	mov.w	r3, #0
    1e84:	f887 303b 	strb.w	r3, [r7, #59]	; 0x3b
/home/palatrauss/optee_with_ftpm_ta/optee_os/lib/libutils/ext/snprintk.c:554
    1e88:	bf00      	nop
/home/palatrauss/optee_with_ftpm_ta/optee_os/lib/libutils/ext/snprintk.c:571
    1e8a:	6eba      	ldr	r2, [r7, #104]	; 0x68
    1e8c:	6e3b      	ldr	r3, [r7, #96]	; 0x60
    1e8e:	4293      	cmp	r3, r2
    1e90:	bfb8      	it	lt
    1e92:	4613      	movlt	r3, r2
    1e94:	667b      	str	r3, [r7, #100]	; 0x64
/home/palatrauss/optee_with_ftpm_ta/optee_os/lib/libutils/ext/snprintk.c:572
    1e96:	f897 303b 	ldrb.w	r3, [r7, #59]	; 0x3b
    1e9a:	2b00      	cmp	r3, #0
    1e9c:	d012      	beq.n	1ec4 <kprintf+0xc18>
/home/palatrauss/optee_with_ftpm_ta/optee_os/lib/libutils/ext/snprintk.c:573
    1e9e:	6e7b      	ldr	r3, [r7, #100]	; 0x64
    1ea0:	f103 0301 	add.w	r3, r3, #1
    1ea4:	667b      	str	r3, [r7, #100]	; 0x64
    1ea6:	e016      	b.n	1ed6 <kprintf+0xc2a>
    1ea8:	0001ddb8 	.word	0x0001ddb8
    1eac:	0000000c 	.word	0x0000000c
    1eb0:	00019118 	.word	0x00019118
    1eb4:	00019146 	.word	0x00019146
    1eb8:	00018fac 	.word	0x00018fac
    1ebc:	00018f90 	.word	0x00018f90
    1ec0:	00018d86 	.word	0x00018d86
/home/palatrauss/optee_with_ftpm_ta/optee_os/lib/libutils/ext/snprintk.c:574
    1ec4:	6cfb      	ldr	r3, [r7, #76]	; 0x4c
    1ec6:	f003 0302 	and.w	r3, r3, #2
    1eca:	2b00      	cmp	r3, #0
    1ecc:	d003      	beq.n	1ed6 <kprintf+0xc2a>
/home/palatrauss/optee_with_ftpm_ta/optee_os/lib/libutils/ext/snprintk.c:575
    1ece:	6e7b      	ldr	r3, [r7, #100]	; 0x64
    1ed0:	f103 0302 	add.w	r3, r3, #2
    1ed4:	667b      	str	r3, [r7, #100]	; 0x64
/home/palatrauss/optee_with_ftpm_ta/optee_os/lib/libutils/ext/snprintk.c:578
    1ed6:	6e7a      	ldr	r2, [r7, #100]	; 0x64
    1ed8:	6d7b      	ldr	r3, [r7, #84]	; 0x54
    1eda:	429a      	cmp	r2, r3
    1edc:	bfb8      	it	lt
    1ede:	461a      	movlt	r2, r3
    1ee0:	6d3b      	ldr	r3, [r7, #80]	; 0x50
    1ee2:	4413      	add	r3, r2
    1ee4:	653b      	str	r3, [r7, #80]	; 0x50
/home/palatrauss/optee_with_ftpm_ta/optee_os/lib/libutils/ext/snprintk.c:581
    1ee6:	6cfa      	ldr	r2, [r7, #76]	; 0x4c
    1ee8:	f240 4304 	movw	r3, #1028	; 0x404
    1eec:	ea03 0302 	and.w	r3, r3, r2
    1ef0:	2b00      	cmp	r3, #0
    1ef2:	d11f      	bne.n	1f34 <kprintf+0xc88>
/home/palatrauss/optee_with_ftpm_ta/optee_os/lib/libutils/ext/snprintk.c:582
    1ef4:	6d7a      	ldr	r2, [r7, #84]	; 0x54
    1ef6:	6e7b      	ldr	r3, [r7, #100]	; 0x64
    1ef8:	eba2 0303 	sub.w	r3, r2, r3
    1efc:	647b      	str	r3, [r7, #68]	; 0x44
/home/palatrauss/optee_with_ftpm_ta/optee_os/lib/libutils/ext/snprintk.c:583
    1efe:	e013      	b.n	1f28 <kprintf+0xc7c>
/home/palatrauss/optee_with_ftpm_ta/optee_os/lib/libutils/ext/snprintk.c:584
    1f00:	6b3b      	ldr	r3, [r7, #48]	; 0x30
    1f02:	2b08      	cmp	r3, #8
    1f04:	d110      	bne.n	1f28 <kprintf+0xc7c>
/home/palatrauss/optee_with_ftpm_ta/optee_os/lib/libutils/ext/snprintk.c:584 (discriminator 1)
    1f06:	6abb      	ldr	r3, [r7, #40]	; 0x28
    1f08:	2b00      	cmp	r3, #0
    1f0a:	d00d      	beq.n	1f28 <kprintf+0xc7c>
/home/palatrauss/optee_with_ftpm_ta/optee_os/lib/libutils/ext/snprintk.c:584 (discriminator 2)
    1f0c:	6afb      	ldr	r3, [r7, #44]	; 0x2c
    1f0e:	2b00      	cmp	r3, #0
    1f10:	d003      	beq.n	1f1a <kprintf+0xc6e>
/home/palatrauss/optee_with_ftpm_ta/optee_os/lib/libutils/ext/snprintk.c:584 (discriminator 4)
    1f12:	6aba      	ldr	r2, [r7, #40]	; 0x28
    1f14:	6f3b      	ldr	r3, [r7, #112]	; 0x70
    1f16:	429a      	cmp	r2, r3
    1f18:	d206      	bcs.n	1f28 <kprintf+0xc7c>
/home/palatrauss/optee_with_ftpm_ta/optee_os/lib/libutils/ext/snprintk.c:584 (discriminator 5)
    1f1a:	6aba      	ldr	r2, [r7, #40]	; 0x28
    1f1c:	f102 0301 	add.w	r3, r2, #1
    1f20:	62bb      	str	r3, [r7, #40]	; 0x28
    1f22:	f04f 0320 	mov.w	r3, #32
    1f26:	7013      	strb	r3, [r2, #0]
/home/palatrauss/optee_with_ftpm_ta/optee_os/lib/libutils/ext/snprintk.c:583
    1f28:	6c7a      	ldr	r2, [r7, #68]	; 0x44
    1f2a:	f102 33ff 	add.w	r3, r2, #4294967295	; 0xffffffff
    1f2e:	647b      	str	r3, [r7, #68]	; 0x44
    1f30:	2a00      	cmp	r2, #0
    1f32:	dce5      	bgt.n	1f00 <kprintf+0xc54>
/home/palatrauss/optee_with_ftpm_ta/optee_os/lib/libutils/ext/snprintk.c:588
    1f34:	f897 303b 	ldrb.w	r3, [r7, #59]	; 0x3b
    1f38:	2b00      	cmp	r3, #0
    1f3a:	d014      	beq.n	1f66 <kprintf+0xcba>
/home/palatrauss/optee_with_ftpm_ta/optee_os/lib/libutils/ext/snprintk.c:589
    1f3c:	6b3b      	ldr	r3, [r7, #48]	; 0x30
    1f3e:	2b08      	cmp	r3, #8
    1f40:	d13e      	bne.n	1fc0 <kprintf+0xd14>
/home/palatrauss/optee_with_ftpm_ta/optee_os/lib/libutils/ext/snprintk.c:589 (discriminator 1)
    1f42:	6abb      	ldr	r3, [r7, #40]	; 0x28
    1f44:	2b00      	cmp	r3, #0
    1f46:	d03b      	beq.n	1fc0 <kprintf+0xd14>
/home/palatrauss/optee_with_ftpm_ta/optee_os/lib/libutils/ext/snprintk.c:589 (discriminator 2)
    1f48:	6afb      	ldr	r3, [r7, #44]	; 0x2c
    1f4a:	2b00      	cmp	r3, #0
    1f4c:	d003      	beq.n	1f56 <kprintf+0xcaa>
/home/palatrauss/optee_with_ftpm_ta/optee_os/lib/libutils/ext/snprintk.c:589 (discriminator 4)
    1f4e:	6aba      	ldr	r2, [r7, #40]	; 0x28
    1f50:	6f3b      	ldr	r3, [r7, #112]	; 0x70
    1f52:	429a      	cmp	r2, r3
    1f54:	d234      	bcs.n	1fc0 <kprintf+0xd14>
/home/palatrauss/optee_with_ftpm_ta/optee_os/lib/libutils/ext/snprintk.c:589 (discriminator 5)
    1f56:	6aba      	ldr	r2, [r7, #40]	; 0x28
    1f58:	f102 0301 	add.w	r3, r2, #1
    1f5c:	62bb      	str	r3, [r7, #40]	; 0x28
    1f5e:	f897 303b 	ldrb.w	r3, [r7, #59]	; 0x3b
    1f62:	7013      	strb	r3, [r2, #0]
    1f64:	e02c      	b.n	1fc0 <kprintf+0xd14>
/home/palatrauss/optee_with_ftpm_ta/optee_os/lib/libutils/ext/snprintk.c:590
    1f66:	6cfb      	ldr	r3, [r7, #76]	; 0x4c
    1f68:	f003 0302 	and.w	r3, r3, #2
    1f6c:	2b00      	cmp	r3, #0
    1f6e:	d027      	beq.n	1fc0 <kprintf+0xd14>
/home/palatrauss/optee_with_ftpm_ta/optee_os/lib/libutils/ext/snprintk.c:591
    1f70:	6b3b      	ldr	r3, [r7, #48]	; 0x30
    1f72:	2b08      	cmp	r3, #8
    1f74:	d110      	bne.n	1f98 <kprintf+0xcec>
/home/palatrauss/optee_with_ftpm_ta/optee_os/lib/libutils/ext/snprintk.c:591 (discriminator 1)
    1f76:	6abb      	ldr	r3, [r7, #40]	; 0x28
    1f78:	2b00      	cmp	r3, #0
    1f7a:	d00d      	beq.n	1f98 <kprintf+0xcec>
/home/palatrauss/optee_with_ftpm_ta/optee_os/lib/libutils/ext/snprintk.c:591 (discriminator 2)
    1f7c:	6afb      	ldr	r3, [r7, #44]	; 0x2c
    1f7e:	2b00      	cmp	r3, #0
    1f80:	d003      	beq.n	1f8a <kprintf+0xcde>
/home/palatrauss/optee_with_ftpm_ta/optee_os/lib/libutils/ext/snprintk.c:591 (discriminator 4)
    1f82:	6aba      	ldr	r2, [r7, #40]	; 0x28
    1f84:	6f3b      	ldr	r3, [r7, #112]	; 0x70
    1f86:	429a      	cmp	r2, r3
    1f88:	d206      	bcs.n	1f98 <kprintf+0xcec>
/home/palatrauss/optee_with_ftpm_ta/optee_os/lib/libutils/ext/snprintk.c:591 (discriminator 5)
    1f8a:	6aba      	ldr	r2, [r7, #40]	; 0x28
    1f8c:	f102 0301 	add.w	r3, r2, #1
    1f90:	62bb      	str	r3, [r7, #40]	; 0x28
    1f92:	f04f 0330 	mov.w	r3, #48	; 0x30
    1f96:	7013      	strb	r3, [r2, #0]
/home/palatrauss/optee_with_ftpm_ta/optee_os/lib/libutils/ext/snprintk.c:592
    1f98:	6b3b      	ldr	r3, [r7, #48]	; 0x30
    1f9a:	2b08      	cmp	r3, #8
    1f9c:	d110      	bne.n	1fc0 <kprintf+0xd14>
/home/palatrauss/optee_with_ftpm_ta/optee_os/lib/libutils/ext/snprintk.c:592 (discriminator 1)
    1f9e:	6abb      	ldr	r3, [r7, #40]	; 0x28
    1fa0:	2b00      	cmp	r3, #0
    1fa2:	d00d      	beq.n	1fc0 <kprintf+0xd14>
/home/palatrauss/optee_with_ftpm_ta/optee_os/lib/libutils/ext/snprintk.c:592 (discriminator 2)
    1fa4:	6afb      	ldr	r3, [r7, #44]	; 0x2c
    1fa6:	2b00      	cmp	r3, #0
    1fa8:	d003      	beq.n	1fb2 <kprintf+0xd06>
/home/palatrauss/optee_with_ftpm_ta/optee_os/lib/libutils/ext/snprintk.c:592 (discriminator 4)
    1faa:	6aba      	ldr	r2, [r7, #40]	; 0x28
    1fac:	6f3b      	ldr	r3, [r7, #112]	; 0x70
    1fae:	429a      	cmp	r2, r3
    1fb0:	d206      	bcs.n	1fc0 <kprintf+0xd14>
/home/palatrauss/optee_with_ftpm_ta/optee_os/lib/libutils/ext/snprintk.c:592 (discriminator 5)
    1fb2:	6aba      	ldr	r2, [r7, #40]	; 0x28
    1fb4:	f102 0301 	add.w	r3, r2, #1
    1fb8:	62bb      	str	r3, [r7, #40]	; 0x28
    1fba:	6c3b      	ldr	r3, [r7, #64]	; 0x40
    1fbc:	b2db      	uxtb	r3, r3
    1fbe:	7013      	strb	r3, [r2, #0]
/home/palatrauss/optee_with_ftpm_ta/optee_os/lib/libutils/ext/snprintk.c:596
    1fc0:	6cfa      	ldr	r2, [r7, #76]	; 0x4c
    1fc2:	f240 4304 	movw	r3, #1028	; 0x404
    1fc6:	ea03 0302 	and.w	r3, r3, r2
    1fca:	f5b3 6f80 	cmp.w	r3, #1024	; 0x400
    1fce:	d11f      	bne.n	2010 <kprintf+0xd64>
/home/palatrauss/optee_with_ftpm_ta/optee_os/lib/libutils/ext/snprintk.c:597
    1fd0:	6d7a      	ldr	r2, [r7, #84]	; 0x54
    1fd2:	6e7b      	ldr	r3, [r7, #100]	; 0x64
    1fd4:	eba2 0303 	sub.w	r3, r2, r3
    1fd8:	647b      	str	r3, [r7, #68]	; 0x44
/home/palatrauss/optee_with_ftpm_ta/optee_os/lib/libutils/ext/snprintk.c:598
    1fda:	e013      	b.n	2004 <kprintf+0xd58>
/home/palatrauss/optee_with_ftpm_ta/optee_os/lib/libutils/ext/snprintk.c:599
    1fdc:	6b3b      	ldr	r3, [r7, #48]	; 0x30
    1fde:	2b08      	cmp	r3, #8
    1fe0:	d110      	bne.n	2004 <kprintf+0xd58>
/home/palatrauss/optee_with_ftpm_ta/optee_os/lib/libutils/ext/snprintk.c:599 (discriminator 1)
    1fe2:	6abb      	ldr	r3, [r7, #40]	; 0x28
    1fe4:	2b00      	cmp	r3, #0
    1fe6:	d00d      	beq.n	2004 <kprintf+0xd58>
/home/palatrauss/optee_with_ftpm_ta/optee_os/lib/libutils/ext/snprintk.c:599 (discriminator 2)
    1fe8:	6afb      	ldr	r3, [r7, #44]	; 0x2c
    1fea:	2b00      	cmp	r3, #0
    1fec:	d003      	beq.n	1ff6 <kprintf+0xd4a>
/home/palatrauss/optee_with_ftpm_ta/optee_os/lib/libutils/ext/snprintk.c:599 (discriminator 4)
    1fee:	6aba      	ldr	r2, [r7, #40]	; 0x28
    1ff0:	6f3b      	ldr	r3, [r7, #112]	; 0x70
    1ff2:	429a      	cmp	r2, r3
    1ff4:	d206      	bcs.n	2004 <kprintf+0xd58>
/home/palatrauss/optee_with_ftpm_ta/optee_os/lib/libutils/ext/snprintk.c:599 (discriminator 5)
    1ff6:	6aba      	ldr	r2, [r7, #40]	; 0x28
    1ff8:	f102 0301 	add.w	r3, r2, #1
    1ffc:	62bb      	str	r3, [r7, #40]	; 0x28
    1ffe:	f04f 0330 	mov.w	r3, #48	; 0x30
    2002:	7013      	strb	r3, [r2, #0]
/home/palatrauss/optee_with_ftpm_ta/optee_os/lib/libutils/ext/snprintk.c:598
    2004:	6c7a      	ldr	r2, [r7, #68]	; 0x44
    2006:	f102 33ff 	add.w	r3, r2, #4294967295	; 0xffffffff
    200a:	647b      	str	r3, [r7, #68]	; 0x44
    200c:	2a00      	cmp	r2, #0
    200e:	dce5      	bgt.n	1fdc <kprintf+0xd30>
/home/palatrauss/optee_with_ftpm_ta/optee_os/lib/libutils/ext/snprintk.c:603
    2010:	6e3a      	ldr	r2, [r7, #96]	; 0x60
    2012:	6ebb      	ldr	r3, [r7, #104]	; 0x68
    2014:	eba2 0303 	sub.w	r3, r2, r3
    2018:	647b      	str	r3, [r7, #68]	; 0x44
/home/palatrauss/optee_with_ftpm_ta/optee_os/lib/libutils/ext/snprintk.c:604
    201a:	e013      	b.n	2044 <kprintf+0xd98>
/home/palatrauss/optee_with_ftpm_ta/optee_os/lib/libutils/ext/snprintk.c:605
    201c:	6b3b      	ldr	r3, [r7, #48]	; 0x30
    201e:	2b08      	cmp	r3, #8
    2020:	d110      	bne.n	2044 <kprintf+0xd98>
/home/palatrauss/optee_with_ftpm_ta/optee_os/lib/libutils/ext/snprintk.c:605 (discriminator 1)
    2022:	6abb      	ldr	r3, [r7, #40]	; 0x28
    2024:	2b00      	cmp	r3, #0
    2026:	d00d      	beq.n	2044 <kprintf+0xd98>
/home/palatrauss/optee_with_ftpm_ta/optee_os/lib/libutils/ext/snprintk.c:605 (discriminator 2)
    2028:	6afb      	ldr	r3, [r7, #44]	; 0x2c
    202a:	2b00      	cmp	r3, #0
    202c:	d003      	beq.n	2036 <kprintf+0xd8a>
/home/palatrauss/optee_with_ftpm_ta/optee_os/lib/libutils/ext/snprintk.c:605 (discriminator 4)
    202e:	6aba      	ldr	r2, [r7, #40]	; 0x28
    2030:	6f3b      	ldr	r3, [r7, #112]	; 0x70
    2032:	429a      	cmp	r2, r3
    2034:	d206      	bcs.n	2044 <kprintf+0xd98>
/home/palatrauss/optee_with_ftpm_ta/optee_os/lib/libutils/ext/snprintk.c:605 (discriminator 5)
    2036:	6aba      	ldr	r2, [r7, #40]	; 0x28
    2038:	f102 0301 	add.w	r3, r2, #1
    203c:	62bb      	str	r3, [r7, #40]	; 0x28
    203e:	f04f 0330 	mov.w	r3, #48	; 0x30
    2042:	7013      	strb	r3, [r2, #0]
/home/palatrauss/optee_with_ftpm_ta/optee_os/lib/libutils/ext/snprintk.c:604
    2044:	6c7a      	ldr	r2, [r7, #68]	; 0x44
    2046:	f102 33ff 	add.w	r3, r2, #4294967295	; 0xffffffff
    204a:	647b      	str	r3, [r7, #68]	; 0x44
    204c:	2a00      	cmp	r2, #0
    204e:	dce5      	bgt.n	201c <kprintf+0xd70>
/home/palatrauss/optee_with_ftpm_ta/optee_os/lib/libutils/ext/snprintk.c:608
    2050:	e017      	b.n	2082 <kprintf+0xdd6>
/home/palatrauss/optee_with_ftpm_ta/optee_os/lib/libutils/ext/snprintk.c:609
    2052:	6b3b      	ldr	r3, [r7, #48]	; 0x30
    2054:	2b08      	cmp	r3, #8
    2056:	d110      	bne.n	207a <kprintf+0xdce>
/home/palatrauss/optee_with_ftpm_ta/optee_os/lib/libutils/ext/snprintk.c:609 (discriminator 1)
    2058:	6abb      	ldr	r3, [r7, #40]	; 0x28
    205a:	2b00      	cmp	r3, #0
    205c:	d00d      	beq.n	207a <kprintf+0xdce>
/home/palatrauss/optee_with_ftpm_ta/optee_os/lib/libutils/ext/snprintk.c:609 (discriminator 2)
    205e:	6afb      	ldr	r3, [r7, #44]	; 0x2c
    2060:	2b00      	cmp	r3, #0
    2062:	d003      	beq.n	206c <kprintf+0xdc0>
/home/palatrauss/optee_with_ftpm_ta/optee_os/lib/libutils/ext/snprintk.c:609 (discriminator 4)
    2064:	6aba      	ldr	r2, [r7, #40]	; 0x28
    2066:	6f3b      	ldr	r3, [r7, #112]	; 0x70
    2068:	429a      	cmp	r2, r3
    206a:	d206      	bcs.n	207a <kprintf+0xdce>
/home/palatrauss/optee_with_ftpm_ta/optee_os/lib/libutils/ext/snprintk.c:609 (discriminator 5)
    206c:	6aba      	ldr	r2, [r7, #40]	; 0x28
    206e:	f102 0301 	add.w	r3, r2, #1
    2072:	62bb      	str	r3, [r7, #40]	; 0x28
    2074:	6cbb      	ldr	r3, [r7, #72]	; 0x48
    2076:	781b      	ldrb	r3, [r3, #0]
    2078:	7013      	strb	r3, [r2, #0]
/home/palatrauss/optee_with_ftpm_ta/optee_os/lib/libutils/ext/snprintk.c:608
    207a:	6cbb      	ldr	r3, [r7, #72]	; 0x48
    207c:	f103 0301 	add.w	r3, r3, #1
    2080:	64bb      	str	r3, [r7, #72]	; 0x48
/home/palatrauss/optee_with_ftpm_ta/optee_os/lib/libutils/ext/snprintk.c:608 (discriminator 1)
    2082:	6eba      	ldr	r2, [r7, #104]	; 0x68
    2084:	f102 33ff 	add.w	r3, r2, #4294967295	; 0xffffffff
    2088:	66bb      	str	r3, [r7, #104]	; 0x68
    208a:	2a00      	cmp	r2, #0
    208c:	d1e1      	bne.n	2052 <kprintf+0xda6>
/home/palatrauss/optee_with_ftpm_ta/optee_os/lib/libutils/ext/snprintk.c:611
    208e:	6cfb      	ldr	r3, [r7, #76]	; 0x4c
    2090:	f003 0304 	and.w	r3, r3, #4
    2094:	2b00      	cmp	r3, #0
    2096:	f43f a95a 	beq.w	134e <kprintf+0xa2>
/home/palatrauss/optee_with_ftpm_ta/optee_os/lib/libutils/ext/snprintk.c:612
    209a:	6d7a      	ldr	r2, [r7, #84]	; 0x54
    209c:	6e7b      	ldr	r3, [r7, #100]	; 0x64
    209e:	eba2 0303 	sub.w	r3, r2, r3
    20a2:	647b      	str	r3, [r7, #68]	; 0x44
/home/palatrauss/optee_with_ftpm_ta/optee_os/lib/libutils/ext/snprintk.c:613
    20a4:	e013      	b.n	20ce <kprintf+0xe22>
/home/palatrauss/optee_with_ftpm_ta/optee_os/lib/libutils/ext/snprintk.c:614
    20a6:	6b3b      	ldr	r3, [r7, #48]	; 0x30
    20a8:	2b08      	cmp	r3, #8
    20aa:	d110      	bne.n	20ce <kprintf+0xe22>
/home/palatrauss/optee_with_ftpm_ta/optee_os/lib/libutils/ext/snprintk.c:614 (discriminator 1)
    20ac:	6abb      	ldr	r3, [r7, #40]	; 0x28
    20ae:	2b00      	cmp	r3, #0
    20b0:	d00d      	beq.n	20ce <kprintf+0xe22>
/home/palatrauss/optee_with_ftpm_ta/optee_os/lib/libutils/ext/snprintk.c:614 (discriminator 2)
    20b2:	6afb      	ldr	r3, [r7, #44]	; 0x2c
    20b4:	2b00      	cmp	r3, #0
    20b6:	d003      	beq.n	20c0 <kprintf+0xe14>
/home/palatrauss/optee_with_ftpm_ta/optee_os/lib/libutils/ext/snprintk.c:614 (discriminator 4)
    20b8:	6aba      	ldr	r2, [r7, #40]	; 0x28
    20ba:	6f3b      	ldr	r3, [r7, #112]	; 0x70
    20bc:	429a      	cmp	r2, r3
    20be:	d206      	bcs.n	20ce <kprintf+0xe22>
/home/palatrauss/optee_with_ftpm_ta/optee_os/lib/libutils/ext/snprintk.c:614 (discriminator 5)
    20c0:	6aba      	ldr	r2, [r7, #40]	; 0x28
    20c2:	f102 0301 	add.w	r3, r2, #1
    20c6:	62bb      	str	r3, [r7, #40]	; 0x28
    20c8:	f04f 0320 	mov.w	r3, #32
    20cc:	7013      	strb	r3, [r2, #0]
/home/palatrauss/optee_with_ftpm_ta/optee_os/lib/libutils/ext/snprintk.c:613
    20ce:	6c7a      	ldr	r2, [r7, #68]	; 0x44
    20d0:	f102 33ff 	add.w	r3, r2, #4294967295	; 0xffffffff
    20d4:	647b      	str	r3, [r7, #68]	; 0x44
    20d6:	2a00      	cmp	r2, #0
    20d8:	dce5      	bgt.n	20a6 <kprintf+0xdfa>
/home/palatrauss/optee_with_ftpm_ta/optee_os/lib/libutils/ext/snprintk.c:281
    20da:	f7ff b938 	b.w	134e <kprintf+0xa2>
/home/palatrauss/optee_with_ftpm_ta/optee_os/lib/libutils/ext/snprintk.c:286
    20de:	bf00      	nop
    20e0:	e000      	b.n	20e4 <kprintf+0xe38>
/home/palatrauss/optee_with_ftpm_ta/optee_os/lib/libutils/ext/snprintk.c:548
    20e2:	bf00      	nop
/home/palatrauss/optee_with_ftpm_ta/optee_os/lib/libutils/ext/snprintk.c:619
    20e4:	6b3b      	ldr	r3, [r7, #48]	; 0x30
    20e6:	2b08      	cmp	r3, #8
    20e8:	d105      	bne.n	20f6 <kprintf+0xe4a>
/home/palatrauss/optee_with_ftpm_ta/optee_os/lib/libutils/ext/snprintk.c:619 (discriminator 1)
    20ea:	6afb      	ldr	r3, [r7, #44]	; 0x2c
    20ec:	2b00      	cmp	r3, #0
    20ee:	d002      	beq.n	20f6 <kprintf+0xe4a>
/home/palatrauss/optee_with_ftpm_ta/optee_os/lib/libutils/ext/snprintk.c:620
    20f0:	6afb      	ldr	r3, [r7, #44]	; 0x2c
    20f2:	6aba      	ldr	r2, [r7, #40]	; 0x28
    20f4:	601a      	str	r2, [r3, #0]
/home/palatrauss/optee_with_ftpm_ta/optee_os/lib/libutils/ext/snprintk.c:621
    20f6:	6d3b      	ldr	r3, [r7, #80]	; 0x50
/home/palatrauss/optee_with_ftpm_ta/optee_os/lib/libutils/ext/snprintk.c:244
    20f8:	490c      	ldr	r1, [pc, #48]	; (212c <kprintf+0xe80>)
    20fa:	4479      	add	r1, pc
/home/palatrauss/optee_with_ftpm_ta/optee_os/lib/libutils/ext/snprintk.c:622
    20fc:	4a0c      	ldr	r2, [pc, #48]	; (2130 <kprintf+0xe84>)
    20fe:	588a      	ldr	r2, [r1, r2]
    2100:	6811      	ldr	r1, [r2, #0]
    2102:	f8d7 20ac 	ldr.w	r2, [r7, #172]	; 0xac
    2106:	4051      	eors	r1, r2
    2108:	f04f 0200 	mov.w	r2, #0
    210c:	d001      	beq.n	2112 <kprintf+0xe66>
    210e:	f7fe fc25 	bl	95c <__stack_chk_fail>
    2112:	4618      	mov	r0, r3
    2114:	f107 07b0 	add.w	r7, r7, #176	; 0xb0
    2118:	46bd      	mov	sp, r7
    211a:	e9dd 4500 	ldrd	r4, r5, [sp]
    211e:	e9dd 7802 	ldrd	r7, r8, [sp, #8]
    2122:	e9dd 9a04 	ldrd	r9, sl, [sp, #16]
    2126:	b006      	add	sp, #24
    2128:	e8bd 8800 	ldmia.w	sp!, {fp, pc}
    212c:	0001cf8a 	.word	0x0001cf8a
    2130:	0000000c 	.word	0x0000000c

00002134 <__aeabi_ldivmod>:
__aeabi_ldivmod():
/home/palatrauss/optee_with_ftpm_ta/optee_os/lib/libutils/isoc/arch/arm/arm32_aeabi_ldivmod_a32.S:14
    2134:	e92d5000 	push	{ip, lr}
/home/palatrauss/optee_with_ftpm_ta/optee_os/lib/libutils/isoc/arch/arm/arm32_aeabi_ldivmod_a32.S:16
    2138:	e92d000f 	push	{r0, r1, r2, r3}
/home/palatrauss/optee_with_ftpm_ta/optee_os/lib/libutils/isoc/arch/arm/arm32_aeabi_ldivmod_a32.S:18
    213c:	e1a0000d 	mov	r0, sp
/home/palatrauss/optee_with_ftpm_ta/optee_os/lib/libutils/isoc/arch/arm/arm32_aeabi_ldivmod_a32.S:19
    2140:	fa000096 	blx	23a0 <__l_divmod>
/home/palatrauss/optee_with_ftpm_ta/optee_os/lib/libutils/isoc/arch/arm/arm32_aeabi_ldivmod_a32.S:20
    2144:	e8bd000f 	pop	{r0, r1, r2, r3}
/home/palatrauss/optee_with_ftpm_ta/optee_os/lib/libutils/isoc/arch/arm/arm32_aeabi_ldivmod_a32.S:21
    2148:	e8bd9000 	pop	{ip, pc}

0000214c <__aeabi_uldivmod>:
__aeabi_uldivmod():
/home/palatrauss/optee_with_ftpm_ta/optee_os/lib/libutils/isoc/arch/arm/arm32_aeabi_ldivmod_a32.S:29
    214c:	e92d5000 	push	{ip, lr}
/home/palatrauss/optee_with_ftpm_ta/optee_os/lib/libutils/isoc/arch/arm/arm32_aeabi_ldivmod_a32.S:31
    2150:	e92d000f 	push	{r0, r1, r2, r3}
/home/palatrauss/optee_with_ftpm_ta/optee_os/lib/libutils/isoc/arch/arm/arm32_aeabi_ldivmod_a32.S:33
    2154:	e1a0000d 	mov	r0, sp
/home/palatrauss/optee_with_ftpm_ta/optee_os/lib/libutils/isoc/arch/arm/arm32_aeabi_ldivmod_a32.S:34
    2158:	fb00006a 	blx	230a <__ul_divmod>
/home/palatrauss/optee_with_ftpm_ta/optee_os/lib/libutils/isoc/arch/arm/arm32_aeabi_ldivmod_a32.S:35
    215c:	e8bd000f 	pop	{r0, r1, r2, r3}
/home/palatrauss/optee_with_ftpm_ta/optee_os/lib/libutils/isoc/arch/arm/arm32_aeabi_ldivmod_a32.S:36
    2160:	e8bd9000 	pop	{ip, pc}

00002164 <division_lqr>:
division_lqr():
/home/palatrauss/optee_with_ftpm_ta/optee_os/lib/libutils/isoc/arch/arm/arm32_aeabi_ldivmod.c:20
    2164:	f84d 4d1c 	str.w	r4, [sp, #-28]!
    2168:	e9cd 5701 	strd	r5, r7, [sp, #4]
    216c:	e9cd 8903 	strd	r8, r9, [sp, #12]
    2170:	e9cd ab05 	strd	sl, fp, [sp, #20]
    2174:	b08d      	sub	sp, #52	; 0x34
    2176:	af00      	add	r7, sp, #0
    2178:	e9c7 0106 	strd	r0, r1, [r7, #24]
    217c:	e9c7 2304 	strd	r2, r3, [r7, #16]
/home/palatrauss/optee_with_ftpm_ta/optee_os/lib/libutils/isoc/arch/arm/arm32_aeabi_ldivmod.c:21
    2180:	f04f 0201 	mov.w	r2, #1
    2184:	f04f 0300 	mov.w	r3, #0
    2188:	e9c7 2308 	strd	r2, r3, [r7, #32]
    218c:	efc0 0010 	vmov.i32	d16, #0	; 0x00000000
    2190:	edc7 0b0a 	vstr	d16, [r7, #40]	; 0x28
/home/palatrauss/optee_with_ftpm_ta/optee_os/lib/libutils/isoc/arch/arm/arm32_aeabi_ldivmod.c:22
    2194:	e9d7 2304 	ldrd	r2, r3, [r7, #16]
    2198:	4313      	orrs	r3, r2
    219a:	d11b      	bne.n	21d4 <division_lqr+0x70>
/home/palatrauss/optee_with_ftpm_ta/optee_os/lib/libutils/isoc/arch/arm/arm32_aeabi_ldivmod.c:23
    219c:	6d3b      	ldr	r3, [r7, #80]	; 0x50
    219e:	ffc7 0e1f 	vmov.i8	d16, #255	; 0xff
    21a2:	edc3 0b02 	vstr	d16, [r3, #8]
/home/palatrauss/optee_with_ftpm_ta/optee_os/lib/libutils/isoc/arch/arm/arm32_aeabi_ldivmod.c:24
    21a6:	e065      	b.n	2274 <division_lqr+0x110>
/home/palatrauss/optee_with_ftpm_ta/optee_os/lib/libutils/isoc/arch/arm/arm32_aeabi_ldivmod.c:28
    21a8:	e9d7 2308 	ldrd	r2, r3, [r7, #32]
    21ac:	1891      	adds	r1, r2, r2
    21ae:	60b9      	str	r1, [r7, #8]
    21b0:	eb43 0303 	adc.w	r3, r3, r3
    21b4:	60fb      	str	r3, [r7, #12]
    21b6:	e9d7 2302 	ldrd	r2, r3, [r7, #8]
    21ba:	e9c7 2308 	strd	r2, r3, [r7, #32]
/home/palatrauss/optee_with_ftpm_ta/optee_os/lib/libutils/isoc/arch/arm/arm32_aeabi_ldivmod.c:29
    21be:	e9d7 2304 	ldrd	r2, r3, [r7, #16]
    21c2:	1891      	adds	r1, r2, r2
    21c4:	6039      	str	r1, [r7, #0]
    21c6:	eb43 0303 	adc.w	r3, r3, r3
    21ca:	607b      	str	r3, [r7, #4]
    21cc:	e9d7 2300 	ldrd	r2, r3, [r7]
    21d0:	e9c7 2304 	strd	r2, r3, [r7, #16]
/home/palatrauss/optee_with_ftpm_ta/optee_os/lib/libutils/isoc/arch/arm/arm32_aeabi_ldivmod.c:27
    21d4:	e9d7 2304 	ldrd	r2, r3, [r7, #16]
    21d8:	2b00      	cmp	r3, #0
    21da:	dae5      	bge.n	21a8 <division_lqr+0x44>
/home/palatrauss/optee_with_ftpm_ta/optee_os/lib/libutils/isoc/arch/arm/arm32_aeabi_ldivmod.c:32
    21dc:	e03c      	b.n	2258 <division_lqr+0xf4>
/home/palatrauss/optee_with_ftpm_ta/optee_os/lib/libutils/isoc/arch/arm/arm32_aeabi_ldivmod.c:33
    21de:	e9d7 230a 	ldrd	r2, r3, [r7, #40]	; 0x28
    21e2:	1894      	adds	r4, r2, r2
    21e4:	eb43 0503 	adc.w	r5, r3, r3
    21e8:	e9c7 450a 	strd	r4, r5, [r7, #40]	; 0x28
/home/palatrauss/optee_with_ftpm_ta/optee_os/lib/libutils/isoc/arch/arm/arm32_aeabi_ldivmod.c:34
    21ec:	e9d7 0106 	ldrd	r0, r1, [r7, #24]
    21f0:	e9d7 2304 	ldrd	r2, r3, [r7, #16]
    21f4:	4290      	cmp	r0, r2
    21f6:	eb71 0303 	sbcs.w	r3, r1, r3
    21fa:	d311      	bcc.n	2220 <division_lqr+0xbc>
/home/palatrauss/optee_with_ftpm_ta/optee_os/lib/libutils/isoc/arch/arm/arm32_aeabi_ldivmod.c:35
    21fc:	e9d7 0106 	ldrd	r0, r1, [r7, #24]
    2200:	e9d7 2304 	ldrd	r2, r3, [r7, #16]
    2204:	ebb0 0802 	subs.w	r8, r0, r2
    2208:	eb61 0903 	sbc.w	r9, r1, r3
    220c:	e9c7 8906 	strd	r8, r9, [r7, #24]
/home/palatrauss/optee_with_ftpm_ta/optee_os/lib/libutils/isoc/arch/arm/arm32_aeabi_ldivmod.c:36
    2210:	e9d7 230a 	ldrd	r2, r3, [r7, #40]	; 0x28
    2214:	f112 0a01 	adds.w	sl, r2, #1
    2218:	f143 0b00 	adc.w	fp, r3, #0
    221c:	e9c7 ab0a 	strd	sl, fp, [r7, #40]	; 0x28
/home/palatrauss/optee_with_ftpm_ta/optee_os/lib/libutils/isoc/arch/arm/arm32_aeabi_ldivmod.c:38
    2220:	e9d7 0104 	ldrd	r0, r1, [r7, #16]
    2224:	f04f 0200 	mov.w	r2, #0
    2228:	f04f 0300 	mov.w	r3, #0
    222c:	ea4f 0250 	mov.w	r2, r0, lsr #1
    2230:	ea42 72c1 	orr.w	r2, r2, r1, lsl #31
    2234:	ea4f 0351 	mov.w	r3, r1, lsr #1
    2238:	e9c7 2304 	strd	r2, r3, [r7, #16]
/home/palatrauss/optee_with_ftpm_ta/optee_os/lib/libutils/isoc/arch/arm/arm32_aeabi_ldivmod.c:39
    223c:	e9d7 0108 	ldrd	r0, r1, [r7, #32]
    2240:	f04f 0200 	mov.w	r2, #0
    2244:	f04f 0300 	mov.w	r3, #0
    2248:	ea4f 0250 	mov.w	r2, r0, lsr #1
    224c:	ea42 72c1 	orr.w	r2, r2, r1, lsl #31
    2250:	ea4f 0351 	mov.w	r3, r1, lsr #1
    2254:	e9c7 2308 	strd	r2, r3, [r7, #32]
/home/palatrauss/optee_with_ftpm_ta/optee_os/lib/libutils/isoc/arch/arm/arm32_aeabi_ldivmod.c:32
    2258:	e9d7 2308 	ldrd	r2, r3, [r7, #32]
    225c:	4313      	orrs	r3, r2
    225e:	d1be      	bne.n	21de <division_lqr+0x7a>
/home/palatrauss/optee_with_ftpm_ta/optee_os/lib/libutils/isoc/arch/arm/arm32_aeabi_ldivmod.c:41
    2260:	6d39      	ldr	r1, [r7, #80]	; 0x50
    2262:	e9d7 2306 	ldrd	r2, r3, [r7, #24]
    2266:	e9c1 2302 	strd	r2, r3, [r1, #8]
/home/palatrauss/optee_with_ftpm_ta/optee_os/lib/libutils/isoc/arch/arm/arm32_aeabi_ldivmod.c:42
    226a:	6d39      	ldr	r1, [r7, #80]	; 0x50
    226c:	e9d7 230a 	ldrd	r2, r3, [r7, #40]	; 0x28
    2270:	e9c1 2300 	strd	r2, r3, [r1]
/home/palatrauss/optee_with_ftpm_ta/optee_os/lib/libutils/isoc/arch/arm/arm32_aeabi_ldivmod.c:43
    2274:	f107 0734 	add.w	r7, r7, #52	; 0x34
    2278:	46bd      	mov	sp, r7
    227a:	e9dd 4500 	ldrd	r4, r5, [sp]
    227e:	e9dd 7802 	ldrd	r7, r8, [sp, #8]
    2282:	e9dd 9a04 	ldrd	r9, sl, [sp, #16]
    2286:	b006      	add	sp, #24
    2288:	f85d bb04 	ldr.w	fp, [sp], #4
    228c:	4770      	bx	lr

0000228e <ul_div_qr>:
ul_div_qr():
/home/palatrauss/optee_with_ftpm_ta/optee_os/lib/libutils/isoc/arch/arm/arm32_aeabi_ldivmod.c:47
    228e:	e96d 4506 	strd	r4, r5, [sp, #-24]!
    2292:	e9cd 7802 	strd	r7, r8, [sp, #8]
    2296:	e9cd 9e04 	strd	r9, lr, [sp, #16]
    229a:	b086      	sub	sp, #24
    229c:	af02      	add	r7, sp, #8
    229e:	e9c7 0102 	strd	r0, r1, [r7, #8]
    22a2:	e9c7 2300 	strd	r2, r3, [r7]
/home/palatrauss/optee_with_ftpm_ta/optee_os/lib/libutils/isoc/arch/arm/arm32_aeabi_ldivmod.c:49
    22a6:	6abb      	ldr	r3, [r7, #40]	; 0x28
    22a8:	9300      	str	r3, [sp, #0]
    22aa:	e9d7 2300 	ldrd	r2, r3, [r7]
    22ae:	e9d7 0102 	ldrd	r0, r1, [r7, #8]
    22b2:	f7ff ff57 	bl	2164 <division_lqr>
/home/palatrauss/optee_with_ftpm_ta/optee_os/lib/libutils/isoc/arch/arm/arm32_aeabi_ldivmod.c:52
    22b6:	6abb      	ldr	r3, [r7, #40]	; 0x28
    22b8:	691b      	ldr	r3, [r3, #16]
    22ba:	2b00      	cmp	r3, #0
    22bc:	d00b      	beq.n	22d6 <ul_div_qr+0x48>
/home/palatrauss/optee_with_ftpm_ta/optee_os/lib/libutils/isoc/arch/arm/arm32_aeabi_ldivmod.c:53
    22be:	6abb      	ldr	r3, [r7, #40]	; 0x28
    22c0:	e9d3 2300 	ldrd	r2, r3, [r3]
    22c4:	f04f 0100 	mov.w	r1, #0
    22c8:	f1d2 0800 	rsbs	r8, r2, #0
    22cc:	eb61 0903 	sbc.w	r9, r1, r3
    22d0:	6abb      	ldr	r3, [r7, #40]	; 0x28
    22d2:	e9c3 8900 	strd	r8, r9, [r3]
/home/palatrauss/optee_with_ftpm_ta/optee_os/lib/libutils/isoc/arch/arm/arm32_aeabi_ldivmod.c:54
    22d6:	6abb      	ldr	r3, [r7, #40]	; 0x28
    22d8:	695b      	ldr	r3, [r3, #20]
    22da:	2b00      	cmp	r3, #0
    22dc:	d00a      	beq.n	22f4 <ul_div_qr+0x66>
/home/palatrauss/optee_with_ftpm_ta/optee_os/lib/libutils/isoc/arch/arm/arm32_aeabi_ldivmod.c:55
    22de:	6abb      	ldr	r3, [r7, #40]	; 0x28
    22e0:	e9d3 2302 	ldrd	r2, r3, [r3, #8]
    22e4:	f04f 0100 	mov.w	r1, #0
    22e8:	4254      	negs	r4, r2
    22ea:	eb61 0503 	sbc.w	r5, r1, r3
    22ee:	6abb      	ldr	r3, [r7, #40]	; 0x28
    22f0:	e9c3 4502 	strd	r4, r5, [r3, #8]
/home/palatrauss/optee_with_ftpm_ta/optee_os/lib/libutils/isoc/arch/arm/arm32_aeabi_ldivmod.c:56
    22f4:	bf00      	nop
    22f6:	f107 0710 	add.w	r7, r7, #16
    22fa:	46bd      	mov	sp, r7
    22fc:	e9dd 4500 	ldrd	r4, r5, [sp]
    2300:	e9dd 7802 	ldrd	r7, r8, [sp, #8]
    2304:	b004      	add	sp, #16
    2306:	e8bd 8200 	ldmia.w	sp!, {r9, pc}

0000230a <__ul_divmod>:
__ul_divmod():
/home/palatrauss/optee_with_ftpm_ta/optee_os/lib/libutils/isoc/arch/arm/arm32_aeabi_ldivmod.c:66
    230a:	e96d 7e02 	strd	r7, lr, [sp, #-8]!
    230e:	b090      	sub	sp, #64	; 0x40
    2310:	af02      	add	r7, sp, #8
    2312:	6078      	str	r0, [r7, #4]
    2314:	4a1f      	ldr	r2, [pc, #124]	; (2394 <__ul_divmod+0x8a>)
    2316:	447a      	add	r2, pc
    2318:	4b1f      	ldr	r3, [pc, #124]	; (2398 <__ul_divmod+0x8e>)
    231a:	58d3      	ldr	r3, [r2, r3]
    231c:	681b      	ldr	r3, [r3, #0]
    231e:	637b      	str	r3, [r7, #52]	; 0x34
    2320:	f04f 0300 	mov.w	r3, #0
/home/palatrauss/optee_with_ftpm_ta/optee_os/lib/libutils/isoc/arch/arm/arm32_aeabi_ldivmod.c:67
    2324:	687b      	ldr	r3, [r7, #4]
    2326:	e9d3 2300 	ldrd	r2, r3, [r3]
    232a:	e9c7 2302 	strd	r2, r3, [r7, #8]
/home/palatrauss/optee_with_ftpm_ta/optee_os/lib/libutils/isoc/arch/arm/arm32_aeabi_ldivmod.c:68
    232e:	687b      	ldr	r3, [r7, #4]
    2330:	e9d3 2302 	ldrd	r2, r3, [r3, #8]
    2334:	e9c7 2304 	strd	r2, r3, [r7, #16]
/home/palatrauss/optee_with_ftpm_ta/optee_os/lib/libutils/isoc/arch/arm/arm32_aeabi_ldivmod.c:69
    2338:	f107 0318 	add.w	r3, r7, #24
    233c:	efc0 0010 	vmov.i32	d16, #0	; 0x00000000
    2340:	edc3 0b00 	vstr	d16, [r3]
    2344:	edc3 0b02 	vstr	d16, [r3, #8]
    2348:	edc3 0b04 	vstr	d16, [r3, #16]
/home/palatrauss/optee_with_ftpm_ta/optee_os/lib/libutils/isoc/arch/arm/arm32_aeabi_ldivmod.c:71
    234c:	f107 0318 	add.w	r3, r7, #24
    2350:	9300      	str	r3, [sp, #0]
    2352:	e9d7 2304 	ldrd	r2, r3, [r7, #16]
    2356:	e9d7 0102 	ldrd	r0, r1, [r7, #8]
    235a:	f7ff ff98 	bl	228e <ul_div_qr>
/home/palatrauss/optee_with_ftpm_ta/optee_os/lib/libutils/isoc/arch/arm/arm32_aeabi_ldivmod.c:73
    235e:	e9d7 2306 	ldrd	r2, r3, [r7, #24]
    2362:	6879      	ldr	r1, [r7, #4]
    2364:	e9c1 2300 	strd	r2, r3, [r1]
/home/palatrauss/optee_with_ftpm_ta/optee_os/lib/libutils/isoc/arch/arm/arm32_aeabi_ldivmod.c:74
    2368:	e9d7 2308 	ldrd	r2, r3, [r7, #32]
    236c:	6879      	ldr	r1, [r7, #4]
    236e:	e9c1 2302 	strd	r2, r3, [r1, #8]
/home/palatrauss/optee_with_ftpm_ta/optee_os/lib/libutils/isoc/arch/arm/arm32_aeabi_ldivmod.c:75
    2372:	bf00      	nop
/home/palatrauss/optee_with_ftpm_ta/optee_os/lib/libutils/isoc/arch/arm/arm32_aeabi_ldivmod.c:66
    2374:	4a09      	ldr	r2, [pc, #36]	; (239c <__ul_divmod+0x92>)
    2376:	447a      	add	r2, pc
/home/palatrauss/optee_with_ftpm_ta/optee_os/lib/libutils/isoc/arch/arm/arm32_aeabi_ldivmod.c:75
    2378:	4b07      	ldr	r3, [pc, #28]	; (2398 <__ul_divmod+0x8e>)
    237a:	58d3      	ldr	r3, [r2, r3]
    237c:	681a      	ldr	r2, [r3, #0]
    237e:	6b7b      	ldr	r3, [r7, #52]	; 0x34
    2380:	405a      	eors	r2, r3
    2382:	f04f 0300 	mov.w	r3, #0
    2386:	d001      	beq.n	238c <__ul_divmod+0x82>
    2388:	f7fe fae8 	bl	95c <__stack_chk_fail>
    238c:	f107 0738 	add.w	r7, r7, #56	; 0x38
    2390:	46bd      	mov	sp, r7
    2392:	bd80      	pop	{r7, pc}
    2394:	0001cd6e 	.word	0x0001cd6e
    2398:	0000000c 	.word	0x0000000c
    239c:	0001cd0e 	.word	0x0001cd0e

000023a0 <__l_divmod>:
__l_divmod():
/home/palatrauss/optee_with_ftpm_ta/optee_os/lib/libutils/isoc/arch/arm/arm32_aeabi_ldivmod.c:85
    23a0:	e96d 4506 	strd	r4, r5, [sp, #-24]!
    23a4:	e9cd 7802 	strd	r7, r8, [sp, #8]
    23a8:	e9cd 9e04 	strd	r9, lr, [sp, #16]
    23ac:	b090      	sub	sp, #64	; 0x40
    23ae:	af02      	add	r7, sp, #8
    23b0:	6078      	str	r0, [r7, #4]
    23b2:	4a3d      	ldr	r2, [pc, #244]	; (24a8 <__l_divmod+0x108>)
    23b4:	447a      	add	r2, pc
    23b6:	4b3d      	ldr	r3, [pc, #244]	; (24ac <__l_divmod+0x10c>)
    23b8:	58d3      	ldr	r3, [r2, r3]
    23ba:	681b      	ldr	r3, [r3, #0]
    23bc:	637b      	str	r3, [r7, #52]	; 0x34
    23be:	f04f 0300 	mov.w	r3, #0
/home/palatrauss/optee_with_ftpm_ta/optee_os/lib/libutils/isoc/arch/arm/arm32_aeabi_ldivmod.c:86
    23c2:	687b      	ldr	r3, [r7, #4]
    23c4:	e9d3 2300 	ldrd	r2, r3, [r3]
    23c8:	e9c7 2302 	strd	r2, r3, [r7, #8]
/home/palatrauss/optee_with_ftpm_ta/optee_os/lib/libutils/isoc/arch/arm/arm32_aeabi_ldivmod.c:87
    23cc:	687b      	ldr	r3, [r7, #4]
    23ce:	e9d3 2302 	ldrd	r2, r3, [r3, #8]
    23d2:	e9c7 2304 	strd	r2, r3, [r7, #16]
/home/palatrauss/optee_with_ftpm_ta/optee_os/lib/libutils/isoc/arch/arm/arm32_aeabi_ldivmod.c:88
    23d6:	f107 0318 	add.w	r3, r7, #24
    23da:	efc0 0010 	vmov.i32	d16, #0	; 0x00000000
    23de:	edc3 0b00 	vstr	d16, [r3]
    23e2:	edc3 0b02 	vstr	d16, [r3, #8]
    23e6:	edc3 0b04 	vstr	d16, [r3, #16]
/home/palatrauss/optee_with_ftpm_ta/optee_os/lib/libutils/isoc/arch/arm/arm32_aeabi_ldivmod.c:90
    23ea:	e9d7 2302 	ldrd	r2, r3, [r7, #8]
    23ee:	2b00      	cmp	r3, #0
    23f0:	da05      	bge.n	23fe <__l_divmod+0x5e>
/home/palatrauss/optee_with_ftpm_ta/optee_os/lib/libutils/isoc/arch/arm/arm32_aeabi_ldivmod.c:90 (discriminator 1)
    23f2:	e9d7 2304 	ldrd	r2, r3, [r7, #16]
    23f6:	2a01      	cmp	r2, #1
    23f8:	f173 0300 	sbcs.w	r3, r3, #0
    23fc:	da09      	bge.n	2412 <__l_divmod+0x72>
/home/palatrauss/optee_with_ftpm_ta/optee_os/lib/libutils/isoc/arch/arm/arm32_aeabi_ldivmod.c:90 (discriminator 3)
    23fe:	e9d7 2302 	ldrd	r2, r3, [r7, #8]
    2402:	2a01      	cmp	r2, #1
    2404:	f173 0300 	sbcs.w	r3, r3, #0
    2408:	db06      	blt.n	2418 <__l_divmod+0x78>
/home/palatrauss/optee_with_ftpm_ta/optee_os/lib/libutils/isoc/arch/arm/arm32_aeabi_ldivmod.c:91
    240a:	e9d7 2304 	ldrd	r2, r3, [r7, #16]
    240e:	2b00      	cmp	r3, #0
    2410:	da02      	bge.n	2418 <__l_divmod+0x78>
/home/palatrauss/optee_with_ftpm_ta/optee_os/lib/libutils/isoc/arch/arm/arm32_aeabi_ldivmod.c:92
    2412:	f04f 0301 	mov.w	r3, #1
    2416:	62bb      	str	r3, [r7, #40]	; 0x28
/home/palatrauss/optee_with_ftpm_ta/optee_os/lib/libutils/isoc/arch/arm/arm32_aeabi_ldivmod.c:93
    2418:	e9d7 2302 	ldrd	r2, r3, [r7, #8]
    241c:	2b00      	cmp	r3, #0
    241e:	da0c      	bge.n	243a <__l_divmod+0x9a>
/home/palatrauss/optee_with_ftpm_ta/optee_os/lib/libutils/isoc/arch/arm/arm32_aeabi_ldivmod.c:94
    2420:	e9d7 2302 	ldrd	r2, r3, [r7, #8]
    2424:	f04f 0100 	mov.w	r1, #0
    2428:	f1d2 0800 	rsbs	r8, r2, #0
    242c:	eb61 0903 	sbc.w	r9, r1, r3
    2430:	e9c7 8902 	strd	r8, r9, [r7, #8]
/home/palatrauss/optee_with_ftpm_ta/optee_os/lib/libutils/isoc/arch/arm/arm32_aeabi_ldivmod.c:95
    2434:	f04f 0301 	mov.w	r3, #1
    2438:	62fb      	str	r3, [r7, #44]	; 0x2c
/home/palatrauss/optee_with_ftpm_ta/optee_os/lib/libutils/isoc/arch/arm/arm32_aeabi_ldivmod.c:97
    243a:	e9d7 2304 	ldrd	r2, r3, [r7, #16]
    243e:	2b00      	cmp	r3, #0
    2440:	da08      	bge.n	2454 <__l_divmod+0xb4>
/home/palatrauss/optee_with_ftpm_ta/optee_os/lib/libutils/isoc/arch/arm/arm32_aeabi_ldivmod.c:98
    2442:	e9d7 2304 	ldrd	r2, r3, [r7, #16]
    2446:	f04f 0100 	mov.w	r1, #0
    244a:	4254      	negs	r4, r2
    244c:	eb61 0503 	sbc.w	r5, r1, r3
    2450:	e9c7 4504 	strd	r4, r5, [r7, #16]
/home/palatrauss/optee_with_ftpm_ta/optee_os/lib/libutils/isoc/arch/arm/arm32_aeabi_ldivmod.c:100
    2454:	e9d7 0102 	ldrd	r0, r1, [r7, #8]
    2458:	e9d7 2304 	ldrd	r2, r3, [r7, #16]
    245c:	f107 0418 	add.w	r4, r7, #24
    2460:	9400      	str	r4, [sp, #0]
    2462:	f7ff ff14 	bl	228e <ul_div_qr>
/home/palatrauss/optee_with_ftpm_ta/optee_os/lib/libutils/isoc/arch/arm/arm32_aeabi_ldivmod.c:102
    2466:	e9d7 2306 	ldrd	r2, r3, [r7, #24]
    246a:	6879      	ldr	r1, [r7, #4]
    246c:	e9c1 2300 	strd	r2, r3, [r1]
/home/palatrauss/optee_with_ftpm_ta/optee_os/lib/libutils/isoc/arch/arm/arm32_aeabi_ldivmod.c:103
    2470:	e9d7 2308 	ldrd	r2, r3, [r7, #32]
    2474:	6879      	ldr	r1, [r7, #4]
    2476:	e9c1 2302 	strd	r2, r3, [r1, #8]
/home/palatrauss/optee_with_ftpm_ta/optee_os/lib/libutils/isoc/arch/arm/arm32_aeabi_ldivmod.c:104
    247a:	bf00      	nop
/home/palatrauss/optee_with_ftpm_ta/optee_os/lib/libutils/isoc/arch/arm/arm32_aeabi_ldivmod.c:85
    247c:	4a0c      	ldr	r2, [pc, #48]	; (24b0 <__l_divmod+0x110>)
    247e:	447a      	add	r2, pc
/home/palatrauss/optee_with_ftpm_ta/optee_os/lib/libutils/isoc/arch/arm/arm32_aeabi_ldivmod.c:104
    2480:	4b0a      	ldr	r3, [pc, #40]	; (24ac <__l_divmod+0x10c>)
    2482:	58d3      	ldr	r3, [r2, r3]
    2484:	681a      	ldr	r2, [r3, #0]
    2486:	6b7b      	ldr	r3, [r7, #52]	; 0x34
    2488:	405a      	eors	r2, r3
    248a:	f04f 0300 	mov.w	r3, #0
    248e:	d001      	beq.n	2494 <__l_divmod+0xf4>
    2490:	f7fe fa64 	bl	95c <__stack_chk_fail>
    2494:	f107 0738 	add.w	r7, r7, #56	; 0x38
    2498:	46bd      	mov	sp, r7
    249a:	e9dd 4500 	ldrd	r4, r5, [sp]
    249e:	e9dd 7802 	ldrd	r7, r8, [sp, #8]
    24a2:	b004      	add	sp, #16
    24a4:	e8bd 8200 	ldmia.w	sp!, {r9, pc}
    24a8:	0001ccd0 	.word	0x0001ccd0
    24ac:	0000000c 	.word	0x0000000c
    24b0:	0001cc06 	.word	0x0001cc06

000024b4 <trace_ext_puts>:
trace_ext_puts():
/home/palatrauss/optee_with_ftpm_ta/optee_os/lib/libutee/trace_ext.c:22
    24b4:	e96d 7e02 	strd	r7, lr, [sp, #-8]!
    24b8:	b082      	sub	sp, #8
    24ba:	af00      	add	r7, sp, #0
    24bc:	6078      	str	r0, [r7, #4]
/home/palatrauss/optee_with_ftpm_ta/optee_os/lib/libutee/trace_ext.c:26
    24be:	6878      	ldr	r0, [r7, #4]
    24c0:	f017 fe46 	bl	1a150 <strlen>
    24c4:	4603      	mov	r3, r0
    24c6:	4619      	mov	r1, r3
    24c8:	6878      	ldr	r0, [r7, #4]
    24ca:	f00a ecfa 	blx	cec0 <_utee_log>
/home/palatrauss/optee_with_ftpm_ta/optee_os/lib/libutee/trace_ext.c:28
    24ce:	bf00      	nop
    24d0:	f107 0708 	add.w	r7, r7, #8
    24d4:	46bd      	mov	sp, r7
    24d6:	bd80      	pop	{r7, pc}

000024d8 <trace_ext_get_thread_id>:
trace_ext_get_thread_id():
/home/palatrauss/optee_with_ftpm_ta/optee_os/lib/libutee/trace_ext.c:31
    24d8:	f84d 7d04 	str.w	r7, [sp, #-4]!
    24dc:	af00      	add	r7, sp, #0
/home/palatrauss/optee_with_ftpm_ta/optee_os/lib/libutee/trace_ext.c:32
    24de:	f04f 33ff 	mov.w	r3, #4294967295	; 0xffffffff
/home/palatrauss/optee_with_ftpm_ta/optee_os/lib/libutee/trace_ext.c:33
    24e2:	4618      	mov	r0, r3
    24e4:	46bd      	mov	sp, r7
    24e6:	f85d 7b04 	ldr.w	r7, [sp], #4
    24ea:	4770      	bx	lr

000024ec <printf>:
printf():
/home/palatrauss/optee_with_ftpm_ta/optee_os/lib/libutee/trace_ext.c:41
    24ec:	b40f      	push	{r0, r1, r2, r3}
    24ee:	f84d 4d0c 	str.w	r4, [sp, #-12]!
    24f2:	e9cd 7e01 	strd	r7, lr, [sp, #4]
    24f6:	b0c7      	sub	sp, #284	; 0x11c
    24f8:	af00      	add	r7, sp, #0
    24fa:	f507 738c 	add.w	r3, r7, #280	; 0x118
    24fe:	f5a3 738a 	sub.w	r3, r3, #276	; 0x114
    2502:	f8d7 2128 	ldr.w	r2, [r7, #296]	; 0x128
    2506:	601a      	str	r2, [r3, #0]
    2508:	4a2d      	ldr	r2, [pc, #180]	; (25c0 <printf+0xd4>)
    250a:	447a      	add	r2, pc
    250c:	4b2d      	ldr	r3, [pc, #180]	; (25c4 <printf+0xd8>)
    250e:	58d3      	ldr	r3, [r2, r3]
    2510:	681b      	ldr	r3, [r3, #0]
    2512:	f8c7 3114 	str.w	r3, [r7, #276]	; 0x114
    2516:	f04f 0300 	mov.w	r3, #0
/home/palatrauss/optee_with_ftpm_ta/optee_os/lib/libutee/trace_ext.c:46
    251a:	f7fe fa5d 	bl	9d8 <trace_get_level>
    251e:	4603      	mov	r3, r0
    2520:	2b00      	cmp	r3, #0
    2522:	dc02      	bgt.n	252a <printf+0x3e>
/home/palatrauss/optee_with_ftpm_ta/optee_os/lib/libutee/trace_ext.c:47
    2524:	f04f 0300 	mov.w	r3, #0
    2528:	e032      	b.n	2590 <printf+0xa4>
/home/palatrauss/optee_with_ftpm_ta/optee_os/lib/libutee/trace_ext.c:49
    252a:	f507 7296 	add.w	r2, r7, #300	; 0x12c
    252e:	f507 738c 	add.w	r3, r7, #280	; 0x118
    2532:	f5a3 7386 	sub.w	r3, r3, #268	; 0x10c
    2536:	601a      	str	r2, [r3, #0]
/home/palatrauss/optee_with_ftpm_ta/optee_os/lib/libutee/trace_ext.c:50
    2538:	f507 738c 	add.w	r3, r7, #280	; 0x118
    253c:	f5a3 7484 	sub.w	r4, r3, #264	; 0x108
    2540:	f507 738c 	add.w	r3, r7, #280	; 0x118
    2544:	f5a3 7386 	sub.w	r3, r3, #268	; 0x10c
    2548:	f507 728c 	add.w	r2, r7, #280	; 0x118
    254c:	f5a2 728a 	sub.w	r2, r2, #276	; 0x114
    2550:	f107 0014 	add.w	r0, r7, #20
    2554:	681b      	ldr	r3, [r3, #0]
    2556:	6812      	ldr	r2, [r2, #0]
    2558:	f44f 7180 	mov.w	r1, #256	; 0x100
    255c:	f017 f9ce 	bl	198fc <vsnprintf>
    2560:	6020      	str	r0, [r4, #0]
/home/palatrauss/optee_with_ftpm_ta/optee_os/lib/libutee/trace_ext.c:53
    2562:	f507 738c 	add.w	r3, r7, #280	; 0x118
    2566:	f5a3 7384 	sub.w	r3, r3, #264	; 0x108
    256a:	681b      	ldr	r3, [r3, #0]
    256c:	2b00      	cmp	r3, #0
    256e:	da05      	bge.n	257c <printf+0x90>
/home/palatrauss/optee_with_ftpm_ta/optee_os/lib/libutee/trace_ext.c:54
    2570:	f507 738c 	add.w	r3, r7, #280	; 0x118
    2574:	f5a3 7384 	sub.w	r3, r3, #264	; 0x108
    2578:	681b      	ldr	r3, [r3, #0]
    257a:	e009      	b.n	2590 <printf+0xa4>
/home/palatrauss/optee_with_ftpm_ta/optee_os/lib/libutee/trace_ext.c:56
    257c:	f107 0314 	add.w	r3, r7, #20
